
build/main.elf:     file format elf32-littlearm

Sections:
Idx Name          Size      VMA       LMA       File off  Algn
  0 .text         000065b8  08000000  0c000000  00010000  2**2
                  CONTENTS, ALLOC, LOAD, READONLY, CODE
  1 Stack         00000800  10000000  10000000  00030000  2**0
                  ALLOC
  2 .ram_code     00000000  10000800  10000800  00020460  2**0
                  CONTENTS
  3 PSRAM_DATA    00000000  10000800  10000800  00020460  2**0
                  CONTENTS
  4 PSRAM_BSS     00000000  10000800  10000800  00020460  2**0
                  CONTENTS
  5 .data         00000460  20000000  0c0065b8  00020000  2**3
                  CONTENTS, ALLOC, LOAD, DATA
  6 .bss          00000638  20000460  0c006a18  00020460  2**2
                  ALLOC
  7 .no_init      00000014  2000ffc0  2000ffc0  0002ffc0  2**2
                  ALLOC
  8 DSRAM2_DATA   00000000  30000000  30000000  00020460  2**0
                  CONTENTS
  9 DSRAM2_BSS    00000e00  30000000  0c006a18  00030000  2**2
                  ALLOC
 10 .debug_aranges 000008d0  00000000  00000000  00020460  2**0
                  CONTENTS, READONLY, DEBUGGING, OCTETS
 11 .debug_info   0000fceb  00000000  00000000  00020d30  2**0
                  CONTENTS, READONLY, DEBUGGING, OCTETS
 12 .debug_abbrev 000023bd  00000000  00000000  00030a1b  2**0
                  CONTENTS, READONLY, DEBUGGING, OCTETS
 13 .debug_line   0000d0a7  00000000  00000000  00032dd8  2**0
                  CONTENTS, READONLY, DEBUGGING, OCTETS
 14 .debug_frame  00002280  00000000  00000000  0003fe80  2**2
                  CONTENTS, READONLY, DEBUGGING, OCTETS
 15 .debug_str    0008348d  00000000  00000000  00042100  2**0
                  CONTENTS, READONLY, DEBUGGING, OCTETS
 16 .debug_loc    000047c0  00000000  00000000  000c558d  2**0
                  CONTENTS, READONLY, DEBUGGING, OCTETS
 17 .debug_ranges 000007b8  00000000  00000000  000c9d4d  2**0
                  CONTENTS, READONLY, DEBUGGING, OCTETS
 18 .build_attributes 00000474  00000000  00000000  000ca505  2**0
                  CONTENTS, READONLY
 19 .debug_macro  0001cd13  00000000  00000000  000ca979  2**0
                  CONTENTS, READONLY, DEBUGGING, OCTETS

Disassembly of section .text:

08000000 <__Vectors>:
 8000000:	00 08 00 10 01 02 00 08 b1 02 00 08 b1 02 00 08     ................
 8000010:	b1 02 00 08 b1 02 00 08 b1 02 00 08 00 00 00 00     ................
	...
 800002c:	b1 02 00 08 b1 02 00 08 00 00 00 00 b1 02 00 08     ................
 800003c:	b1 02 00 08 b1 02 00 08 b1 02 00 08 b1 02 00 08     ................
 800004c:	b1 02 00 08 b1 02 00 08 b1 02 00 08 b1 02 00 08     ................
 800005c:	b1 02 00 08 b1 02 00 08 00 00 00 00 00 00 00 00     ................
 800006c:	00 00 00 00 b1 02 00 08 00 00 00 00 b1 02 00 08     ................
 800007c:	b1 02 00 08 b1 02 00 08 b1 02 00 08 b1 02 00 08     ................
 800008c:	b1 02 00 08 b1 02 00 08 b1 02 00 08 b1 02 00 08     ................
 800009c:	b1 02 00 08 b1 02 00 08 b1 02 00 08 b1 02 00 08     ................
 80000ac:	b1 02 00 08 b1 02 00 08 b1 02 00 08 b1 02 00 08     ................
 80000bc:	b1 02 00 08 b1 02 00 08 b1 02 00 08 b1 02 00 08     ................
 80000cc:	b1 02 00 08 b1 02 00 08 b1 02 00 08 b1 02 00 08     ................
 80000dc:	b1 02 00 08 b1 02 00 08 b1 02 00 08 b1 02 00 08     ................
 80000ec:	b1 02 00 08 b1 02 00 08 b1 02 00 08 b1 02 00 08     ................
 80000fc:	b1 02 00 08 b1 02 00 08 b1 02 00 08 b1 02 00 08     ................
 800010c:	b1 02 00 08 b1 02 00 08 b1 02 00 08 b1 02 00 08     ................
 800011c:	b1 02 00 08 b1 02 00 08 b1 02 00 08 b1 02 00 08     ................
 800012c:	b1 02 00 08 b1 02 00 08 b1 02 00 08 b1 02 00 08     ................
 800013c:	b1 02 00 08 b1 02 00 08 b1 02 00 08 b1 02 00 08     ................
 800014c:	b1 02 00 08 b1 02 00 08 b1 02 00 08 b1 02 00 08     ................
 800015c:	b1 02 00 08 00 00 00 00 00 00 00 00 00 00 00 00     ................
 800016c:	00 00 00 00 b1 02 00 08 b1 02 00 08 b1 02 00 08     ................
 800017c:	b1 02 00 08 b1 02 00 08 b1 02 00 08 b1 02 00 08     ................
 800018c:	b1 02 00 08 b1 02 00 08 b1 02 00 08 b1 02 00 08     ................
 800019c:	b1 02 00 08 b1 02 00 08 b1 02 00 08 b1 02 00 08     ................
 80001ac:	b1 02 00 08 b1 02 00 08 b1 02 00 08 b1 02 00 08     ................
 80001bc:	b1 02 00 08 b1 02 00 08 b1 02 00 08 b1 02 00 08     ................
 80001cc:	b1 02 00 08 b1 02 00 08 b1 02 00 08 b1 02 00 08     ................
 80001dc:	00 00 00 00 b1 02 00 08 b1 02 00 08 b1 02 00 08     ................
 80001ec:	b1 05 00 08 b1 02 00 08 00 00 00 00 b1 02 00 08     ................
 80001fc:	00 00 00 00                                         ....

08000200 <Reset_Handler>:
 8000200:	f8df d08c 	ldr.w	sp, [pc, #140]	; 8000290 <__zero_table_end__>
 8000204:	4823      	ldr	r0, [pc, #140]	; (8000294 <__zero_table_end__+0x4>)
 8000206:	4780      	blx	r0
 8000208:	4c23      	ldr	r4, [pc, #140]	; (8000298 <__zero_table_end__+0x8>)
 800020a:	4d24      	ldr	r5, [pc, #144]	; (800029c <__zero_table_end__+0xc>)
 800020c:	42ac      	cmp	r4, r5
 800020e:	da09      	bge.n	8000224 <Reset_Handler+0x24>
 8000210:	6821      	ldr	r1, [r4, #0]
 8000212:	6862      	ldr	r2, [r4, #4]
 8000214:	68a3      	ldr	r3, [r4, #8]
 8000216:	3b04      	subs	r3, #4
 8000218:	bfa2      	ittt	ge
 800021a:	58c8      	ldrge	r0, [r1, r3]
 800021c:	50d0      	strge	r0, [r2, r3]
 800021e:	e7fa      	bge.n	8000216 <Reset_Handler+0x16>
 8000220:	340c      	adds	r4, #12
 8000222:	e7f3      	b.n	800020c <Reset_Handler+0xc>
 8000224:	4b1e      	ldr	r3, [pc, #120]	; (80002a0 <__zero_table_end__+0x10>)
 8000226:	4c1f      	ldr	r4, [pc, #124]	; (80002a4 <__zero_table_end__+0x14>)
 8000228:	42a3      	cmp	r3, r4
 800022a:	da08      	bge.n	800023e <Reset_Handler+0x3e>
 800022c:	6819      	ldr	r1, [r3, #0]
 800022e:	685a      	ldr	r2, [r3, #4]
 8000230:	2000      	movs	r0, #0
 8000232:	3a04      	subs	r2, #4
 8000234:	bfa4      	itt	ge
 8000236:	5088      	strge	r0, [r1, r2]
 8000238:	e7fb      	bge.n	8000232 <Reset_Handler+0x32>
 800023a:	3308      	adds	r3, #8
 800023c:	e7f4      	b.n	8000228 <Reset_Handler+0x28>
 800023e:	481a      	ldr	r0, [pc, #104]	; (80002a8 <__zero_table_end__+0x18>)
 8000240:	4780      	blx	r0
 8000242:	481a      	ldr	r0, [pc, #104]	; (80002ac <__zero_table_end__+0x1c>)
 8000244:	4780      	blx	r0
	...

08000248 <__copy_table_start__>:
 8000248:	0c0065b8 	.word	0x0c0065b8
 800024c:	20000000 	.word	0x20000000
 8000250:	00000460 	.word	0x00000460
 8000254:	0c006a18 	.word	0x0c006a18
 8000258:	30000000 	.word	0x30000000
 800025c:	00000000 	.word	0x00000000
 8000260:	0c0065b8 	.word	0x0c0065b8
 8000264:	10000800 	.word	0x10000800
 8000268:	00000000 	.word	0x00000000
 800026c:	0c0065b8 	.word	0x0c0065b8
 8000270:	10000800 	.word	0x10000800
 8000274:	00000000 	.word	0x00000000

08000278 <__copy_table_end__>:
 8000278:	20000460 	.word	0x20000460
 800027c:	00000634 	.word	0x00000634
 8000280:	30000000 	.word	0x30000000
 8000284:	00000e00 	.word	0x00000e00
 8000288:	10000800 	.word	0x10000800
 800028c:	00000000 	.word	0x00000000

08000290 <__zero_table_end__>:
 8000290:	10000800 	.word	0x10000800
 8000294:	08005dad 	.word	0x08005dad
 8000298:	08000248 	.word	0x08000248
 800029c:	08000278 	.word	0x08000278
 80002a0:	08000278 	.word	0x08000278
 80002a4:	08000290 	.word	0x08000290
 80002a8:	080061b9 	.word	0x080061b9
 80002ac:	080002f9 	.word	0x080002f9

080002b0 <BusFault_Handler>:
 80002b0:	e7fe      	b.n	80002b0 <BusFault_Handler>

080002b2 <XMC_GPIO_SetOutputHigh>:
 * Register Pn_OMR is virtual and does not contain any flip-flop. A read action delivers the value of 0.
 *
 */

__STATIC_INLINE void XMC_GPIO_SetOutputHigh(XMC_GPIO_PORT_t *const port, const uint8_t pin)
{
 80002b2:	b480      	push	{r7}
 80002b4:	b083      	sub	sp, #12
 80002b6:	af00      	add	r7, sp, #0
 80002b8:	6078      	str	r0, [r7, #4]
 80002ba:	460b      	mov	r3, r1
 80002bc:	70fb      	strb	r3, [r7, #3]
  XMC_ASSERT("XMC_GPIO_SetOutputHigh: Invalid port", XMC_GPIO_CHECK_OUTPUT_PORT(port));

  port->OMR = (uint32_t)0x1U << pin;
 80002be:	78fb      	ldrb	r3, [r7, #3]
 80002c0:	2201      	movs	r2, #1
 80002c2:	409a      	lsls	r2, r3
 80002c4:	687b      	ldr	r3, [r7, #4]
 80002c6:	605a      	str	r2, [r3, #4]
}
 80002c8:	bf00      	nop
 80002ca:	370c      	adds	r7, #12
 80002cc:	46bd      	mov	sp, r7
 80002ce:	f85d 7b04 	ldr.w	r7, [sp], #4
 80002d2:	4770      	bx	lr

080002d4 <XMC_GPIO_SetOutputLow>:
 * Register Pn_OMR is virtual and does not contain any flip-flop. A read action delivers the value of 0.\n
 *
 */

__STATIC_INLINE void XMC_GPIO_SetOutputLow(XMC_GPIO_PORT_t *const port, const uint8_t pin)
{
 80002d4:	b480      	push	{r7}
 80002d6:	b083      	sub	sp, #12
 80002d8:	af00      	add	r7, sp, #0
 80002da:	6078      	str	r0, [r7, #4]
 80002dc:	460b      	mov	r3, r1
 80002de:	70fb      	strb	r3, [r7, #3]
  XMC_ASSERT("XMC_GPIO_SetOutputLow: Invalid port", XMC_GPIO_CHECK_OUTPUT_PORT(port));

  port->OMR = 0x10000U << pin;
 80002e0:	78fb      	ldrb	r3, [r7, #3]
 80002e2:	f44f 3280 	mov.w	r2, #65536	; 0x10000
 80002e6:	409a      	lsls	r2, r3
 80002e8:	687b      	ldr	r3, [r7, #4]
 80002ea:	605a      	str	r2, [r3, #4]
}
 80002ec:	bf00      	nop
 80002ee:	370c      	adds	r7, #12
 80002f0:	46bd      	mov	sp, r7
 80002f2:	f85d 7b04 	ldr.w	r7, [sp], #4
 80002f6:	4770      	bx	lr

080002f8 <main>:

/**
 * Main program entry point. This routine configures the hardware required by
 * the application, then enters a loop to run the application tasks in sequence.
 */
int main(void) {
 80002f8:	b580      	push	{r7, lr}
 80002fa:	b082      	sub	sp, #8
 80002fc:	af00      	add	r7, sp, #0
	// Init LED pins for debugging and NUM/CAPS visual report
	XMC_GPIO_SetMode(LED1,XMC_GPIO_MODE_OUTPUT_PUSH_PULL);
 80002fe:	2280      	movs	r2, #128	; 0x80
 8000300:	2101      	movs	r1, #1
 8000302:	480c      	ldr	r0, [pc, #48]	; (8000334 <main+0x3c>)
 8000304:	f001 feec 	bl	80020e0 <XMC_GPIO_SetMode>
	XMC_GPIO_SetMode(LED2,XMC_GPIO_MODE_OUTPUT_PUSH_PULL);
 8000308:	2280      	movs	r2, #128	; 0x80
 800030a:	2100      	movs	r1, #0
 800030c:	4809      	ldr	r0, [pc, #36]	; (8000334 <main+0x3c>)
 800030e:	f001 fee7 	bl	80020e0 <XMC_GPIO_SetMode>
	USB_Init();
 8000312:	f000 f957 	bl	80005c4 <USB_Init>

	// Wait until host has enumerated HID device
	for(int i = 0; i < 10e6; ++i)
 8000316:	2300      	movs	r3, #0
 8000318:	607b      	str	r3, [r7, #4]
 800031a:	e002      	b.n	8000322 <main+0x2a>
 800031c:	687b      	ldr	r3, [r7, #4]
 800031e:	3301      	adds	r3, #1
 8000320:	607b      	str	r3, [r7, #4]
 8000322:	687b      	ldr	r3, [r7, #4]
 8000324:	4a04      	ldr	r2, [pc, #16]	; (8000338 <main+0x40>)
 8000326:	4293      	cmp	r3, r2
 8000328:	dbf8      	blt.n	800031c <main+0x24>
		; 

	while (1) {
		HID_Device_USBTask(&Keyboard_HID_Interface);
 800032a:	4804      	ldr	r0, [pc, #16]	; (800033c <main+0x44>)
 800032c:	f002 f95a 	bl	80025e4 <HID_Device_USBTask>
 8000330:	e7fb      	b.n	800032a <main+0x32>
 8000332:	bf00      	nop
 8000334:	48028100 	.word	0x48028100
 8000338:	00989680 	.word	0x00989680
 800033c:	2000000c 	.word	0x2000000c

08000340 <CALLBACK_HID_Device_CreateHIDReport>:
bool CALLBACK_HID_Device_CreateHIDReport(
							USB_ClassInfo_HID_Device_t* const HIDInterfaceInfo,
							uint8_t* const ReportID,
							const uint8_t ReportType,
							void* ReportData,
							uint16_t* const ReportSize ) {
 8000340:	b480      	push	{r7}
 8000342:	b087      	sub	sp, #28
 8000344:	af00      	add	r7, sp, #0
 8000346:	60f8      	str	r0, [r7, #12]
 8000348:	60b9      	str	r1, [r7, #8]
 800034a:	603b      	str	r3, [r7, #0]
 800034c:	4613      	mov	r3, r2
 800034e:	71fb      	strb	r3, [r7, #7]
	USB_KeyboardReport_Data_t* report = (USB_KeyboardReport_Data_t *)ReportData;
 8000350:	683b      	ldr	r3, [r7, #0]
 8000352:	617b      	str	r3, [r7, #20]
	*ReportSize = sizeof(USB_KeyboardReport_Data_t);
 8000354:	6a3b      	ldr	r3, [r7, #32]
 8000356:	2208      	movs	r2, #8
 8000358:	801a      	strh	r2, [r3, #0]
		GERMAN_KEYBOARD_SC_L, 
		GERMAN_KEYBOARD_SC_D, 
		GERMAN_KEYBOARD_SC_ENTER
	};

	if(indexToSend < 12) {
 800035a:	4b19      	ldr	r3, [pc, #100]	; (80003c0 <CALLBACK_HID_Device_CreateHIDReport+0x80>)
 800035c:	781b      	ldrb	r3, [r3, #0]
 800035e:	2b0b      	cmp	r3, #11
 8000360:	d826      	bhi.n	80003b0 <CALLBACK_HID_Device_CreateHIDReport+0x70>
		if(characterSent) {
 8000362:	4b18      	ldr	r3, [pc, #96]	; (80003c4 <CALLBACK_HID_Device_CreateHIDReport+0x84>)
 8000364:	781b      	ldrb	r3, [r3, #0]
 8000366:	2b00      	cmp	r3, #0
 8000368:	d012      	beq.n	8000390 <CALLBACK_HID_Device_CreateHIDReport+0x50>
			report->Modifier = 0; 
 800036a:	697b      	ldr	r3, [r7, #20]
 800036c:	2200      	movs	r2, #0
 800036e:	701a      	strb	r2, [r3, #0]
			report->Reserved = 0; 
 8000370:	697b      	ldr	r3, [r7, #20]
 8000372:	2200      	movs	r2, #0
 8000374:	705a      	strb	r2, [r3, #1]
			report->KeyCode[0] = 0; 
 8000376:	697b      	ldr	r3, [r7, #20]
 8000378:	2200      	movs	r2, #0
 800037a:	709a      	strb	r2, [r3, #2]
			characterSent = 0;
 800037c:	4b11      	ldr	r3, [pc, #68]	; (80003c4 <CALLBACK_HID_Device_CreateHIDReport+0x84>)
 800037e:	2200      	movs	r2, #0
 8000380:	701a      	strb	r2, [r3, #0]
			++indexToSend; 
 8000382:	4b0f      	ldr	r3, [pc, #60]	; (80003c0 <CALLBACK_HID_Device_CreateHIDReport+0x80>)
 8000384:	781b      	ldrb	r3, [r3, #0]
 8000386:	3301      	adds	r3, #1
 8000388:	b2da      	uxtb	r2, r3
 800038a:	4b0d      	ldr	r3, [pc, #52]	; (80003c0 <CALLBACK_HID_Device_CreateHIDReport+0x80>)
 800038c:	701a      	strb	r2, [r3, #0]
 800038e:	e00f      	b.n	80003b0 <CALLBACK_HID_Device_CreateHIDReport+0x70>
		} else {
			report->Modifier = 0; 
 8000390:	697b      	ldr	r3, [r7, #20]
 8000392:	2200      	movs	r2, #0
 8000394:	701a      	strb	r2, [r3, #0]
			report->Reserved = 0; 
 8000396:	697b      	ldr	r3, [r7, #20]
 8000398:	2200      	movs	r2, #0
 800039a:	705a      	strb	r2, [r3, #1]
			report->KeyCode[0] = stringToSend[indexToSend]; 
 800039c:	4b08      	ldr	r3, [pc, #32]	; (80003c0 <CALLBACK_HID_Device_CreateHIDReport+0x80>)
 800039e:	781b      	ldrb	r3, [r3, #0]
 80003a0:	461a      	mov	r2, r3
 80003a2:	4b09      	ldr	r3, [pc, #36]	; (80003c8 <CALLBACK_HID_Device_CreateHIDReport+0x88>)
 80003a4:	5c9a      	ldrb	r2, [r3, r2]
 80003a6:	697b      	ldr	r3, [r7, #20]
 80003a8:	709a      	strb	r2, [r3, #2]
			characterSent = 1;
 80003aa:	4b06      	ldr	r3, [pc, #24]	; (80003c4 <CALLBACK_HID_Device_CreateHIDReport+0x84>)
 80003ac:	2201      	movs	r2, #1
 80003ae:	701a      	strb	r2, [r3, #0]
		}
	}

	return true;
 80003b0:	2301      	movs	r3, #1
}
 80003b2:	4618      	mov	r0, r3
 80003b4:	371c      	adds	r7, #28
 80003b6:	46bd      	mov	sp, r7
 80003b8:	f85d 7b04 	ldr.w	r7, [sp], #4
 80003bc:	4770      	bx	lr
 80003be:	bf00      	nop
 80003c0:	20000460 	.word	0x20000460
 80003c4:	20000461 	.word	0x20000461
 80003c8:	20000000 	.word	0x20000000

080003cc <CALLBACK_HID_Device_ProcessHIDReport>:
void CALLBACK_HID_Device_ProcessHIDReport(
						USB_ClassInfo_HID_Device_t* const HIDInterfaceInfo,
						const uint8_t ReportID,
						const uint8_t ReportType,
						const void* ReportData,
						const uint16_t ReportSize ) {
 80003cc:	b580      	push	{r7, lr}
 80003ce:	b086      	sub	sp, #24
 80003d0:	af00      	add	r7, sp, #0
 80003d2:	60f8      	str	r0, [r7, #12]
 80003d4:	607b      	str	r3, [r7, #4]
 80003d6:	460b      	mov	r3, r1
 80003d8:	72fb      	strb	r3, [r7, #11]
 80003da:	4613      	mov	r3, r2
 80003dc:	72bb      	strb	r3, [r7, #10]
	uint8_t *report = (uint8_t*)ReportData;
 80003de:	687b      	ldr	r3, [r7, #4]
 80003e0:	617b      	str	r3, [r7, #20]

	if(*report & HID_KEYBOARD_LED_NUMLOCK) 
 80003e2:	697b      	ldr	r3, [r7, #20]
 80003e4:	781b      	ldrb	r3, [r3, #0]
 80003e6:	f003 0301 	and.w	r3, r3, #1
 80003ea:	2b00      	cmp	r3, #0
 80003ec:	d004      	beq.n	80003f8 <CALLBACK_HID_Device_ProcessHIDReport+0x2c>
		XMC_GPIO_SetOutputHigh(LED1);
 80003ee:	2101      	movs	r1, #1
 80003f0:	480d      	ldr	r0, [pc, #52]	; (8000428 <CALLBACK_HID_Device_ProcessHIDReport+0x5c>)
 80003f2:	f7ff ff5e 	bl	80002b2 <XMC_GPIO_SetOutputHigh>
 80003f6:	e003      	b.n	8000400 <CALLBACK_HID_Device_ProcessHIDReport+0x34>
	else 
		XMC_GPIO_SetOutputLow(LED1);
 80003f8:	2101      	movs	r1, #1
 80003fa:	480b      	ldr	r0, [pc, #44]	; (8000428 <CALLBACK_HID_Device_ProcessHIDReport+0x5c>)
 80003fc:	f7ff ff6a 	bl	80002d4 <XMC_GPIO_SetOutputLow>

	if(*report & HID_KEYBOARD_LED_CAPSLOCK) 
 8000400:	697b      	ldr	r3, [r7, #20]
 8000402:	781b      	ldrb	r3, [r3, #0]
 8000404:	f003 0302 	and.w	r3, r3, #2
 8000408:	2b00      	cmp	r3, #0
 800040a:	d004      	beq.n	8000416 <CALLBACK_HID_Device_ProcessHIDReport+0x4a>
		XMC_GPIO_SetOutputHigh(LED2);
 800040c:	2100      	movs	r1, #0
 800040e:	4806      	ldr	r0, [pc, #24]	; (8000428 <CALLBACK_HID_Device_ProcessHIDReport+0x5c>)
 8000410:	f7ff ff4f 	bl	80002b2 <XMC_GPIO_SetOutputHigh>
	else 
		XMC_GPIO_SetOutputLow(LED2);
}
 8000414:	e003      	b.n	800041e <CALLBACK_HID_Device_ProcessHIDReport+0x52>
		XMC_GPIO_SetOutputLow(LED2);
 8000416:	2100      	movs	r1, #0
 8000418:	4803      	ldr	r0, [pc, #12]	; (8000428 <CALLBACK_HID_Device_ProcessHIDReport+0x5c>)
 800041a:	f7ff ff5b 	bl	80002d4 <XMC_GPIO_SetOutputLow>
}
 800041e:	bf00      	nop
 8000420:	3718      	adds	r7, #24
 8000422:	46bd      	mov	sp, r7
 8000424:	bd80      	pop	{r7, pc}
 8000426:	bf00      	nop
 8000428:	48028100 	.word	0x48028100

0800042c <SystemCoreClockSetup>:

void SystemCoreClockSetup(void) {
 800042c:	b580      	push	{r7, lr}
 800042e:	af00      	add	r7, sp, #0
	/* Setup settings for USB clock */
	XMC_SCU_CLOCK_Init(&clock_config);
 8000430:	480a      	ldr	r0, [pc, #40]	; (800045c <SystemCoreClockSetup+0x30>)
 8000432:	f000 fc49 	bl	8000cc8 <XMC_SCU_CLOCK_Init>

	XMC_SCU_CLOCK_EnableUsbPll();
 8000436:	f001 f90d 	bl	8001654 <XMC_SCU_CLOCK_EnableUsbPll>
	XMC_SCU_CLOCK_StartUsbPll(2, 64);
 800043a:	2140      	movs	r1, #64	; 0x40
 800043c:	2002      	movs	r0, #2
 800043e:	f001 f92d 	bl	800169c <XMC_SCU_CLOCK_StartUsbPll>
	XMC_SCU_CLOCK_SetUsbClockDivider(4);
 8000442:	2004      	movs	r0, #4
 8000444:	f001 f844 	bl	80014d0 <XMC_SCU_CLOCK_SetUsbClockDivider>
	XMC_SCU_CLOCK_SetUsbClockSource(XMC_SCU_CLOCK_USBCLKSRC_USBPLL);
 8000448:	2000      	movs	r0, #0
 800044a:	f000 ff49 	bl	80012e0 <XMC_SCU_CLOCK_SetUsbClockSource>
	XMC_SCU_CLOCK_EnableClock(XMC_SCU_CLOCK_USB);
 800044e:	2001      	movs	r0, #1
 8000450:	f001 f898 	bl	8001584 <XMC_SCU_CLOCK_EnableClock>

	SystemCoreClockUpdate();
 8000454:	f005 fdfa 	bl	800604c <SystemCoreClockUpdate>
 8000458:	bf00      	nop
 800045a:	bd80      	pop	{r7, pc}
 800045c:	08006440 	.word	0x08006440

08000460 <__NVIC_GetPriorityGrouping>:
  \brief   Get Priority Grouping
  \details Reads the priority grouping field from the NVIC Interrupt Controller.
  \return                Priority grouping field (SCB->AIRCR [10:8] PRIGROUP field).
 */
__STATIC_INLINE uint32_t __NVIC_GetPriorityGrouping(void)
{
 8000460:	b480      	push	{r7}
 8000462:	af00      	add	r7, sp, #0
  return ((uint32_t)((SCB->AIRCR & SCB_AIRCR_PRIGROUP_Msk) >> SCB_AIRCR_PRIGROUP_Pos));
 8000464:	4b04      	ldr	r3, [pc, #16]	; (8000478 <__NVIC_GetPriorityGrouping+0x18>)
 8000466:	68db      	ldr	r3, [r3, #12]
 8000468:	0a1b      	lsrs	r3, r3, #8
 800046a:	f003 0307 	and.w	r3, r3, #7
}
 800046e:	4618      	mov	r0, r3
 8000470:	46bd      	mov	sp, r7
 8000472:	f85d 7b04 	ldr.w	r7, [sp], #4
 8000476:	4770      	bx	lr
 8000478:	e000ed00 	.word	0xe000ed00

0800047c <__NVIC_EnableIRQ>:
  \details Enables a device specific interrupt in the NVIC interrupt controller.
  \param [in]      IRQn  Device specific interrupt number.
  \note    IRQn must not be negative.
 */
__STATIC_INLINE void __NVIC_EnableIRQ(IRQn_Type IRQn)
{
 800047c:	b480      	push	{r7}
 800047e:	b083      	sub	sp, #12
 8000480:	af00      	add	r7, sp, #0
 8000482:	4603      	mov	r3, r0
 8000484:	71fb      	strb	r3, [r7, #7]
  if ((int32_t)(IRQn) >= 0)
 8000486:	f997 3007 	ldrsb.w	r3, [r7, #7]
 800048a:	2b00      	cmp	r3, #0
 800048c:	db0b      	blt.n	80004a6 <__NVIC_EnableIRQ+0x2a>
  {
    NVIC->ISER[(((uint32_t)(int32_t)IRQn) >> 5UL)] = (uint32_t)(1UL << (((uint32_t)(int32_t)IRQn) & 0x1FUL));
 800048e:	79fb      	ldrb	r3, [r7, #7]
 8000490:	f003 021f 	and.w	r2, r3, #31
 8000494:	4907      	ldr	r1, [pc, #28]	; (80004b4 <__NVIC_EnableIRQ+0x38>)
 8000496:	f997 3007 	ldrsb.w	r3, [r7, #7]
 800049a:	095b      	lsrs	r3, r3, #5
 800049c:	2001      	movs	r0, #1
 800049e:	fa00 f202 	lsl.w	r2, r0, r2
 80004a2:	f841 2023 	str.w	r2, [r1, r3, lsl #2]
  }
}
 80004a6:	bf00      	nop
 80004a8:	370c      	adds	r7, #12
 80004aa:	46bd      	mov	sp, r7
 80004ac:	f85d 7b04 	ldr.w	r7, [sp], #4
 80004b0:	4770      	bx	lr
 80004b2:	bf00      	nop
 80004b4:	e000e100 	.word	0xe000e100

080004b8 <__NVIC_ClearPendingIRQ>:
  \details Clears the pending bit of a device specific interrupt in the NVIC pending register.
  \param [in]      IRQn  Device specific interrupt number.
  \note    IRQn must not be negative.
 */
__STATIC_INLINE void __NVIC_ClearPendingIRQ(IRQn_Type IRQn)
{
 80004b8:	b480      	push	{r7}
 80004ba:	b083      	sub	sp, #12
 80004bc:	af00      	add	r7, sp, #0
 80004be:	4603      	mov	r3, r0
 80004c0:	71fb      	strb	r3, [r7, #7]
  if ((int32_t)(IRQn) >= 0)
 80004c2:	f997 3007 	ldrsb.w	r3, [r7, #7]
 80004c6:	2b00      	cmp	r3, #0
 80004c8:	db0c      	blt.n	80004e4 <__NVIC_ClearPendingIRQ+0x2c>
  {
    NVIC->ICPR[(((uint32_t)(int32_t)IRQn) >> 5UL)] = (uint32_t)(1UL << (((uint32_t)(int32_t)IRQn) & 0x1FUL));
 80004ca:	79fb      	ldrb	r3, [r7, #7]
 80004cc:	f003 021f 	and.w	r2, r3, #31
 80004d0:	4907      	ldr	r1, [pc, #28]	; (80004f0 <__NVIC_ClearPendingIRQ+0x38>)
 80004d2:	f997 3007 	ldrsb.w	r3, [r7, #7]
 80004d6:	095b      	lsrs	r3, r3, #5
 80004d8:	2001      	movs	r0, #1
 80004da:	fa00 f202 	lsl.w	r2, r0, r2
 80004de:	3360      	adds	r3, #96	; 0x60
 80004e0:	f841 2023 	str.w	r2, [r1, r3, lsl #2]
  }
}
 80004e4:	bf00      	nop
 80004e6:	370c      	adds	r7, #12
 80004e8:	46bd      	mov	sp, r7
 80004ea:	f85d 7b04 	ldr.w	r7, [sp], #4
 80004ee:	4770      	bx	lr
 80004f0:	e000e100 	.word	0xe000e100

080004f4 <__NVIC_SetPriority>:
  \param [in]      IRQn  Interrupt number.
  \param [in]  priority  Priority to set.
  \note    The priority cannot be set for every processor exception.
 */
__STATIC_INLINE void __NVIC_SetPriority(IRQn_Type IRQn, uint32_t priority)
{
 80004f4:	b480      	push	{r7}
 80004f6:	b083      	sub	sp, #12
 80004f8:	af00      	add	r7, sp, #0
 80004fa:	4603      	mov	r3, r0
 80004fc:	6039      	str	r1, [r7, #0]
 80004fe:	71fb      	strb	r3, [r7, #7]
  if ((int32_t)(IRQn) >= 0)
 8000500:	f997 3007 	ldrsb.w	r3, [r7, #7]
 8000504:	2b00      	cmp	r3, #0
 8000506:	db0a      	blt.n	800051e <__NVIC_SetPriority+0x2a>
  {
    NVIC->IP[((uint32_t)(int32_t)IRQn)]               = (uint8_t)((priority << (8U - __NVIC_PRIO_BITS)) & (uint32_t)0xFFUL);
 8000508:	683b      	ldr	r3, [r7, #0]
 800050a:	b2da      	uxtb	r2, r3
 800050c:	490c      	ldr	r1, [pc, #48]	; (8000540 <__NVIC_SetPriority+0x4c>)
 800050e:	f997 3007 	ldrsb.w	r3, [r7, #7]
 8000512:	0092      	lsls	r2, r2, #2
 8000514:	b2d2      	uxtb	r2, r2
 8000516:	440b      	add	r3, r1
 8000518:	f883 2300 	strb.w	r2, [r3, #768]	; 0x300
  }
  else
  {
    SCB->SHP[(((uint32_t)(int32_t)IRQn) & 0xFUL)-4UL] = (uint8_t)((priority << (8U - __NVIC_PRIO_BITS)) & (uint32_t)0xFFUL);
  }
}
 800051c:	e00a      	b.n	8000534 <__NVIC_SetPriority+0x40>
    SCB->SHP[(((uint32_t)(int32_t)IRQn) & 0xFUL)-4UL] = (uint8_t)((priority << (8U - __NVIC_PRIO_BITS)) & (uint32_t)0xFFUL);
 800051e:	683b      	ldr	r3, [r7, #0]
 8000520:	b2da      	uxtb	r2, r3
 8000522:	4908      	ldr	r1, [pc, #32]	; (8000544 <__NVIC_SetPriority+0x50>)
 8000524:	79fb      	ldrb	r3, [r7, #7]
 8000526:	f003 030f 	and.w	r3, r3, #15
 800052a:	3b04      	subs	r3, #4
 800052c:	0092      	lsls	r2, r2, #2
 800052e:	b2d2      	uxtb	r2, r2
 8000530:	440b      	add	r3, r1
 8000532:	761a      	strb	r2, [r3, #24]
}
 8000534:	bf00      	nop
 8000536:	370c      	adds	r7, #12
 8000538:	46bd      	mov	sp, r7
 800053a:	f85d 7b04 	ldr.w	r7, [sp], #4
 800053e:	4770      	bx	lr
 8000540:	e000e100 	.word	0xe000e100
 8000544:	e000ed00 	.word	0xe000ed00

08000548 <NVIC_EncodePriority>:
  \param [in]   PreemptPriority  Preemptive priority value (starting from 0).
  \param [in]       SubPriority  Subpriority value (starting from 0).
  \return                        Encoded priority. Value can be used in the function \ref NVIC_SetPriority().
 */
__STATIC_INLINE uint32_t NVIC_EncodePriority (uint32_t PriorityGroup, uint32_t PreemptPriority, uint32_t SubPriority)
{
 8000548:	b480      	push	{r7}
 800054a:	b089      	sub	sp, #36	; 0x24
 800054c:	af00      	add	r7, sp, #0
 800054e:	60f8      	str	r0, [r7, #12]
 8000550:	60b9      	str	r1, [r7, #8]
 8000552:	607a      	str	r2, [r7, #4]
  uint32_t PriorityGroupTmp = (PriorityGroup & (uint32_t)0x07UL);   /* only values 0..7 are used          */
 8000554:	68fb      	ldr	r3, [r7, #12]
 8000556:	f003 0307 	and.w	r3, r3, #7
 800055a:	61fb      	str	r3, [r7, #28]
  uint32_t PreemptPriorityBits;
  uint32_t SubPriorityBits;

  PreemptPriorityBits = ((7UL - PriorityGroupTmp) > (uint32_t)(__NVIC_PRIO_BITS)) ? (uint32_t)(__NVIC_PRIO_BITS) : (uint32_t)(7UL - PriorityGroupTmp);
 800055c:	69fb      	ldr	r3, [r7, #28]
 800055e:	f1c3 0307 	rsb	r3, r3, #7
 8000562:	2b06      	cmp	r3, #6
 8000564:	bf28      	it	cs
 8000566:	2306      	movcs	r3, #6
 8000568:	61bb      	str	r3, [r7, #24]
  SubPriorityBits     = ((PriorityGroupTmp + (uint32_t)(__NVIC_PRIO_BITS)) < (uint32_t)7UL) ? (uint32_t)0UL : (uint32_t)((PriorityGroupTmp - 7UL) + (uint32_t)(__NVIC_PRIO_BITS));
 800056a:	69fb      	ldr	r3, [r7, #28]
 800056c:	3306      	adds	r3, #6
 800056e:	2b06      	cmp	r3, #6
 8000570:	d902      	bls.n	8000578 <NVIC_EncodePriority+0x30>
 8000572:	69fb      	ldr	r3, [r7, #28]
 8000574:	3b01      	subs	r3, #1
 8000576:	e000      	b.n	800057a <NVIC_EncodePriority+0x32>
 8000578:	2300      	movs	r3, #0
 800057a:	617b      	str	r3, [r7, #20]

  return (
           ((PreemptPriority & (uint32_t)((1UL << (PreemptPriorityBits)) - 1UL)) << SubPriorityBits) |
 800057c:	f04f 32ff 	mov.w	r2, #4294967295	; 0xffffffff
 8000580:	69bb      	ldr	r3, [r7, #24]
 8000582:	fa02 f303 	lsl.w	r3, r2, r3
 8000586:	43da      	mvns	r2, r3
 8000588:	68bb      	ldr	r3, [r7, #8]
 800058a:	401a      	ands	r2, r3
 800058c:	697b      	ldr	r3, [r7, #20]
 800058e:	409a      	lsls	r2, r3
           ((SubPriority     & (uint32_t)((1UL << (SubPriorityBits    )) - 1UL)))
 8000590:	f04f 31ff 	mov.w	r1, #4294967295	; 0xffffffff
 8000594:	697b      	ldr	r3, [r7, #20]
 8000596:	fa01 f303 	lsl.w	r3, r1, r3
 800059a:	43d9      	mvns	r1, r3
 800059c:	687b      	ldr	r3, [r7, #4]
 800059e:	400b      	ands	r3, r1
           ((PreemptPriority & (uint32_t)((1UL << (PreemptPriorityBits)) - 1UL)) << SubPriorityBits) |
 80005a0:	4313      	orrs	r3, r2
         );
}
 80005a2:	4618      	mov	r0, r3
 80005a4:	3724      	adds	r7, #36	; 0x24
 80005a6:	46bd      	mov	sp, r7
 80005a8:	f85d 7b04 	ldr.w	r7, [sp], #4
 80005ac:	4770      	bx	lr
	...

080005b0 <USB0_0_IRQHandler>:
	.usbd_transfer_mode = XMC_USBD_USE_FIFO,
	.cb_xmc_device_event = USBD_SignalDeviceEventHandler,
	.cb_endpoint_event = USBD_SignalEndpointEvent_Handler
};

void USB0_0_IRQHandler(void) {
 80005b0:	b580      	push	{r7, lr}
 80005b2:	af00      	add	r7, sp, #0
	XMC_USBD_IRQHandler(&USB_runtime);
 80005b4:	4802      	ldr	r0, [pc, #8]	; (80005c0 <USB0_0_IRQHandler+0x10>)
 80005b6:	f004 fb21 	bl	8004bfc <XMC_USBD_IRQHandler>
}
 80005ba:	bf00      	nop
 80005bc:	bd80      	pop	{r7, pc}
 80005be:	bf00      	nop
 80005c0:	20000024 	.word	0x20000024

080005c4 <USB_Init>:

/*The function initializes the USB core layer and register call backs. */
void USB_Init(void) {
 80005c4:	b580      	push	{r7, lr}
 80005c6:	af00      	add	r7, sp, #0
	USBD_Initialize(&USB_runtime);
 80005c8:	480e      	ldr	r0, [pc, #56]	; (8000604 <USB_Init+0x40>)
 80005ca:	f003 fc15 	bl	8003df8 <USBD_Initialize>

	/* Interrupts configuration*/
	NVIC_SetPriority( USB0_0_IRQn,
 80005ce:	f7ff ff47 	bl	8000460 <__NVIC_GetPriorityGrouping>
 80005d2:	4603      	mov	r3, r0
 80005d4:	2200      	movs	r2, #0
 80005d6:	213f      	movs	r1, #63	; 0x3f
 80005d8:	4618      	mov	r0, r3
 80005da:	f7ff ffb5 	bl	8000548 <NVIC_EncodePriority>
 80005de:	4603      	mov	r3, r0
 80005e0:	4619      	mov	r1, r3
 80005e2:	206b      	movs	r0, #107	; 0x6b
 80005e4:	f7ff ff86 	bl	80004f4 <__NVIC_SetPriority>
					  NVIC_EncodePriority(NVIC_GetPriorityGrouping(), 63, 0) );
	NVIC_ClearPendingIRQ(USB0_0_IRQn);
 80005e8:	206b      	movs	r0, #107	; 0x6b
 80005ea:	f7ff ff65 	bl	80004b8 <__NVIC_ClearPendingIRQ>
	NVIC_EnableIRQ(USB0_0_IRQn);
 80005ee:	206b      	movs	r0, #107	; 0x6b
 80005f0:	f7ff ff44 	bl	800047c <__NVIC_EnableIRQ>
			 *  register and despite the datasheet making no mention of its requirement in host mode.
			 */
			static inline void USB_Attach(void) ATTR_ALWAYS_INLINE;
			static inline void USB_Attach(void)
			{
				device.Driver->DeviceConnect();
 80005f4:	4b04      	ldr	r3, [pc, #16]	; (8000608 <USB_Init+0x44>)
 80005f6:	681b      	ldr	r3, [r3, #0]
 80005f8:	68db      	ldr	r3, [r3, #12]
 80005fa:	4798      	blx	r3
			}
 80005fc:	bf00      	nop

	/* USB Connection*/
	USB_Attach();
}
 80005fe:	bf00      	nop
 8000600:	bd80      	pop	{r7, pc}
 8000602:	bf00      	nop
 8000604:	20000024 	.word	0x20000024
 8000608:	200004f8 	.word	0x200004f8

0800060c <EVENT_USB_Device_>:

/** Event handler for the library USB Connection event. */
void EVENT_USB_Device_(void) {
 800060c:	b480      	push	{r7}
 800060e:	af00      	add	r7, sp, #0
}
 8000610:	bf00      	nop
 8000612:	46bd      	mov	sp, r7
 8000614:	f85d 7b04 	ldr.w	r7, [sp], #4
 8000618:	4770      	bx	lr

0800061a <EVENT_USB_Device_Connect>:
/** Event handler for the library USB Connection event. */
void EVENT_USB_Device_Connect(void) {
 800061a:	b480      	push	{r7}
 800061c:	af00      	add	r7, sp, #0
	//Device is ready!
}
 800061e:	bf00      	nop
 8000620:	46bd      	mov	sp, r7
 8000622:	f85d 7b04 	ldr.w	r7, [sp], #4
 8000626:	4770      	bx	lr

08000628 <EVENT_USB_Device_Reset>:

/** Event handler for the library USB Disconnection event. */
void EVENT_USB_Device_Reset(void) {
 8000628:	b580      	push	{r7, lr}
 800062a:	af00      	add	r7, sp, #0
	if(device.IsConfigured) {
 800062c:	4b09      	ldr	r3, [pc, #36]	; (8000654 <EVENT_USB_Device_Reset+0x2c>)
 800062e:	f893 313e 	ldrb.w	r3, [r3, #318]	; 0x13e
 8000632:	f003 0301 	and.w	r3, r3, #1
 8000636:	b2db      	uxtb	r3, r3
 8000638:	2b00      	cmp	r3, #0
 800063a:	d008      	beq.n	800064e <EVENT_USB_Device_Reset+0x26>
		USB_Init();
 800063c:	f7ff ffc2 	bl	80005c4 <USB_Init>
		device.IsConfigured=0;
 8000640:	4a04      	ldr	r2, [pc, #16]	; (8000654 <EVENT_USB_Device_Reset+0x2c>)
 8000642:	f892 313e 	ldrb.w	r3, [r2, #318]	; 0x13e
 8000646:	f36f 0300 	bfc	r3, #0, #1
 800064a:	f882 313e 	strb.w	r3, [r2, #318]	; 0x13e
	}
}
 800064e:	bf00      	nop
 8000650:	bd80      	pop	{r7, pc}
 8000652:	bf00      	nop
 8000654:	200004f8 	.word	0x200004f8

08000658 <EVENT_USB_Device_ConfigurationChanged>:

/** Event handler for the library USB Configuration Changed event. */
void EVENT_USB_Device_ConfigurationChanged(void) {
 8000658:	b580      	push	{r7, lr}
 800065a:	b082      	sub	sp, #8
 800065c:	af00      	add	r7, sp, #0
	bool ConfigSuccess = true;
 800065e:	2301      	movs	r3, #1
 8000660:	71fb      	strb	r3, [r7, #7]

	USBD_SetEndpointBuffer(KEYBOARD_IN_EPADDR, buffer, KEYBOARD_REPORT_SIZE);
 8000662:	2208      	movs	r2, #8
 8000664:	490d      	ldr	r1, [pc, #52]	; (800069c <EVENT_USB_Device_ConfigurationChanged+0x44>)
 8000666:	2081      	movs	r0, #129	; 0x81
 8000668:	f003 fc3c 	bl	8003ee4 <USBD_SetEndpointBuffer>

	ConfigSuccess &= HID_Device_ConfigureEndpoints(&Keyboard_HID_Interface);
 800066c:	480c      	ldr	r0, [pc, #48]	; (80006a0 <EVENT_USB_Device_ConfigurationChanged+0x48>)
 800066e:	f001 ff91 	bl	8002594 <HID_Device_ConfigureEndpoints>
 8000672:	4603      	mov	r3, r0
 8000674:	461a      	mov	r2, r3
 8000676:	79fb      	ldrb	r3, [r7, #7]
 8000678:	4013      	ands	r3, r2
 800067a:	2b00      	cmp	r3, #0
 800067c:	bf14      	ite	ne
 800067e:	2301      	movne	r3, #1
 8000680:	2300      	moveq	r3, #0
 8000682:	71fb      	strb	r3, [r7, #7]

	device.IsConfigured = ConfigSuccess;
 8000684:	4a07      	ldr	r2, [pc, #28]	; (80006a4 <EVENT_USB_Device_ConfigurationChanged+0x4c>)
 8000686:	f892 313e 	ldrb.w	r3, [r2, #318]	; 0x13e
 800068a:	79f9      	ldrb	r1, [r7, #7]
 800068c:	f361 0300 	bfi	r3, r1, #0, #1
 8000690:	f882 313e 	strb.w	r3, [r2, #318]	; 0x13e
}
 8000694:	bf00      	nop
 8000696:	3708      	adds	r7, #8
 8000698:	46bd      	mov	sp, r7
 800069a:	bd80      	pop	{r7, pc}
 800069c:	2000046c 	.word	0x2000046c
 80006a0:	2000000c 	.word	0x2000000c
 80006a4:	200004f8 	.word	0x200004f8

080006a8 <EVENT_USB_Device_ControlRequest>:

/** Event handler for the library USB Control Request reception event. */
void EVENT_USB_Device_ControlRequest(void) {
 80006a8:	b580      	push	{r7, lr}
 80006aa:	af00      	add	r7, sp, #0
	HID_Device_ProcessControlRequest(&Keyboard_HID_Interface);
 80006ac:	4802      	ldr	r0, [pc, #8]	; (80006b8 <EVENT_USB_Device_ControlRequest+0x10>)
 80006ae:	f001 fd7b 	bl	80021a8 <HID_Device_ProcessControlRequest>
}
 80006b2:	bf00      	nop
 80006b4:	bd80      	pop	{r7, pc}
 80006b6:	bf00      	nop
 80006b8:	2000000c 	.word	0x2000000c

080006bc <CALLBACK_HIDParser_FilterHIDReportItem>:

bool CALLBACK_HIDParser_FilterHIDReportItem(
									HID_ReportItem_t* const CurrentItem ) {
 80006bc:	b480      	push	{r7}
 80006be:	b083      	sub	sp, #12
 80006c0:	af00      	add	r7, sp, #0
 80006c2:	6078      	str	r0, [r7, #4]
	return true;
 80006c4:	2301      	movs	r3, #1
}
 80006c6:	4618      	mov	r0, r3
 80006c8:	370c      	adds	r7, #12
 80006ca:	46bd      	mov	sp, r7
 80006cc:	f85d 7b04 	ldr.w	r7, [sp], #4
 80006d0:	4770      	bx	lr
	...

080006d4 <CALLBACK_USB_GetDescriptor>:
  *  the control endpoint, this function is called so that the descriptor details
  *  can be passed back and the appropriate descriptor sent back to the USB host.
  **/
uint16_t CALLBACK_USB_GetDescriptor( const uint16_t wValue,
									 const uint8_t wIndex,
									 const void** const DescriptorAddress ) {
 80006d4:	b480      	push	{r7}
 80006d6:	b085      	sub	sp, #20
 80006d8:	af00      	add	r7, sp, #0
 80006da:	4603      	mov	r3, r0
 80006dc:	603a      	str	r2, [r7, #0]
 80006de:	80fb      	strh	r3, [r7, #6]
 80006e0:	460b      	mov	r3, r1
 80006e2:	717b      	strb	r3, [r7, #5]
	const uint8_t  DescriptorType   = (wValue >> 8);
 80006e4:	88fb      	ldrh	r3, [r7, #6]
 80006e6:	0a1b      	lsrs	r3, r3, #8
 80006e8:	b29b      	uxth	r3, r3
 80006ea:	727b      	strb	r3, [r7, #9]
	const uint8_t  DescriptorNumber = (wValue & 0xFF);
 80006ec:	88fb      	ldrh	r3, [r7, #6]
 80006ee:	723b      	strb	r3, [r7, #8]

	const void* Address = NULL;
 80006f0:	2300      	movs	r3, #0
 80006f2:	60fb      	str	r3, [r7, #12]
	uint16_t    Size    = NO_DESCRIPTOR;
 80006f4:	2300      	movs	r3, #0
 80006f6:	817b      	strh	r3, [r7, #10]

	switch (DescriptorType) {
 80006f8:	7a7b      	ldrb	r3, [r7, #9]
 80006fa:	3b01      	subs	r3, #1
 80006fc:	2b21      	cmp	r3, #33	; 0x21
 80006fe:	d876      	bhi.n	80007ee <CALLBACK_USB_GetDescriptor+0x11a>
 8000700:	a201      	add	r2, pc, #4	; (adr r2, 8000708 <CALLBACK_USB_GetDescriptor+0x34>)
 8000702:	f852 f023 	ldr.w	pc, [r2, r3, lsl #2]
 8000706:	bf00      	nop
 8000708:	08000791 	.word	0x08000791
 800070c:	0800079b 	.word	0x0800079b
 8000710:	080007a5 	.word	0x080007a5
 8000714:	080007ef 	.word	0x080007ef
 8000718:	080007ef 	.word	0x080007ef
 800071c:	080007ef 	.word	0x080007ef
 8000720:	080007ef 	.word	0x080007ef
 8000724:	080007ef 	.word	0x080007ef
 8000728:	080007ef 	.word	0x080007ef
 800072c:	080007ef 	.word	0x080007ef
 8000730:	080007ef 	.word	0x080007ef
 8000734:	080007ef 	.word	0x080007ef
 8000738:	080007ef 	.word	0x080007ef
 800073c:	080007ef 	.word	0x080007ef
 8000740:	080007ef 	.word	0x080007ef
 8000744:	080007ef 	.word	0x080007ef
 8000748:	080007ef 	.word	0x080007ef
 800074c:	080007ef 	.word	0x080007ef
 8000750:	080007ef 	.word	0x080007ef
 8000754:	080007ef 	.word	0x080007ef
 8000758:	080007ef 	.word	0x080007ef
 800075c:	080007ef 	.word	0x080007ef
 8000760:	080007ef 	.word	0x080007ef
 8000764:	080007ef 	.word	0x080007ef
 8000768:	080007ef 	.word	0x080007ef
 800076c:	080007ef 	.word	0x080007ef
 8000770:	080007ef 	.word	0x080007ef
 8000774:	080007ef 	.word	0x080007ef
 8000778:	080007ef 	.word	0x080007ef
 800077c:	080007ef 	.word	0x080007ef
 8000780:	080007ef 	.word	0x080007ef
 8000784:	080007ef 	.word	0x080007ef
 8000788:	080007d9 	.word	0x080007d9
 800078c:	080007e3 	.word	0x080007e3
		case DTYPE_Device:
			Address = &DeviceDescriptor;
 8000790:	4b1c      	ldr	r3, [pc, #112]	; (8000804 <CALLBACK_USB_GetDescriptor+0x130>)
 8000792:	60fb      	str	r3, [r7, #12]
			Size    = sizeof(USB_Descriptor_Device_t);
 8000794:	2312      	movs	r3, #18
 8000796:	817b      	strh	r3, [r7, #10]
			break;
 8000798:	e029      	b.n	80007ee <CALLBACK_USB_GetDescriptor+0x11a>
		case DTYPE_Configuration:
			Address = &ConfigurationDescriptor;
 800079a:	4b1b      	ldr	r3, [pc, #108]	; (8000808 <CALLBACK_USB_GetDescriptor+0x134>)
 800079c:	60fb      	str	r3, [r7, #12]
			Size    = sizeof(USB_Descriptor_Configuration_t);
 800079e:	2322      	movs	r3, #34	; 0x22
 80007a0:	817b      	strh	r3, [r7, #10]
			break;
 80007a2:	e024      	b.n	80007ee <CALLBACK_USB_GetDescriptor+0x11a>
		case DTYPE_String:
			switch (DescriptorNumber) {
 80007a4:	7a3b      	ldrb	r3, [r7, #8]
 80007a6:	2b02      	cmp	r3, #2
 80007a8:	d010      	beq.n	80007cc <CALLBACK_USB_GetDescriptor+0xf8>
 80007aa:	2b02      	cmp	r3, #2
 80007ac:	dc1e      	bgt.n	80007ec <CALLBACK_USB_GetDescriptor+0x118>
 80007ae:	2b00      	cmp	r3, #0
 80007b0:	d002      	beq.n	80007b8 <CALLBACK_USB_GetDescriptor+0xe4>
 80007b2:	2b01      	cmp	r3, #1
 80007b4:	d005      	beq.n	80007c2 <CALLBACK_USB_GetDescriptor+0xee>
				case STRING_ID_Product:
					Address = &ProductString;
					Size    = ProductString.Header.Size;
					break;
			}
			break;
 80007b6:	e019      	b.n	80007ec <CALLBACK_USB_GetDescriptor+0x118>
					Address = &LanguageString;
 80007b8:	4b14      	ldr	r3, [pc, #80]	; (800080c <CALLBACK_USB_GetDescriptor+0x138>)
 80007ba:	60fb      	str	r3, [r7, #12]
					Size    = LanguageString.Header.Size;
 80007bc:	2304      	movs	r3, #4
 80007be:	817b      	strh	r3, [r7, #10]
					break;
 80007c0:	e009      	b.n	80007d6 <CALLBACK_USB_GetDescriptor+0x102>
					Address = &ManufacturerString;
 80007c2:	4b13      	ldr	r3, [pc, #76]	; (8000810 <CALLBACK_USB_GetDescriptor+0x13c>)
 80007c4:	60fb      	str	r3, [r7, #12]
					Size    = ManufacturerString.Header.Size;
 80007c6:	2350      	movs	r3, #80	; 0x50
 80007c8:	817b      	strh	r3, [r7, #10]
					break;
 80007ca:	e004      	b.n	80007d6 <CALLBACK_USB_GetDescriptor+0x102>
					Address = &ProductString;
 80007cc:	4b11      	ldr	r3, [pc, #68]	; (8000814 <CALLBACK_USB_GetDescriptor+0x140>)
 80007ce:	60fb      	str	r3, [r7, #12]
					Size    = ProductString.Header.Size;
 80007d0:	2348      	movs	r3, #72	; 0x48
 80007d2:	817b      	strh	r3, [r7, #10]
					break;
 80007d4:	bf00      	nop
			break;
 80007d6:	e009      	b.n	80007ec <CALLBACK_USB_GetDescriptor+0x118>
		case HID_DTYPE_HID:
			Address = &ConfigurationDescriptor.HID_KeyboardHID;
 80007d8:	4b0f      	ldr	r3, [pc, #60]	; (8000818 <CALLBACK_USB_GetDescriptor+0x144>)
 80007da:	60fb      	str	r3, [r7, #12]
			Size    = sizeof(USB_HID_Descriptor_HID_t);
 80007dc:	2309      	movs	r3, #9
 80007de:	817b      	strh	r3, [r7, #10]
			break;
 80007e0:	e005      	b.n	80007ee <CALLBACK_USB_GetDescriptor+0x11a>
		case HID_DTYPE_Report:
			Address = &KeyboardReport;
 80007e2:	4b0e      	ldr	r3, [pc, #56]	; (800081c <CALLBACK_USB_GetDescriptor+0x148>)
 80007e4:	60fb      	str	r3, [r7, #12]
			Size    = sizeof(KeyboardReport);
 80007e6:	233f      	movs	r3, #63	; 0x3f
 80007e8:	817b      	strh	r3, [r7, #10]
			break;
 80007ea:	e000      	b.n	80007ee <CALLBACK_USB_GetDescriptor+0x11a>
			break;
 80007ec:	bf00      	nop
	}

	*DescriptorAddress = Address;
 80007ee:	683b      	ldr	r3, [r7, #0]
 80007f0:	68fa      	ldr	r2, [r7, #12]
 80007f2:	601a      	str	r2, [r3, #0]
	return Size;
 80007f4:	897b      	ldrh	r3, [r7, #10]
}
 80007f6:	4618      	mov	r0, r3
 80007f8:	3714      	adds	r7, #20
 80007fa:	46bd      	mov	sp, r7
 80007fc:	f85d 7b04 	ldr.w	r7, [sp], #4
 8000800:	4770      	bx	lr
 8000802:	bf00      	nop
 8000804:	08006494 	.word	0x08006494
 8000808:	080064a8 	.word	0x080064a8
 800080c:	080064cc 	.word	0x080064cc
 8000810:	080064d4 	.word	0x080064d4
 8000814:	08006528 	.word	0x08006528
 8000818:	080064ba 	.word	0x080064ba
 800081c:	08006454 	.word	0x08006454

08000820 <XMC_SCU_CLOCK_GetUsbClockSource>:
 * The clock source is read from from the \a USBSEL bits of \a USBCLKCR register.
 * \par<b>Related APIs:</b><BR>
 * XMC_SCU_CLOCK_SetUsbClockDivider(), XMC_SCU_CLOCK_GetUsbPllClockFrequency() \n\n\n
 */
__STATIC_INLINE XMC_SCU_CLOCK_USBCLKSRC_t XMC_SCU_CLOCK_GetUsbClockSource(void)
{
 8000820:	b480      	push	{r7}
 8000822:	af00      	add	r7, sp, #0
  return (XMC_SCU_CLOCK_USBCLKSRC_t)(SCU_CLK->USBCLKCR & SCU_CLK_USBCLKCR_USBSEL_Msk);
 8000824:	4b04      	ldr	r3, [pc, #16]	; (8000838 <XMC_SCU_CLOCK_GetUsbClockSource+0x18>)
 8000826:	699b      	ldr	r3, [r3, #24]
 8000828:	f403 3380 	and.w	r3, r3, #65536	; 0x10000
}
 800082c:	4618      	mov	r0, r3
 800082e:	46bd      	mov	sp, r7
 8000830:	f85d 7b04 	ldr.w	r7, [sp], #4
 8000834:	4770      	bx	lr
 8000836:	bf00      	nop
 8000838:	50004600 	.word	0x50004600

0800083c <XMC_SCU_CLOCK_GetWdtClockSource>:
 * the clock source selected.
 * \par<b>Related APIs:</b><BR>
 * XMC_SCU_CLOCK_SetWdtClockDivider(), XMC_SCU_CLOCK_SetWdtClockSource() \n\n\n
 */
__STATIC_INLINE XMC_SCU_CLOCK_WDTCLKSRC_t XMC_SCU_CLOCK_GetWdtClockSource(void)
{
 800083c:	b480      	push	{r7}
 800083e:	af00      	add	r7, sp, #0
  return (XMC_SCU_CLOCK_WDTCLKSRC_t)(SCU_CLK->WDTCLKCR & SCU_CLK_WDTCLKCR_WDTSEL_Msk);
 8000840:	4b04      	ldr	r3, [pc, #16]	; (8000854 <XMC_SCU_CLOCK_GetWdtClockSource+0x18>)
 8000842:	6a5b      	ldr	r3, [r3, #36]	; 0x24
 8000844:	f403 3340 	and.w	r3, r3, #196608	; 0x30000
}
 8000848:	4618      	mov	r0, r3
 800084a:	46bd      	mov	sp, r7
 800084c:	f85d 7b04 	ldr.w	r7, [sp], #4
 8000850:	4770      	bx	lr
 8000852:	bf00      	nop
 8000854:	50004600 	.word	0x50004600

08000858 <XMC_SCU_CLOCK_GetExternalOutputClockSource>:
 * The value is obtained by reading \a ECKSEL bits of \a EXTCLKCR register.
 * \par<b>Related APIs:</b><BR>
 * XMC_SCU_CLOCK_SetExternalOutputClockSource(), XMC_SCU_CLOCK_SetExternalOutputClockDivider() \n\n\n
 */
__STATIC_INLINE XMC_SCU_CLOCK_EXTOUTCLKSRC_t XMC_SCU_CLOCK_GetExternalOutputClockSource(void)
{
 8000858:	b480      	push	{r7}
 800085a:	af00      	add	r7, sp, #0
  return (XMC_SCU_CLOCK_EXTOUTCLKSRC_t)(SCU_CLK->EXTCLKCR & SCU_CLK_EXTCLKCR_ECKSEL_Msk);
 800085c:	4b05      	ldr	r3, [pc, #20]	; (8000874 <XMC_SCU_CLOCK_GetExternalOutputClockSource+0x1c>)
 800085e:	6a9b      	ldr	r3, [r3, #40]	; 0x28
 8000860:	b2db      	uxtb	r3, r3
 8000862:	f003 0303 	and.w	r3, r3, #3
 8000866:	b2db      	uxtb	r3, r3
}
 8000868:	4618      	mov	r0, r3
 800086a:	46bd      	mov	sp, r7
 800086c:	f85d 7b04 	ldr.w	r7, [sp], #4
 8000870:	4770      	bx	lr
 8000872:	bf00      	nop
 8000874:	50004600 	.word	0x50004600

08000878 <XMC_SCU_CLOCK_GetSystemClockFrequency>:
 * fSYS = fCPU << CPUDIV.
 * \par<b>Related APIs:</b><BR>
 * XMC_SCU_CLOCK_GetUsbPllClockFrequency() \n\n\n
 */
__STATIC_INLINE uint32_t XMC_SCU_CLOCK_GetSystemClockFrequency(void)
{
 8000878:	b480      	push	{r7}
 800087a:	af00      	add	r7, sp, #0
  return SystemCoreClock << ((SCU_CLK->CPUCLKCR & SCU_CLK_CPUCLKCR_CPUDIV_Msk) >> SCU_CLK_CPUCLKCR_CPUDIV_Pos);
 800087c:	4b06      	ldr	r3, [pc, #24]	; (8000898 <XMC_SCU_CLOCK_GetSystemClockFrequency+0x20>)
 800087e:	681a      	ldr	r2, [r3, #0]
 8000880:	4b06      	ldr	r3, [pc, #24]	; (800089c <XMC_SCU_CLOCK_GetSystemClockFrequency+0x24>)
 8000882:	691b      	ldr	r3, [r3, #16]
 8000884:	f003 0301 	and.w	r3, r3, #1
 8000888:	fa02 f303 	lsl.w	r3, r2, r3
}
 800088c:	4618      	mov	r0, r3
 800088e:	46bd      	mov	sp, r7
 8000890:	f85d 7b04 	ldr.w	r7, [sp], #4
 8000894:	4770      	bx	lr
 8000896:	bf00      	nop
 8000898:	2000ffc0 	.word	0x2000ffc0
 800089c:	50004600 	.word	0x50004600

080008a0 <XMC_SCU_CLOCK_GetCpuClockFrequency>:
 *
 * \par<b>Related APIs:</b><BR>
 * XMC_SCU_CLOCK_GetPeripheralClockFrequency(), XMC_SCU_CLOCK_GatePeripheralClock() \n\n\n
 */
__STATIC_INLINE uint32_t XMC_SCU_CLOCK_GetCpuClockFrequency(void)
{
 80008a0:	b480      	push	{r7}
 80008a2:	af00      	add	r7, sp, #0
  return SystemCoreClock;
 80008a4:	4b03      	ldr	r3, [pc, #12]	; (80008b4 <XMC_SCU_CLOCK_GetCpuClockFrequency+0x14>)
 80008a6:	681b      	ldr	r3, [r3, #0]
}
 80008a8:	4618      	mov	r0, r3
 80008aa:	46bd      	mov	sp, r7
 80008ac:	f85d 7b04 	ldr.w	r7, [sp], #4
 80008b0:	4770      	bx	lr
 80008b2:	bf00      	nop
 80008b4:	2000ffc0 	.word	0x2000ffc0

080008b8 <XMC_SCU_GetMirrorStatus>:
 * that a corresponding register of the hibernate domain is ready to accept a write or that the communication interface
 * is busy with executing the previous operation.\n
 * Note: There is no hibernate domain in XMC1x devices. This register is retained for legacy purpose.
 */
__STATIC_INLINE uint32_t XMC_SCU_GetMirrorStatus(void)
{
 80008b8:	b480      	push	{r7}
 80008ba:	af00      	add	r7, sp, #0
  return(SCU_GENERAL->MIRRSTS);
 80008bc:	4b03      	ldr	r3, [pc, #12]	; (80008cc <XMC_SCU_GetMirrorStatus+0x14>)
 80008be:	f8d3 30c4 	ldr.w	r3, [r3, #196]	; 0xc4
}
 80008c2:	4618      	mov	r0, r3
 80008c4:	46bd      	mov	sp, r7
 80008c6:	f85d 7b04 	ldr.w	r7, [sp], #4
 80008ca:	4770      	bx	lr
 80008cc:	50004000 	.word	0x50004000

080008d0 <XMC_SCU_lDelay>:
/*********************************************************************************************************************
 * API IMPLEMENTATION
 ********************************************************************************************************************/
/* This is a local function used to generate the delay until register get updated with new configured value.  */
void XMC_SCU_lDelay(uint32_t delay)
{
 80008d0:	b580      	push	{r7, lr}
 80008d2:	b084      	sub	sp, #16
 80008d4:	af00      	add	r7, sp, #0
 80008d6:	6078      	str	r0, [r7, #4]
  uint32_t i;

  SystemCoreClockUpdate();
 80008d8:	f005 fbb8 	bl	800604c <SystemCoreClockUpdate>
  delay =  delay * (uint32_t)(SystemCoreClock / FREQ_1MHZ);
 80008dc:	4b0c      	ldr	r3, [pc, #48]	; (8000910 <XMC_SCU_lDelay+0x40>)
 80008de:	681b      	ldr	r3, [r3, #0]
 80008e0:	4a0c      	ldr	r2, [pc, #48]	; (8000914 <XMC_SCU_lDelay+0x44>)
 80008e2:	fba2 2303 	umull	r2, r3, r2, r3
 80008e6:	0c9a      	lsrs	r2, r3, #18
 80008e8:	687b      	ldr	r3, [r7, #4]
 80008ea:	fb02 f303 	mul.w	r3, r2, r3
 80008ee:	607b      	str	r3, [r7, #4]

  for (i = 0U; i < delay; ++i)
 80008f0:	2300      	movs	r3, #0
 80008f2:	60fb      	str	r3, [r7, #12]
 80008f4:	e003      	b.n	80008fe <XMC_SCU_lDelay+0x2e>
  {
    __NOP();
 80008f6:	bf00      	nop
  for (i = 0U; i < delay; ++i)
 80008f8:	68fb      	ldr	r3, [r7, #12]
 80008fa:	3301      	adds	r3, #1
 80008fc:	60fb      	str	r3, [r7, #12]
 80008fe:	68fa      	ldr	r2, [r7, #12]
 8000900:	687b      	ldr	r3, [r7, #4]
 8000902:	429a      	cmp	r2, r3
 8000904:	d3f7      	bcc.n	80008f6 <XMC_SCU_lDelay+0x26>
  }
}
 8000906:	bf00      	nop
 8000908:	bf00      	nop
 800090a:	3710      	adds	r7, #16
 800090c:	46bd      	mov	sp, r7
 800090e:	bd80      	pop	{r7, pc}
 8000910:	2000ffc0 	.word	0x2000ffc0
 8000914:	431bde83 	.word	0x431bde83

08000918 <XMC_SCU_INTERRUPT_EnableEvent>:

/* API to enable the SCU event */
void XMC_SCU_INTERRUPT_EnableEvent(const XMC_SCU_INTERRUPT_EVENT_t event)
{
 8000918:	b480      	push	{r7}
 800091a:	b083      	sub	sp, #12
 800091c:	af00      	add	r7, sp, #0
 800091e:	6078      	str	r0, [r7, #4]
  SCU_INTERRUPT->SRMSK |= (uint32_t)event;
 8000920:	4b05      	ldr	r3, [pc, #20]	; (8000938 <XMC_SCU_INTERRUPT_EnableEvent+0x20>)
 8000922:	689a      	ldr	r2, [r3, #8]
 8000924:	4904      	ldr	r1, [pc, #16]	; (8000938 <XMC_SCU_INTERRUPT_EnableEvent+0x20>)
 8000926:	687b      	ldr	r3, [r7, #4]
 8000928:	4313      	orrs	r3, r2
 800092a:	608b      	str	r3, [r1, #8]
}
 800092c:	bf00      	nop
 800092e:	370c      	adds	r7, #12
 8000930:	46bd      	mov	sp, r7
 8000932:	f85d 7b04 	ldr.w	r7, [sp], #4
 8000936:	4770      	bx	lr
 8000938:	50004074 	.word	0x50004074

0800093c <XMC_SCU_INTERRUPT_DisableEvent>:

/* API to disable the SCU event */
void XMC_SCU_INTERRUPT_DisableEvent(const XMC_SCU_INTERRUPT_EVENT_t event)
{
 800093c:	b480      	push	{r7}
 800093e:	b083      	sub	sp, #12
 8000940:	af00      	add	r7, sp, #0
 8000942:	6078      	str	r0, [r7, #4]
  SCU_INTERRUPT->SRMSK &= (uint32_t)~event;
 8000944:	4b06      	ldr	r3, [pc, #24]	; (8000960 <XMC_SCU_INTERRUPT_DisableEvent+0x24>)
 8000946:	689a      	ldr	r2, [r3, #8]
 8000948:	687b      	ldr	r3, [r7, #4]
 800094a:	43db      	mvns	r3, r3
 800094c:	4904      	ldr	r1, [pc, #16]	; (8000960 <XMC_SCU_INTERRUPT_DisableEvent+0x24>)
 800094e:	4013      	ands	r3, r2
 8000950:	608b      	str	r3, [r1, #8]
}
 8000952:	bf00      	nop
 8000954:	370c      	adds	r7, #12
 8000956:	46bd      	mov	sp, r7
 8000958:	f85d 7b04 	ldr.w	r7, [sp], #4
 800095c:	4770      	bx	lr
 800095e:	bf00      	nop
 8000960:	50004074 	.word	0x50004074

08000964 <XMC_SCU_INTERRUPT_TriggerEvent>:

/* API to trigger the SCU event */
void XMC_SCU_INTERRUPT_TriggerEvent(const XMC_SCU_INTERRUPT_EVENT_t event)
{
 8000964:	b480      	push	{r7}
 8000966:	b083      	sub	sp, #12
 8000968:	af00      	add	r7, sp, #0
 800096a:	6078      	str	r0, [r7, #4]
  SCU_INTERRUPT->SRSET |= (uint32_t)event;
 800096c:	4b05      	ldr	r3, [pc, #20]	; (8000984 <XMC_SCU_INTERRUPT_TriggerEvent+0x20>)
 800096e:	691a      	ldr	r2, [r3, #16]
 8000970:	4904      	ldr	r1, [pc, #16]	; (8000984 <XMC_SCU_INTERRUPT_TriggerEvent+0x20>)
 8000972:	687b      	ldr	r3, [r7, #4]
 8000974:	4313      	orrs	r3, r2
 8000976:	610b      	str	r3, [r1, #16]
}
 8000978:	bf00      	nop
 800097a:	370c      	adds	r7, #12
 800097c:	46bd      	mov	sp, r7
 800097e:	f85d 7b04 	ldr.w	r7, [sp], #4
 8000982:	4770      	bx	lr
 8000984:	50004074 	.word	0x50004074

08000988 <XMC_SCU_INTERUPT_GetEventStatus>:

/* API to retrieve the SCU event status */
XMC_SCU_INTERRUPT_EVENT_t XMC_SCU_INTERUPT_GetEventStatus(void)
{
 8000988:	b480      	push	{r7}
 800098a:	af00      	add	r7, sp, #0
  return (SCU_INTERRUPT->SRRAW);
 800098c:	4b03      	ldr	r3, [pc, #12]	; (800099c <XMC_SCU_INTERUPT_GetEventStatus+0x14>)
 800098e:	685b      	ldr	r3, [r3, #4]
}
 8000990:	4618      	mov	r0, r3
 8000992:	46bd      	mov	sp, r7
 8000994:	f85d 7b04 	ldr.w	r7, [sp], #4
 8000998:	4770      	bx	lr
 800099a:	bf00      	nop
 800099c:	50004074 	.word	0x50004074

080009a0 <XMC_SCU_INTERRUPT_ClearEventStatus>:

/* API to clear the SCU event status */
void XMC_SCU_INTERRUPT_ClearEventStatus(const XMC_SCU_INTERRUPT_EVENT_t event)
{
 80009a0:	b480      	push	{r7}
 80009a2:	b083      	sub	sp, #12
 80009a4:	af00      	add	r7, sp, #0
 80009a6:	6078      	str	r0, [r7, #4]
  SCU_INTERRUPT->SRCLR = (uint32_t)event;
 80009a8:	4a04      	ldr	r2, [pc, #16]	; (80009bc <XMC_SCU_INTERRUPT_ClearEventStatus+0x1c>)
 80009aa:	687b      	ldr	r3, [r7, #4]
 80009ac:	60d3      	str	r3, [r2, #12]
}
 80009ae:	bf00      	nop
 80009b0:	370c      	adds	r7, #12
 80009b2:	46bd      	mov	sp, r7
 80009b4:	f85d 7b04 	ldr.w	r7, [sp], #4
 80009b8:	4770      	bx	lr
 80009ba:	bf00      	nop
 80009bc:	50004074 	.word	0x50004074

080009c0 <XMC_SCU_GetBootMode>:


/* API to retrieve the currently deployed device bootmode */
uint32_t XMC_SCU_GetBootMode(void)
{
 80009c0:	b480      	push	{r7}
 80009c2:	af00      	add	r7, sp, #0
  return (uint32_t)(SCU_GENERAL->STCON & SCU_GENERAL_STCON_SWCON_Msk);
 80009c4:	4b04      	ldr	r3, [pc, #16]	; (80009d8 <XMC_SCU_GetBootMode+0x18>)
 80009c6:	691b      	ldr	r3, [r3, #16]
 80009c8:	f403 6370 	and.w	r3, r3, #3840	; 0xf00
}
 80009cc:	4618      	mov	r0, r3
 80009ce:	46bd      	mov	sp, r7
 80009d0:	f85d 7b04 	ldr.w	r7, [sp], #4
 80009d4:	4770      	bx	lr
 80009d6:	bf00      	nop
 80009d8:	50004000 	.word	0x50004000

080009dc <XMC_SCU_SetBootMode>:

/* API to program a new device bootmode */
void XMC_SCU_SetBootMode(const XMC_SCU_BOOTMODE_t bootmode)
{
 80009dc:	b480      	push	{r7}
 80009de:	b083      	sub	sp, #12
 80009e0:	af00      	add	r7, sp, #0
 80009e2:	4603      	mov	r3, r0
 80009e4:	80fb      	strh	r3, [r7, #6]
  SCU_GENERAL->STCON = (uint32_t)bootmode;
 80009e6:	4a04      	ldr	r2, [pc, #16]	; (80009f8 <XMC_SCU_SetBootMode+0x1c>)
 80009e8:	88fb      	ldrh	r3, [r7, #6]
 80009ea:	6113      	str	r3, [r2, #16]
}
 80009ec:	bf00      	nop
 80009ee:	370c      	adds	r7, #12
 80009f0:	46bd      	mov	sp, r7
 80009f2:	f85d 7b04 	ldr.w	r7, [sp], #4
 80009f6:	4770      	bx	lr
 80009f8:	50004000 	.word	0x50004000

080009fc <XMC_SCU_ReadGPR>:

/* API to read from General purpose register */
uint32_t XMC_SCU_ReadGPR(const uint32_t index)
{
 80009fc:	b480      	push	{r7}
 80009fe:	b083      	sub	sp, #12
 8000a00:	af00      	add	r7, sp, #0
 8000a02:	6078      	str	r0, [r7, #4]
  return (SCU_GENERAL->GPR[index]);
 8000a04:	4a05      	ldr	r2, [pc, #20]	; (8000a1c <XMC_SCU_ReadGPR+0x20>)
 8000a06:	687b      	ldr	r3, [r7, #4]
 8000a08:	330a      	adds	r3, #10
 8000a0a:	009b      	lsls	r3, r3, #2
 8000a0c:	4413      	add	r3, r2
 8000a0e:	685b      	ldr	r3, [r3, #4]
}
 8000a10:	4618      	mov	r0, r3
 8000a12:	370c      	adds	r7, #12
 8000a14:	46bd      	mov	sp, r7
 8000a16:	f85d 7b04 	ldr.w	r7, [sp], #4
 8000a1a:	4770      	bx	lr
 8000a1c:	50004000 	.word	0x50004000

08000a20 <XMC_SCU_WriteGPR>:

/* API to write to GPR */
void XMC_SCU_WriteGPR(const uint32_t index, const uint32_t data)
{
 8000a20:	b480      	push	{r7}
 8000a22:	b083      	sub	sp, #12
 8000a24:	af00      	add	r7, sp, #0
 8000a26:	6078      	str	r0, [r7, #4]
 8000a28:	6039      	str	r1, [r7, #0]
  SCU_GENERAL->GPR[index] = data;
 8000a2a:	4a06      	ldr	r2, [pc, #24]	; (8000a44 <XMC_SCU_WriteGPR+0x24>)
 8000a2c:	687b      	ldr	r3, [r7, #4]
 8000a2e:	330a      	adds	r3, #10
 8000a30:	009b      	lsls	r3, r3, #2
 8000a32:	4413      	add	r3, r2
 8000a34:	683a      	ldr	r2, [r7, #0]
 8000a36:	605a      	str	r2, [r3, #4]
}
 8000a38:	bf00      	nop
 8000a3a:	370c      	adds	r7, #12
 8000a3c:	46bd      	mov	sp, r7
 8000a3e:	f85d 7b04 	ldr.w	r7, [sp], #4
 8000a42:	4770      	bx	lr
 8000a44:	50004000 	.word	0x50004000

08000a48 <XMC_SCU_EnableOutOfRangeComparator>:

/* API to enable Out of Range Comparator(ORC) for a desired group and a desired channel input */
void XMC_SCU_EnableOutOfRangeComparator(const uint32_t group, const uint32_t channel)
{
 8000a48:	b480      	push	{r7}
 8000a4a:	b083      	sub	sp, #12
 8000a4c:	af00      	add	r7, sp, #0
 8000a4e:	6078      	str	r0, [r7, #4]
 8000a50:	6039      	str	r1, [r7, #0]
  XMC_ASSERT("XMC_SCU_EnableOutOfangeComparator:Wrong Group Number",XMC_SCU_CHECK_GRPNUM(group));
  XMC_ASSERT("XMC_SCU_EnableOutOfangeComparator:Wrong Channel Number",XMC_SCU_CHECK_CHNUM(channel));
   
  SCU_GENERAL->GORCEN[group] |= (uint32_t)(1UL << channel);
 8000a52:	4a0a      	ldr	r2, [pc, #40]	; (8000a7c <XMC_SCU_EnableOutOfRangeComparator+0x34>)
 8000a54:	687b      	ldr	r3, [r7, #4]
 8000a56:	3328      	adds	r3, #40	; 0x28
 8000a58:	f852 2023 	ldr.w	r2, [r2, r3, lsl #2]
 8000a5c:	2101      	movs	r1, #1
 8000a5e:	683b      	ldr	r3, [r7, #0]
 8000a60:	fa01 f303 	lsl.w	r3, r1, r3
 8000a64:	4905      	ldr	r1, [pc, #20]	; (8000a7c <XMC_SCU_EnableOutOfRangeComparator+0x34>)
 8000a66:	431a      	orrs	r2, r3
 8000a68:	687b      	ldr	r3, [r7, #4]
 8000a6a:	3328      	adds	r3, #40	; 0x28
 8000a6c:	f841 2023 	str.w	r2, [r1, r3, lsl #2]
}
 8000a70:	bf00      	nop
 8000a72:	370c      	adds	r7, #12
 8000a74:	46bd      	mov	sp, r7
 8000a76:	f85d 7b04 	ldr.w	r7, [sp], #4
 8000a7a:	4770      	bx	lr
 8000a7c:	50004000 	.word	0x50004000

08000a80 <XMC_SCU_DisableOutOfRangeComparator>:

/* API to enable Out of Range Comparator(ORC) for a desired group and a desired channel input */
void XMC_SCU_DisableOutOfRangeComparator(const uint32_t group, const uint32_t channel)
{
 8000a80:	b480      	push	{r7}
 8000a82:	b083      	sub	sp, #12
 8000a84:	af00      	add	r7, sp, #0
 8000a86:	6078      	str	r0, [r7, #4]
 8000a88:	6039      	str	r1, [r7, #0]
  XMC_ASSERT("XMC_SCU_DisableOutOfRangeComparator:Wrong Group Number",XMC_SCU_CHECK_GRPNUM(group));
  XMC_ASSERT("XMC_SCU_DisableOutOfRangeComparator:Wrong Channel Number",XMC_SCU_CHECK_CHNUM(channel));
   
  SCU_GENERAL->GORCEN[group] &= (uint32_t)~(1UL << channel);
 8000a8a:	4a0b      	ldr	r2, [pc, #44]	; (8000ab8 <XMC_SCU_DisableOutOfRangeComparator+0x38>)
 8000a8c:	687b      	ldr	r3, [r7, #4]
 8000a8e:	3328      	adds	r3, #40	; 0x28
 8000a90:	f852 2023 	ldr.w	r2, [r2, r3, lsl #2]
 8000a94:	2101      	movs	r1, #1
 8000a96:	683b      	ldr	r3, [r7, #0]
 8000a98:	fa01 f303 	lsl.w	r3, r1, r3
 8000a9c:	43db      	mvns	r3, r3
 8000a9e:	4906      	ldr	r1, [pc, #24]	; (8000ab8 <XMC_SCU_DisableOutOfRangeComparator+0x38>)
 8000aa0:	401a      	ands	r2, r3
 8000aa2:	687b      	ldr	r3, [r7, #4]
 8000aa4:	3328      	adds	r3, #40	; 0x28
 8000aa6:	f841 2023 	str.w	r2, [r1, r3, lsl #2]
}
 8000aaa:	bf00      	nop
 8000aac:	370c      	adds	r7, #12
 8000aae:	46bd      	mov	sp, r7
 8000ab0:	f85d 7b04 	ldr.w	r7, [sp], #4
 8000ab4:	4770      	bx	lr
 8000ab6:	bf00      	nop
 8000ab8:	50004000 	.word	0x50004000

08000abc <XMC_SCU_CalibrateTemperatureSensor>:

/* API to calibrate temperature sensor */
void XMC_SCU_CalibrateTemperatureSensor(uint32_t offset, uint32_t gain)
{
 8000abc:	b480      	push	{r7}
 8000abe:	b083      	sub	sp, #12
 8000ac0:	af00      	add	r7, sp, #0
 8000ac2:	6078      	str	r0, [r7, #4]
 8000ac4:	6039      	str	r1, [r7, #0]
  SCU_GENERAL->DTSCON = ((uint32_t)(offset << SCU_GENERAL_DTSCON_OFFSET_Pos) |
 8000ac6:	687b      	ldr	r3, [r7, #4]
 8000ac8:	011a      	lsls	r2, r3, #4
                        (uint32_t)(gain << SCU_GENERAL_DTSCON_GAIN_Pos) |
 8000aca:	683b      	ldr	r3, [r7, #0]
 8000acc:	02db      	lsls	r3, r3, #11
  SCU_GENERAL->DTSCON = ((uint32_t)(offset << SCU_GENERAL_DTSCON_OFFSET_Pos) |
 8000ace:	4313      	orrs	r3, r2
 8000ad0:	4a05      	ldr	r2, [pc, #20]	; (8000ae8 <XMC_SCU_CalibrateTemperatureSensor+0x2c>)
                        (uint32_t)(0x4UL << SCU_GENERAL_DTSCON_REFTRIM_Pos) |
 8000ad2:	f443 0308 	orr.w	r3, r3, #8912896	; 0x880000
  SCU_GENERAL->DTSCON = ((uint32_t)(offset << SCU_GENERAL_DTSCON_OFFSET_Pos) |
 8000ad6:	f8c2 308c 	str.w	r3, [r2, #140]	; 0x8c
                        (uint32_t)(0x8UL << SCU_GENERAL_DTSCON_BGTRIM_Pos));
}
 8000ada:	bf00      	nop
 8000adc:	370c      	adds	r7, #12
 8000ade:	46bd      	mov	sp, r7
 8000ae0:	f85d 7b04 	ldr.w	r7, [sp], #4
 8000ae4:	4770      	bx	lr
 8000ae6:	bf00      	nop
 8000ae8:	50004000 	.word	0x50004000

08000aec <XMC_SCU_EnableTemperatureSensor>:
/* API to enable die temperature measurement by powering the DTS module. */
void XMC_SCU_EnableTemperatureSensor(void)
{
 8000aec:	b480      	push	{r7}
 8000aee:	af00      	add	r7, sp, #0
  SCU_GENERAL->DTSCON &= (uint32_t)~(SCU_GENERAL_DTSCON_PWD_Msk);
 8000af0:	4b06      	ldr	r3, [pc, #24]	; (8000b0c <XMC_SCU_EnableTemperatureSensor+0x20>)
 8000af2:	f8d3 308c 	ldr.w	r3, [r3, #140]	; 0x8c
 8000af6:	4a05      	ldr	r2, [pc, #20]	; (8000b0c <XMC_SCU_EnableTemperatureSensor+0x20>)
 8000af8:	f023 0301 	bic.w	r3, r3, #1
 8000afc:	f8c2 308c 	str.w	r3, [r2, #140]	; 0x8c
}
 8000b00:	bf00      	nop
 8000b02:	46bd      	mov	sp, r7
 8000b04:	f85d 7b04 	ldr.w	r7, [sp], #4
 8000b08:	4770      	bx	lr
 8000b0a:	bf00      	nop
 8000b0c:	50004000 	.word	0x50004000

08000b10 <XMC_SCU_DisableTemperatureSensor>:

/* API to disable die temperature measurement by powering the DTS module off. */
void XMC_SCU_DisableTemperatureSensor(void)
{
 8000b10:	b480      	push	{r7}
 8000b12:	af00      	add	r7, sp, #0
  SCU_GENERAL->DTSCON |= (uint32_t)SCU_GENERAL_DTSCON_PWD_Msk;
 8000b14:	4b06      	ldr	r3, [pc, #24]	; (8000b30 <XMC_SCU_DisableTemperatureSensor+0x20>)
 8000b16:	f8d3 308c 	ldr.w	r3, [r3, #140]	; 0x8c
 8000b1a:	4a05      	ldr	r2, [pc, #20]	; (8000b30 <XMC_SCU_DisableTemperatureSensor+0x20>)
 8000b1c:	f043 0301 	orr.w	r3, r3, #1
 8000b20:	f8c2 308c 	str.w	r3, [r2, #140]	; 0x8c
}
 8000b24:	bf00      	nop
 8000b26:	46bd      	mov	sp, r7
 8000b28:	f85d 7b04 	ldr.w	r7, [sp], #4
 8000b2c:	4770      	bx	lr
 8000b2e:	bf00      	nop
 8000b30:	50004000 	.word	0x50004000

08000b34 <XMC_SCU_IsTemperatureSensorEnabled>:

/* API to provide the die temperature sensor power status. */
bool XMC_SCU_IsTemperatureSensorEnabled(void)
{
 8000b34:	b480      	push	{r7}
 8000b36:	af00      	add	r7, sp, #0
  return ((SCU_GENERAL->DTSCON & SCU_GENERAL_DTSCON_PWD_Msk) == 0U);
 8000b38:	4b07      	ldr	r3, [pc, #28]	; (8000b58 <XMC_SCU_IsTemperatureSensorEnabled+0x24>)
 8000b3a:	f8d3 308c 	ldr.w	r3, [r3, #140]	; 0x8c
 8000b3e:	f003 0301 	and.w	r3, r3, #1
 8000b42:	2b00      	cmp	r3, #0
 8000b44:	bf0c      	ite	eq
 8000b46:	2301      	moveq	r3, #1
 8000b48:	2300      	movne	r3, #0
 8000b4a:	b2db      	uxtb	r3, r3
}
 8000b4c:	4618      	mov	r0, r3
 8000b4e:	46bd      	mov	sp, r7
 8000b50:	f85d 7b04 	ldr.w	r7, [sp], #4
 8000b54:	4770      	bx	lr
 8000b56:	bf00      	nop
 8000b58:	50004000 	.word	0x50004000

08000b5c <XMC_SCU_IsTemperatureSensorReady>:

/* API to check if the die temperature sensor is ready to start a measurement. */
bool XMC_SCU_IsTemperatureSensorReady(void)
{
 8000b5c:	b480      	push	{r7}
 8000b5e:	af00      	add	r7, sp, #0
  return ((SCU_GENERAL->DTSSTAT & SCU_GENERAL_DTSSTAT_RDY_Msk) != 0U);
 8000b60:	4b07      	ldr	r3, [pc, #28]	; (8000b80 <XMC_SCU_IsTemperatureSensorReady+0x24>)
 8000b62:	f8d3 3090 	ldr.w	r3, [r3, #144]	; 0x90
 8000b66:	f403 4380 	and.w	r3, r3, #16384	; 0x4000
 8000b6a:	2b00      	cmp	r3, #0
 8000b6c:	bf14      	ite	ne
 8000b6e:	2301      	movne	r3, #1
 8000b70:	2300      	moveq	r3, #0
 8000b72:	b2db      	uxtb	r3, r3
}
 8000b74:	4618      	mov	r0, r3
 8000b76:	46bd      	mov	sp, r7
 8000b78:	f85d 7b04 	ldr.w	r7, [sp], #4
 8000b7c:	4770      	bx	lr
 8000b7e:	bf00      	nop
 8000b80:	50004000 	.word	0x50004000

08000b84 <XMC_SCU_StartTemperatureMeasurement>:
/* API to start device temperature measurements */
XMC_SCU_STATUS_t XMC_SCU_StartTemperatureMeasurement(void)
{
 8000b84:	b580      	push	{r7, lr}
 8000b86:	b082      	sub	sp, #8
 8000b88:	af00      	add	r7, sp, #0
  XMC_SCU_STATUS_t status = XMC_SCU_STATUS_OK;
 8000b8a:	2300      	movs	r3, #0
 8000b8c:	71fb      	strb	r3, [r7, #7]

  if (XMC_SCU_IsTemperatureSensorEnabled() == false)
 8000b8e:	f7ff ffd1 	bl	8000b34 <XMC_SCU_IsTemperatureSensorEnabled>
 8000b92:	4603      	mov	r3, r0
 8000b94:	f083 0301 	eor.w	r3, r3, #1
 8000b98:	b2db      	uxtb	r3, r3
 8000b9a:	2b00      	cmp	r3, #0
 8000b9c:	d001      	beq.n	8000ba2 <XMC_SCU_StartTemperatureMeasurement+0x1e>
  {
    status = XMC_SCU_STATUS_ERROR;
 8000b9e:	2301      	movs	r3, #1
 8000ba0:	71fb      	strb	r3, [r7, #7]
  }
   
  if (XMC_SCU_IsTemperatureSensorBusy() == true)
 8000ba2:	f000 f831 	bl	8000c08 <XMC_SCU_IsTemperatureSensorBusy>
 8000ba6:	4603      	mov	r3, r0
 8000ba8:	2b00      	cmp	r3, #0
 8000baa:	d001      	beq.n	8000bb0 <XMC_SCU_StartTemperatureMeasurement+0x2c>
  {
    status = XMC_SCU_STATUS_BUSY;
 8000bac:	2302      	movs	r3, #2
 8000bae:	71fb      	strb	r3, [r7, #7]
  }

  /* And start the measurement */
  SCU_GENERAL->DTSCON |= (uint32_t)SCU_GENERAL_DTSCON_START_Msk;
 8000bb0:	4b06      	ldr	r3, [pc, #24]	; (8000bcc <XMC_SCU_StartTemperatureMeasurement+0x48>)
 8000bb2:	f8d3 308c 	ldr.w	r3, [r3, #140]	; 0x8c
 8000bb6:	4a05      	ldr	r2, [pc, #20]	; (8000bcc <XMC_SCU_StartTemperatureMeasurement+0x48>)
 8000bb8:	f043 0302 	orr.w	r3, r3, #2
 8000bbc:	f8c2 308c 	str.w	r3, [r2, #140]	; 0x8c
  
  return (status);
 8000bc0:	79fb      	ldrb	r3, [r7, #7]
}
 8000bc2:	4618      	mov	r0, r3
 8000bc4:	3708      	adds	r7, #8
 8000bc6:	46bd      	mov	sp, r7
 8000bc8:	bd80      	pop	{r7, pc}
 8000bca:	bf00      	nop
 8000bcc:	50004000 	.word	0x50004000

08000bd0 <XMC_SCU_GetTemperatureMeasurement>:

/* API to retrieve the temperature measured */
uint32_t XMC_SCU_GetTemperatureMeasurement(void)
{
 8000bd0:	b580      	push	{r7, lr}
 8000bd2:	b082      	sub	sp, #8
 8000bd4:	af00      	add	r7, sp, #0
  uint32_t temperature;

  if (XMC_SCU_IsTemperatureSensorEnabled() == false)
 8000bd6:	f7ff ffad 	bl	8000b34 <XMC_SCU_IsTemperatureSensorEnabled>
 8000bda:	4603      	mov	r3, r0
 8000bdc:	f083 0301 	eor.w	r3, r3, #1
 8000be0:	b2db      	uxtb	r3, r3
 8000be2:	2b00      	cmp	r3, #0
 8000be4:	d003      	beq.n	8000bee <XMC_SCU_GetTemperatureMeasurement+0x1e>
  {
    temperature = 0x7FFFFFFFUL;
 8000be6:	f06f 4300 	mvn.w	r3, #2147483648	; 0x80000000
 8000bea:	607b      	str	r3, [r7, #4]
 8000bec:	e005      	b.n	8000bfa <XMC_SCU_GetTemperatureMeasurement+0x2a>
  }
  else
  {
    temperature = (uint32_t)((SCU_GENERAL->DTSSTAT & SCU_GENERAL_DTSSTAT_RESULT_Msk) >> SCU_GENERAL_DTSSTAT_RESULT_Pos);
 8000bee:	4b05      	ldr	r3, [pc, #20]	; (8000c04 <XMC_SCU_GetTemperatureMeasurement+0x34>)
 8000bf0:	f8d3 3090 	ldr.w	r3, [r3, #144]	; 0x90
 8000bf4:	f3c3 0309 	ubfx	r3, r3, #0, #10
 8000bf8:	607b      	str	r3, [r7, #4]
  }
  
  return ((uint32_t)temperature);
 8000bfa:	687b      	ldr	r3, [r7, #4]
}
 8000bfc:	4618      	mov	r0, r3
 8000bfe:	3708      	adds	r7, #8
 8000c00:	46bd      	mov	sp, r7
 8000c02:	bd80      	pop	{r7, pc}
 8000c04:	50004000 	.word	0x50004000

08000c08 <XMC_SCU_IsTemperatureSensorBusy>:

/* API to know whether Die temperature sensor is busy */
bool XMC_SCU_IsTemperatureSensorBusy(void)
{
 8000c08:	b480      	push	{r7}
 8000c0a:	af00      	add	r7, sp, #0
  return ((SCU_GENERAL->DTSSTAT & SCU_GENERAL_DTSSTAT_BUSY_Msk) != 0U);
 8000c0c:	4b07      	ldr	r3, [pc, #28]	; (8000c2c <XMC_SCU_IsTemperatureSensorBusy+0x24>)
 8000c0e:	f8d3 3090 	ldr.w	r3, [r3, #144]	; 0x90
 8000c12:	f403 4300 	and.w	r3, r3, #32768	; 0x8000
 8000c16:	2b00      	cmp	r3, #0
 8000c18:	bf14      	ite	ne
 8000c1a:	2301      	movne	r3, #1
 8000c1c:	2300      	moveq	r3, #0
 8000c1e:	b2db      	uxtb	r3, r3
}
 8000c20:	4618      	mov	r0, r3
 8000c22:	46bd      	mov	sp, r7
 8000c24:	f85d 7b04 	ldr.w	r7, [sp], #4
 8000c28:	4770      	bx	lr
 8000c2a:	bf00      	nop
 8000c2c:	50004000 	.word	0x50004000

08000c30 <XMC_SCU_WriteToRetentionMemory>:
}
#endif  

/* API to write into Retention memory in hibernate domain */
void XMC_SCU_WriteToRetentionMemory(uint32_t address, uint32_t data)
{
 8000c30:	b480      	push	{r7}
 8000c32:	b085      	sub	sp, #20
 8000c34:	af00      	add	r7, sp, #0
 8000c36:	6078      	str	r0, [r7, #4]
 8000c38:	6039      	str	r1, [r7, #0]
  uint32_t rmacr;
  
  /* Get the address right */  
  rmacr = (uint32_t)((address << SCU_GENERAL_RMACR_ADDR_Pos) & (uint32_t)SCU_GENERAL_RMACR_ADDR_Msk);
 8000c3a:	687b      	ldr	r3, [r7, #4]
 8000c3c:	041b      	lsls	r3, r3, #16
 8000c3e:	f403 2370 	and.w	r3, r3, #983040	; 0xf0000
 8000c42:	60fb      	str	r3, [r7, #12]
  
  /* Transfer from RMDATA to Retention memory */
  rmacr |= (uint32_t)(SCU_GENERAL_RMACR_RDWR_Msk);
 8000c44:	68fb      	ldr	r3, [r7, #12]
 8000c46:	f043 0301 	orr.w	r3, r3, #1
 8000c4a:	60fb      	str	r3, [r7, #12]
  
  /* Write desired data into RMDATA register */  
  SCU_GENERAL->RMDATA = data;
 8000c4c:	4a0b      	ldr	r2, [pc, #44]	; (8000c7c <XMC_SCU_WriteToRetentionMemory+0x4c>)
 8000c4e:	683b      	ldr	r3, [r7, #0]
 8000c50:	f8c2 30cc 	str.w	r3, [r2, #204]	; 0xcc
  
  /* Write address & direction of transfer into RMACR register */  
  SCU_GENERAL->RMACR = rmacr;
 8000c54:	4a09      	ldr	r2, [pc, #36]	; (8000c7c <XMC_SCU_WriteToRetentionMemory+0x4c>)
 8000c56:	68fb      	ldr	r3, [r7, #12]
 8000c58:	f8c2 30c8 	str.w	r3, [r2, #200]	; 0xc8
  
  /* Wait until the update of RMX register in hibernate domain is completed */
  while((SCU_GENERAL->MIRRSTS) & SCU_GENERAL_MIRRSTS_RMX_Msk)
 8000c5c:	bf00      	nop
 8000c5e:	4b07      	ldr	r3, [pc, #28]	; (8000c7c <XMC_SCU_WriteToRetentionMemory+0x4c>)
 8000c60:	f8d3 30c4 	ldr.w	r3, [r3, #196]	; 0xc4
 8000c64:	f403 5300 	and.w	r3, r3, #8192	; 0x2000
 8000c68:	2b00      	cmp	r3, #0
 8000c6a:	d1f8      	bne.n	8000c5e <XMC_SCU_WriteToRetentionMemory+0x2e>
  {
  }
}
 8000c6c:	bf00      	nop
 8000c6e:	bf00      	nop
 8000c70:	3714      	adds	r7, #20
 8000c72:	46bd      	mov	sp, r7
 8000c74:	f85d 7b04 	ldr.w	r7, [sp], #4
 8000c78:	4770      	bx	lr
 8000c7a:	bf00      	nop
 8000c7c:	50004000 	.word	0x50004000

08000c80 <XMC_SCU_ReadFromRetentionMemory>:

/* API to read from Retention memory in hibernate domain */
uint32_t XMC_SCU_ReadFromRetentionMemory(uint32_t address)
{
 8000c80:	b480      	push	{r7}
 8000c82:	b085      	sub	sp, #20
 8000c84:	af00      	add	r7, sp, #0
 8000c86:	6078      	str	r0, [r7, #4]
  uint32_t rmacr;

  /* Get the address right */  
  rmacr = ((uint32_t)(address << SCU_GENERAL_RMACR_ADDR_Pos) & (uint32_t)SCU_GENERAL_RMACR_ADDR_Msk);
 8000c88:	687b      	ldr	r3, [r7, #4]
 8000c8a:	041b      	lsls	r3, r3, #16
 8000c8c:	f403 2370 	and.w	r3, r3, #983040	; 0xf0000
 8000c90:	60fb      	str	r3, [r7, #12]
  
  /* Transfer from RMDATA to Retention memory */
  rmacr &= ~((uint32_t)(SCU_GENERAL_RMACR_RDWR_Msk));
 8000c92:	68fb      	ldr	r3, [r7, #12]
 8000c94:	f023 0301 	bic.w	r3, r3, #1
 8000c98:	60fb      	str	r3, [r7, #12]
  
  /* Writing an adress & direction of transfer into RMACR register */  
  SCU_GENERAL->RMACR = rmacr;
 8000c9a:	4a0a      	ldr	r2, [pc, #40]	; (8000cc4 <XMC_SCU_ReadFromRetentionMemory+0x44>)
 8000c9c:	68fb      	ldr	r3, [r7, #12]
 8000c9e:	f8c2 30c8 	str.w	r3, [r2, #200]	; 0xc8
  
  /* Wait until the update of RMX register in hibernate domain is completed */
  while((SCU_GENERAL->MIRRSTS) & SCU_GENERAL_MIRRSTS_RMX_Msk)
 8000ca2:	bf00      	nop
 8000ca4:	4b07      	ldr	r3, [pc, #28]	; (8000cc4 <XMC_SCU_ReadFromRetentionMemory+0x44>)
 8000ca6:	f8d3 30c4 	ldr.w	r3, [r3, #196]	; 0xc4
 8000caa:	f403 5300 	and.w	r3, r3, #8192	; 0x2000
 8000cae:	2b00      	cmp	r3, #0
 8000cb0:	d1f8      	bne.n	8000ca4 <XMC_SCU_ReadFromRetentionMemory+0x24>
  {
  }

  return (SCU_GENERAL->RMDATA);
 8000cb2:	4b04      	ldr	r3, [pc, #16]	; (8000cc4 <XMC_SCU_ReadFromRetentionMemory+0x44>)
 8000cb4:	f8d3 30cc 	ldr.w	r3, [r3, #204]	; 0xcc
}
 8000cb8:	4618      	mov	r0, r3
 8000cba:	3714      	adds	r7, #20
 8000cbc:	46bd      	mov	sp, r7
 8000cbe:	f85d 7b04 	ldr.w	r7, [sp], #4
 8000cc2:	4770      	bx	lr
 8000cc4:	50004000 	.word	0x50004000

08000cc8 <XMC_SCU_CLOCK_Init>:

/* API to initialize the clock tree */
void XMC_SCU_CLOCK_Init(const XMC_SCU_CLOCK_CONFIG_t *const config)
{
 8000cc8:	b590      	push	{r4, r7, lr}
 8000cca:	b085      	sub	sp, #20
 8000ccc:	af02      	add	r7, sp, #8
 8000cce:	6078      	str	r0, [r7, #4]
  XMC_ASSERT("", ((config->fstdby_clksrc == XMC_SCU_HIB_STDBYCLKSRC_OSCULP) && (config->enable_osculp == true)) ||
                 (config->fstdby_clksrc != XMC_SCU_HIB_STDBYCLKSRC_OSCULP));
  XMC_ASSERT("", ((config->syspll_config.clksrc == XMC_SCU_CLOCK_SYSPLLCLKSRC_OSCHP) &&
                 (config->enable_oschp == true)) || (config->syspll_config.clksrc != XMC_SCU_CLOCK_SYSPLLCLKSRC_OSCHP));

  XMC_SCU_CLOCK_SetSystemClockSource(XMC_SCU_CLOCK_SYSCLKSRC_OFI);
 8000cd0:	2000      	movs	r0, #0
 8000cd2:	f000 faf1 	bl	80012b8 <XMC_SCU_CLOCK_SetSystemClockSource>

  XMC_SCU_HIB_EnableHibernateDomain();
 8000cd6:	f000 fd7f 	bl	80017d8 <XMC_SCU_HIB_EnableHibernateDomain>

  if (config->enable_osculp == true)
 8000cda:	687b      	ldr	r3, [r7, #4]
 8000cdc:	79db      	ldrb	r3, [r3, #7]
 8000cde:	2b00      	cmp	r3, #0
 8000ce0:	d00a      	beq.n	8000cf8 <XMC_SCU_CLOCK_Init+0x30>
  {
    XMC_SCU_CLOCK_EnableLowPowerOscillator();
 8000ce2:	f000 ff77 	bl	8001bd4 <XMC_SCU_CLOCK_EnableLowPowerOscillator>
    while (XMC_SCU_CLOCK_IsLowPowerOscillatorStable() == false);
 8000ce6:	bf00      	nop
 8000ce8:	f000 ff62 	bl	8001bb0 <XMC_SCU_CLOCK_IsLowPowerOscillatorStable>
 8000cec:	4603      	mov	r3, r0
 8000cee:	f083 0301 	eor.w	r3, r3, #1
 8000cf2:	b2db      	uxtb	r3, r3
 8000cf4:	2b00      	cmp	r3, #0
 8000cf6:	d1f7      	bne.n	8000ce8 <XMC_SCU_CLOCK_Init+0x20>
  }
  
  XMC_SCU_HIB_SetStandbyClockSource(config->fstdby_clksrc);  
 8000cf8:	687b      	ldr	r3, [r7, #4]
 8000cfa:	7a5b      	ldrb	r3, [r3, #9]
 8000cfc:	4618      	mov	r0, r3
 8000cfe:	f000 fb6f 	bl	80013e0 <XMC_SCU_HIB_SetStandbyClockSource>
  while (XMC_SCU_GetMirrorStatus() != 0)
 8000d02:	bf00      	nop
 8000d04:	f7ff fdd8 	bl	80008b8 <XMC_SCU_GetMirrorStatus>
 8000d08:	4603      	mov	r3, r0
 8000d0a:	2b00      	cmp	r3, #0
 8000d0c:	d1fa      	bne.n	8000d04 <XMC_SCU_CLOCK_Init+0x3c>
  {
    /* Wait until update of the stanby clock source is done in the HIB domain */    
  }

  XMC_SCU_CLOCK_SetBackupClockCalibrationMode(config->calibration_mode);
 8000d0e:	687b      	ldr	r3, [r7, #4]
 8000d10:	7a1b      	ldrb	r3, [r3, #8]
 8000d12:	4618      	mov	r0, r3
 8000d14:	f000 fd0c 	bl	8001730 <XMC_SCU_CLOCK_SetBackupClockCalibrationMode>

  XMC_SCU_CLOCK_SetSystemClockDivider((uint32_t)config->fsys_clkdiv);
 8000d18:	687b      	ldr	r3, [r7, #4]
 8000d1a:	7c1b      	ldrb	r3, [r3, #16]
 8000d1c:	4618      	mov	r0, r3
 8000d1e:	f000 fb7f 	bl	8001420 <XMC_SCU_CLOCK_SetSystemClockDivider>
  XMC_SCU_CLOCK_SetCpuClockDivider((uint32_t)config->fcpu_clkdiv);
 8000d22:	687b      	ldr	r3, [r7, #4]
 8000d24:	7c5b      	ldrb	r3, [r3, #17]
 8000d26:	4618      	mov	r0, r3
 8000d28:	f000 fba6 	bl	8001478 <XMC_SCU_CLOCK_SetCpuClockDivider>
  XMC_SCU_CLOCK_SetCcuClockDivider((uint32_t)config->fccu_clkdiv);
 8000d2c:	687b      	ldr	r3, [r7, #4]
 8000d2e:	7c9b      	ldrb	r3, [r3, #18]
 8000d30:	4618      	mov	r0, r3
 8000d32:	f000 fb8b 	bl	800144c <XMC_SCU_CLOCK_SetCcuClockDivider>
  XMC_SCU_CLOCK_SetPeripheralClockDivider((uint32_t)config->fperipheral_clkdiv);
 8000d36:	687b      	ldr	r3, [r7, #4]
 8000d38:	7cdb      	ldrb	r3, [r3, #19]
 8000d3a:	4618      	mov	r0, r3
 8000d3c:	f000 fbb2 	bl	80014a4 <XMC_SCU_CLOCK_SetPeripheralClockDivider>

  if (config->enable_oschp == true)
 8000d40:	687b      	ldr	r3, [r7, #4]
 8000d42:	799b      	ldrb	r3, [r3, #6]
 8000d44:	2b00      	cmp	r3, #0
 8000d46:	d00a      	beq.n	8000d5e <XMC_SCU_CLOCK_Init+0x96>
  {
    XMC_SCU_CLOCK_EnableHighPerformanceOscillator();
 8000d48:	f000 ffd8 	bl	8001cfc <XMC_SCU_CLOCK_EnableHighPerformanceOscillator>
    while(XMC_SCU_CLOCK_IsHighPerformanceOscillatorStable() == false);
 8000d4c:	bf00      	nop
 8000d4e:	f000 fffd 	bl	8001d4c <XMC_SCU_CLOCK_IsHighPerformanceOscillatorStable>
 8000d52:	4603      	mov	r3, r0
 8000d54:	f083 0301 	eor.w	r3, r3, #1
 8000d58:	b2db      	uxtb	r3, r3
 8000d5a:	2b00      	cmp	r3, #0
 8000d5c:	d1f7      	bne.n	8000d4e <XMC_SCU_CLOCK_Init+0x86>
  }

  if (config->syspll_config.mode == XMC_SCU_CLOCK_SYSPLL_MODE_DISABLED)
 8000d5e:	687b      	ldr	r3, [r7, #4]
 8000d60:	78db      	ldrb	r3, [r3, #3]
 8000d62:	2b00      	cmp	r3, #0
 8000d64:	d102      	bne.n	8000d6c <XMC_SCU_CLOCK_Init+0xa4>
  {
    XMC_SCU_CLOCK_DisableSystemPll();
 8000d66:	f001 f855 	bl	8001e14 <XMC_SCU_CLOCK_DisableSystemPll>
 8000d6a:	e011      	b.n	8000d90 <XMC_SCU_CLOCK_Init+0xc8>
  }
  else
  {

    XMC_SCU_CLOCK_EnableSystemPll();
 8000d6c:	f001 f840 	bl	8001df0 <XMC_SCU_CLOCK_EnableSystemPll>
    XMC_SCU_CLOCK_StartSystemPll(config->syspll_config.clksrc,
 8000d70:	687b      	ldr	r3, [r7, #4]
 8000d72:	8898      	ldrh	r0, [r3, #4]
 8000d74:	687b      	ldr	r3, [r7, #4]
 8000d76:	78d9      	ldrb	r1, [r3, #3]
                                 config->syspll_config.mode,
                                 (uint32_t)config->syspll_config.p_div,
 8000d78:	687b      	ldr	r3, [r7, #4]
 8000d7a:	785b      	ldrb	r3, [r3, #1]
    XMC_SCU_CLOCK_StartSystemPll(config->syspll_config.clksrc,
 8000d7c:	461a      	mov	r2, r3
                                 (uint32_t)config->syspll_config.n_div,
 8000d7e:	687b      	ldr	r3, [r7, #4]
 8000d80:	781b      	ldrb	r3, [r3, #0]
    XMC_SCU_CLOCK_StartSystemPll(config->syspll_config.clksrc,
 8000d82:	461c      	mov	r4, r3
                                 (uint32_t)config->syspll_config.k_div);
 8000d84:	687b      	ldr	r3, [r7, #4]
 8000d86:	789b      	ldrb	r3, [r3, #2]
    XMC_SCU_CLOCK_StartSystemPll(config->syspll_config.clksrc,
 8000d88:	9300      	str	r3, [sp, #0]
 8000d8a:	4623      	mov	r3, r4
 8000d8c:	f001 f854 	bl	8001e38 <XMC_SCU_CLOCK_StartSystemPll>
  }

  /* use SYSPLL? */
  if (config->fsys_clksrc == XMC_SCU_CLOCK_SYSCLKSRC_PLL)
 8000d90:	687b      	ldr	r3, [r7, #4]
 8000d92:	68db      	ldr	r3, [r3, #12]
 8000d94:	f5b3 3f80 	cmp.w	r3, #65536	; 0x10000
 8000d98:	d103      	bne.n	8000da2 <XMC_SCU_CLOCK_Init+0xda>
  {
    XMC_SCU_CLOCK_SetSystemClockSource(XMC_SCU_CLOCK_SYSCLKSRC_PLL);    
 8000d9a:	f44f 3080 	mov.w	r0, #65536	; 0x10000
 8000d9e:	f000 fa8b 	bl	80012b8 <XMC_SCU_CLOCK_SetSystemClockSource>
  }
  SystemCoreClockUpdate();
 8000da2:	f005 f953 	bl	800604c <SystemCoreClockUpdate>
}
 8000da6:	bf00      	nop
 8000da8:	370c      	adds	r7, #12
 8000daa:	46bd      	mov	sp, r7
 8000dac:	bd90      	pop	{r4, r7, pc}
	...

08000db0 <XMC_SCU_TRAP_Enable>:

/* API to enable a trap source */
void XMC_SCU_TRAP_Enable(const uint32_t trap)
{
 8000db0:	b480      	push	{r7}
 8000db2:	b083      	sub	sp, #12
 8000db4:	af00      	add	r7, sp, #0
 8000db6:	6078      	str	r0, [r7, #4]
  SCU_TRAP->TRAPDIS &= (uint32_t)~trap;
 8000db8:	4b06      	ldr	r3, [pc, #24]	; (8000dd4 <XMC_SCU_TRAP_Enable+0x24>)
 8000dba:	689a      	ldr	r2, [r3, #8]
 8000dbc:	687b      	ldr	r3, [r7, #4]
 8000dbe:	43db      	mvns	r3, r3
 8000dc0:	4904      	ldr	r1, [pc, #16]	; (8000dd4 <XMC_SCU_TRAP_Enable+0x24>)
 8000dc2:	4013      	ands	r3, r2
 8000dc4:	608b      	str	r3, [r1, #8]
}
 8000dc6:	bf00      	nop
 8000dc8:	370c      	adds	r7, #12
 8000dca:	46bd      	mov	sp, r7
 8000dcc:	f85d 7b04 	ldr.w	r7, [sp], #4
 8000dd0:	4770      	bx	lr
 8000dd2:	bf00      	nop
 8000dd4:	50004160 	.word	0x50004160

08000dd8 <XMC_SCU_TRAP_Disable>:

/* API to disable a trap source */
void XMC_SCU_TRAP_Disable(const uint32_t trap)
{
 8000dd8:	b480      	push	{r7}
 8000dda:	b083      	sub	sp, #12
 8000ddc:	af00      	add	r7, sp, #0
 8000dde:	6078      	str	r0, [r7, #4]
  SCU_TRAP->TRAPDIS |= (uint32_t)trap;
 8000de0:	4b05      	ldr	r3, [pc, #20]	; (8000df8 <XMC_SCU_TRAP_Disable+0x20>)
 8000de2:	689a      	ldr	r2, [r3, #8]
 8000de4:	4904      	ldr	r1, [pc, #16]	; (8000df8 <XMC_SCU_TRAP_Disable+0x20>)
 8000de6:	687b      	ldr	r3, [r7, #4]
 8000de8:	4313      	orrs	r3, r2
 8000dea:	608b      	str	r3, [r1, #8]
}
 8000dec:	bf00      	nop
 8000dee:	370c      	adds	r7, #12
 8000df0:	46bd      	mov	sp, r7
 8000df2:	f85d 7b04 	ldr.w	r7, [sp], #4
 8000df6:	4770      	bx	lr
 8000df8:	50004160 	.word	0x50004160

08000dfc <XMC_SCU_TRAP_GetStatus>:

/* API to determine if a trap source has generated event */
uint32_t XMC_SCU_TRAP_GetStatus(void)
{
 8000dfc:	b480      	push	{r7}
 8000dfe:	af00      	add	r7, sp, #0
  return (SCU_TRAP->TRAPRAW);
 8000e00:	4b03      	ldr	r3, [pc, #12]	; (8000e10 <XMC_SCU_TRAP_GetStatus+0x14>)
 8000e02:	685b      	ldr	r3, [r3, #4]
}
 8000e04:	4618      	mov	r0, r3
 8000e06:	46bd      	mov	sp, r7
 8000e08:	f85d 7b04 	ldr.w	r7, [sp], #4
 8000e0c:	4770      	bx	lr
 8000e0e:	bf00      	nop
 8000e10:	50004160 	.word	0x50004160

08000e14 <XMC_SCU_TRAP_Trigger>:

/* API to manually trigger a trap event */
void XMC_SCU_TRAP_Trigger(const uint32_t trap)
{
 8000e14:	b480      	push	{r7}
 8000e16:	b083      	sub	sp, #12
 8000e18:	af00      	add	r7, sp, #0
 8000e1a:	6078      	str	r0, [r7, #4]
  SCU_TRAP->TRAPSET = (uint32_t)trap;
 8000e1c:	4a04      	ldr	r2, [pc, #16]	; (8000e30 <XMC_SCU_TRAP_Trigger+0x1c>)
 8000e1e:	687b      	ldr	r3, [r7, #4]
 8000e20:	6113      	str	r3, [r2, #16]
}
 8000e22:	bf00      	nop
 8000e24:	370c      	adds	r7, #12
 8000e26:	46bd      	mov	sp, r7
 8000e28:	f85d 7b04 	ldr.w	r7, [sp], #4
 8000e2c:	4770      	bx	lr
 8000e2e:	bf00      	nop
 8000e30:	50004160 	.word	0x50004160

08000e34 <XMC_SCU_TRAP_ClearStatus>:

/* API to clear a trap event */
void XMC_SCU_TRAP_ClearStatus(const uint32_t trap)
{
 8000e34:	b480      	push	{r7}
 8000e36:	b083      	sub	sp, #12
 8000e38:	af00      	add	r7, sp, #0
 8000e3a:	6078      	str	r0, [r7, #4]
  SCU_TRAP->TRAPCLR = (uint32_t)trap;
 8000e3c:	4a04      	ldr	r2, [pc, #16]	; (8000e50 <XMC_SCU_TRAP_ClearStatus+0x1c>)
 8000e3e:	687b      	ldr	r3, [r7, #4]
 8000e40:	60d3      	str	r3, [r2, #12]
}
 8000e42:	bf00      	nop
 8000e44:	370c      	adds	r7, #12
 8000e46:	46bd      	mov	sp, r7
 8000e48:	f85d 7b04 	ldr.w	r7, [sp], #4
 8000e4c:	4770      	bx	lr
 8000e4e:	bf00      	nop
 8000e50:	50004160 	.word	0x50004160

08000e54 <XMC_SCU_PARITY_ClearStatus>:

/* API to clear parity error event */
void XMC_SCU_PARITY_ClearStatus(const uint32_t memory)
{
 8000e54:	b480      	push	{r7}
 8000e56:	b083      	sub	sp, #12
 8000e58:	af00      	add	r7, sp, #0
 8000e5a:	6078      	str	r0, [r7, #4]
  SCU_PARITY->PEFLAG |= (uint32_t)memory; 
 8000e5c:	4b05      	ldr	r3, [pc, #20]	; (8000e74 <XMC_SCU_PARITY_ClearStatus+0x20>)
 8000e5e:	695a      	ldr	r2, [r3, #20]
 8000e60:	4904      	ldr	r1, [pc, #16]	; (8000e74 <XMC_SCU_PARITY_ClearStatus+0x20>)
 8000e62:	687b      	ldr	r3, [r7, #4]
 8000e64:	4313      	orrs	r3, r2
 8000e66:	614b      	str	r3, [r1, #20]
}
 8000e68:	bf00      	nop
 8000e6a:	370c      	adds	r7, #12
 8000e6c:	46bd      	mov	sp, r7
 8000e6e:	f85d 7b04 	ldr.w	r7, [sp], #4
 8000e72:	4770      	bx	lr
 8000e74:	5000413c 	.word	0x5000413c

08000e78 <XMC_SCU_PARITY_GetStatus>:

/* API to determine if the specified parity error has occured or not */
uint32_t XMC_SCU_PARITY_GetStatus(void)
{
 8000e78:	b480      	push	{r7}
 8000e7a:	af00      	add	r7, sp, #0
  return (SCU_PARITY->PEFLAG);
 8000e7c:	4b03      	ldr	r3, [pc, #12]	; (8000e8c <XMC_SCU_PARITY_GetStatus+0x14>)
 8000e7e:	695b      	ldr	r3, [r3, #20]
} 
 8000e80:	4618      	mov	r0, r3
 8000e82:	46bd      	mov	sp, r7
 8000e84:	f85d 7b04 	ldr.w	r7, [sp], #4
 8000e88:	4770      	bx	lr
 8000e8a:	bf00      	nop
 8000e8c:	5000413c 	.word	0x5000413c

08000e90 <XMC_SCU_PARITY_Enable>:

/* API to enable parity error checking for the selected on-chip RAM type */
void XMC_SCU_PARITY_Enable(const uint32_t memory)
{
 8000e90:	b480      	push	{r7}
 8000e92:	b083      	sub	sp, #12
 8000e94:	af00      	add	r7, sp, #0
 8000e96:	6078      	str	r0, [r7, #4]
  SCU_PARITY->PEEN |= (uint32_t)memory; 
 8000e98:	4b05      	ldr	r3, [pc, #20]	; (8000eb0 <XMC_SCU_PARITY_Enable+0x20>)
 8000e9a:	681a      	ldr	r2, [r3, #0]
 8000e9c:	4904      	ldr	r1, [pc, #16]	; (8000eb0 <XMC_SCU_PARITY_Enable+0x20>)
 8000e9e:	687b      	ldr	r3, [r7, #4]
 8000ea0:	4313      	orrs	r3, r2
 8000ea2:	600b      	str	r3, [r1, #0]
}
 8000ea4:	bf00      	nop
 8000ea6:	370c      	adds	r7, #12
 8000ea8:	46bd      	mov	sp, r7
 8000eaa:	f85d 7b04 	ldr.w	r7, [sp], #4
 8000eae:	4770      	bx	lr
 8000eb0:	5000413c 	.word	0x5000413c

08000eb4 <XMC_SCU_PARITY_Disable>:

/* API to disable parity error checking for the selected on-chip RAM type */
void XMC_SCU_PARITY_Disable(const uint32_t memory)
{
 8000eb4:	b480      	push	{r7}
 8000eb6:	b083      	sub	sp, #12
 8000eb8:	af00      	add	r7, sp, #0
 8000eba:	6078      	str	r0, [r7, #4]
  SCU_PARITY->PEEN &= (uint32_t)~memory; 
 8000ebc:	4b06      	ldr	r3, [pc, #24]	; (8000ed8 <XMC_SCU_PARITY_Disable+0x24>)
 8000ebe:	681a      	ldr	r2, [r3, #0]
 8000ec0:	687b      	ldr	r3, [r7, #4]
 8000ec2:	43db      	mvns	r3, r3
 8000ec4:	4904      	ldr	r1, [pc, #16]	; (8000ed8 <XMC_SCU_PARITY_Disable+0x24>)
 8000ec6:	4013      	ands	r3, r2
 8000ec8:	600b      	str	r3, [r1, #0]
}
 8000eca:	bf00      	nop
 8000ecc:	370c      	adds	r7, #12
 8000ece:	46bd      	mov	sp, r7
 8000ed0:	f85d 7b04 	ldr.w	r7, [sp], #4
 8000ed4:	4770      	bx	lr
 8000ed6:	bf00      	nop
 8000ed8:	5000413c 	.word	0x5000413c

08000edc <XMC_SCU_PARITY_EnableTrapGeneration>:

/* API to enable trap assertion for the parity error source */
void XMC_SCU_PARITY_EnableTrapGeneration(const uint32_t memory)
{
 8000edc:	b480      	push	{r7}
 8000ede:	b083      	sub	sp, #12
 8000ee0:	af00      	add	r7, sp, #0
 8000ee2:	6078      	str	r0, [r7, #4]
  SCU_PARITY->PETE |= (uint32_t)memory; 
 8000ee4:	4b05      	ldr	r3, [pc, #20]	; (8000efc <XMC_SCU_PARITY_EnableTrapGeneration+0x20>)
 8000ee6:	689a      	ldr	r2, [r3, #8]
 8000ee8:	4904      	ldr	r1, [pc, #16]	; (8000efc <XMC_SCU_PARITY_EnableTrapGeneration+0x20>)
 8000eea:	687b      	ldr	r3, [r7, #4]
 8000eec:	4313      	orrs	r3, r2
 8000eee:	608b      	str	r3, [r1, #8]
}
 8000ef0:	bf00      	nop
 8000ef2:	370c      	adds	r7, #12
 8000ef4:	46bd      	mov	sp, r7
 8000ef6:	f85d 7b04 	ldr.w	r7, [sp], #4
 8000efa:	4770      	bx	lr
 8000efc:	5000413c 	.word	0x5000413c

08000f00 <XMC_SCU_PARITY_DisableTrapGeneration>:

/* API to disable the assertion of trap for the parity error source */
void XMC_SCU_PARITY_DisableTrapGeneration(const uint32_t memory)
{
 8000f00:	b480      	push	{r7}
 8000f02:	b083      	sub	sp, #12
 8000f04:	af00      	add	r7, sp, #0
 8000f06:	6078      	str	r0, [r7, #4]
  SCU_PARITY->PETE &= (uint32_t)~memory; 
 8000f08:	4b06      	ldr	r3, [pc, #24]	; (8000f24 <XMC_SCU_PARITY_DisableTrapGeneration+0x24>)
 8000f0a:	689a      	ldr	r2, [r3, #8]
 8000f0c:	687b      	ldr	r3, [r7, #4]
 8000f0e:	43db      	mvns	r3, r3
 8000f10:	4904      	ldr	r1, [pc, #16]	; (8000f24 <XMC_SCU_PARITY_DisableTrapGeneration+0x24>)
 8000f12:	4013      	ands	r3, r2
 8000f14:	608b      	str	r3, [r1, #8]
}
 8000f16:	bf00      	nop
 8000f18:	370c      	adds	r7, #12
 8000f1a:	46bd      	mov	sp, r7
 8000f1c:	f85d 7b04 	ldr.w	r7, [sp], #4
 8000f20:	4770      	bx	lr
 8000f22:	bf00      	nop
 8000f24:	5000413c 	.word	0x5000413c

08000f28 <XMC_SCU_INTERRUPT_EnableNmiRequest>:

/* Enables a NMI source */
void XMC_SCU_INTERRUPT_EnableNmiRequest(const uint32_t request)
{
 8000f28:	b480      	push	{r7}
 8000f2a:	b083      	sub	sp, #12
 8000f2c:	af00      	add	r7, sp, #0
 8000f2e:	6078      	str	r0, [r7, #4]
  SCU_INTERRUPT->NMIREQEN |= (uint32_t)request;
 8000f30:	4b05      	ldr	r3, [pc, #20]	; (8000f48 <XMC_SCU_INTERRUPT_EnableNmiRequest+0x20>)
 8000f32:	695a      	ldr	r2, [r3, #20]
 8000f34:	4904      	ldr	r1, [pc, #16]	; (8000f48 <XMC_SCU_INTERRUPT_EnableNmiRequest+0x20>)
 8000f36:	687b      	ldr	r3, [r7, #4]
 8000f38:	4313      	orrs	r3, r2
 8000f3a:	614b      	str	r3, [r1, #20]
}
 8000f3c:	bf00      	nop
 8000f3e:	370c      	adds	r7, #12
 8000f40:	46bd      	mov	sp, r7
 8000f42:	f85d 7b04 	ldr.w	r7, [sp], #4
 8000f46:	4770      	bx	lr
 8000f48:	50004074 	.word	0x50004074

08000f4c <XMC_SCU_INTERRUPT_DisableNmiRequest>:

/* Disables a NMI source */
void XMC_SCU_INTERRUPT_DisableNmiRequest(const uint32_t request)
{
 8000f4c:	b480      	push	{r7}
 8000f4e:	b083      	sub	sp, #12
 8000f50:	af00      	add	r7, sp, #0
 8000f52:	6078      	str	r0, [r7, #4]
  SCU_INTERRUPT->NMIREQEN &= (uint32_t)~request;
 8000f54:	4b06      	ldr	r3, [pc, #24]	; (8000f70 <XMC_SCU_INTERRUPT_DisableNmiRequest+0x24>)
 8000f56:	695a      	ldr	r2, [r3, #20]
 8000f58:	687b      	ldr	r3, [r7, #4]
 8000f5a:	43db      	mvns	r3, r3
 8000f5c:	4904      	ldr	r1, [pc, #16]	; (8000f70 <XMC_SCU_INTERRUPT_DisableNmiRequest+0x24>)
 8000f5e:	4013      	ands	r3, r2
 8000f60:	614b      	str	r3, [r1, #20]
}
 8000f62:	bf00      	nop
 8000f64:	370c      	adds	r7, #12
 8000f66:	46bd      	mov	sp, r7
 8000f68:	f85d 7b04 	ldr.w	r7, [sp], #4
 8000f6c:	4770      	bx	lr
 8000f6e:	bf00      	nop
 8000f70:	50004074 	.word	0x50004074

08000f74 <XMC_SCU_RESET_AssertPeripheralReset>:

/* API to manually assert a reset request */
void XMC_SCU_RESET_AssertPeripheralReset(const XMC_SCU_PERIPHERAL_RESET_t peripheral)
{
 8000f74:	b480      	push	{r7}
 8000f76:	b085      	sub	sp, #20
 8000f78:	af00      	add	r7, sp, #0
 8000f7a:	6078      	str	r0, [r7, #4]
  uint32_t index = (uint32_t)((((uint32_t)peripheral) & 0xf0000000UL) >> 28UL);
 8000f7c:	687b      	ldr	r3, [r7, #4]
 8000f7e:	0f1b      	lsrs	r3, r3, #28
 8000f80:	60fb      	str	r3, [r7, #12]
  uint32_t mask = (((uint32_t)peripheral) & ((uint32_t)~0xf0000000UL));
 8000f82:	687b      	ldr	r3, [r7, #4]
 8000f84:	f023 4370 	bic.w	r3, r3, #4026531840	; 0xf0000000
 8000f88:	60bb      	str	r3, [r7, #8]

  *(uint32_t *)(&(SCU_RESET->PRSET0) + (index * 3U)) = (uint32_t)mask;
 8000f8a:	68fa      	ldr	r2, [r7, #12]
 8000f8c:	4613      	mov	r3, r2
 8000f8e:	005b      	lsls	r3, r3, #1
 8000f90:	4413      	add	r3, r2
 8000f92:	009b      	lsls	r3, r3, #2
 8000f94:	461a      	mov	r2, r3
 8000f96:	4b05      	ldr	r3, [pc, #20]	; (8000fac <XMC_SCU_RESET_AssertPeripheralReset+0x38>)
 8000f98:	4413      	add	r3, r2
 8000f9a:	68ba      	ldr	r2, [r7, #8]
 8000f9c:	601a      	str	r2, [r3, #0]
}
 8000f9e:	bf00      	nop
 8000fa0:	3714      	adds	r7, #20
 8000fa2:	46bd      	mov	sp, r7
 8000fa4:	f85d 7b04 	ldr.w	r7, [sp], #4
 8000fa8:	4770      	bx	lr
 8000faa:	bf00      	nop
 8000fac:	50004410 	.word	0x50004410

08000fb0 <XMC_SCU_RESET_DeassertPeripheralReset>:

/* API to manually de-assert a reset request */
void XMC_SCU_RESET_DeassertPeripheralReset(const XMC_SCU_PERIPHERAL_RESET_t peripheral)
{
 8000fb0:	b480      	push	{r7}
 8000fb2:	b085      	sub	sp, #20
 8000fb4:	af00      	add	r7, sp, #0
 8000fb6:	6078      	str	r0, [r7, #4]
  uint32_t index = (uint32_t)((((uint32_t)peripheral) & 0xf0000000UL) >> 28UL);
 8000fb8:	687b      	ldr	r3, [r7, #4]
 8000fba:	0f1b      	lsrs	r3, r3, #28
 8000fbc:	60fb      	str	r3, [r7, #12]
  uint32_t mask = (((uint32_t)peripheral) & ((uint32_t)~0xf0000000UL));
 8000fbe:	687b      	ldr	r3, [r7, #4]
 8000fc0:	f023 4370 	bic.w	r3, r3, #4026531840	; 0xf0000000
 8000fc4:	60bb      	str	r3, [r7, #8]

  *(uint32_t *)(&(SCU_RESET->PRCLR0) + (index * 3U)) = (uint32_t)mask;
 8000fc6:	68fa      	ldr	r2, [r7, #12]
 8000fc8:	4613      	mov	r3, r2
 8000fca:	005b      	lsls	r3, r3, #1
 8000fcc:	4413      	add	r3, r2
 8000fce:	009b      	lsls	r3, r3, #2
 8000fd0:	461a      	mov	r2, r3
 8000fd2:	4b05      	ldr	r3, [pc, #20]	; (8000fe8 <XMC_SCU_RESET_DeassertPeripheralReset+0x38>)
 8000fd4:	4413      	add	r3, r2
 8000fd6:	68ba      	ldr	r2, [r7, #8]
 8000fd8:	601a      	str	r2, [r3, #0]
}
 8000fda:	bf00      	nop
 8000fdc:	3714      	adds	r7, #20
 8000fde:	46bd      	mov	sp, r7
 8000fe0:	f85d 7b04 	ldr.w	r7, [sp], #4
 8000fe4:	4770      	bx	lr
 8000fe6:	bf00      	nop
 8000fe8:	50004414 	.word	0x50004414

08000fec <XMC_SCU_RESET_IsPeripheralResetAsserted>:

/* Find out if the peripheral reset is asserted */
bool XMC_SCU_RESET_IsPeripheralResetAsserted(const XMC_SCU_PERIPHERAL_RESET_t peripheral)
{
 8000fec:	b480      	push	{r7}
 8000fee:	b085      	sub	sp, #20
 8000ff0:	af00      	add	r7, sp, #0
 8000ff2:	6078      	str	r0, [r7, #4]
  uint32_t index = (uint32_t)((((uint32_t)peripheral) & 0xf0000000UL) >> 28UL);
 8000ff4:	687b      	ldr	r3, [r7, #4]
 8000ff6:	0f1b      	lsrs	r3, r3, #28
 8000ff8:	60fb      	str	r3, [r7, #12]
  uint32_t mask = (((uint32_t)peripheral) & ((uint32_t)~0xf0000000UL));
 8000ffa:	687b      	ldr	r3, [r7, #4]
 8000ffc:	f023 4370 	bic.w	r3, r3, #4026531840	; 0xf0000000
 8001000:	60bb      	str	r3, [r7, #8]

  return ((*(uint32_t *)(&(SCU_RESET->PRSTAT0) + (index * 3U)) & mask) != 0U);
 8001002:	68fa      	ldr	r2, [r7, #12]
 8001004:	4613      	mov	r3, r2
 8001006:	005b      	lsls	r3, r3, #1
 8001008:	4413      	add	r3, r2
 800100a:	009b      	lsls	r3, r3, #2
 800100c:	461a      	mov	r2, r3
 800100e:	4b08      	ldr	r3, [pc, #32]	; (8001030 <XMC_SCU_RESET_IsPeripheralResetAsserted+0x44>)
 8001010:	4413      	add	r3, r2
 8001012:	681a      	ldr	r2, [r3, #0]
 8001014:	68bb      	ldr	r3, [r7, #8]
 8001016:	4013      	ands	r3, r2
 8001018:	2b00      	cmp	r3, #0
 800101a:	bf14      	ite	ne
 800101c:	2301      	movne	r3, #1
 800101e:	2300      	moveq	r3, #0
 8001020:	b2db      	uxtb	r3, r3
}
 8001022:	4618      	mov	r0, r3
 8001024:	3714      	adds	r7, #20
 8001026:	46bd      	mov	sp, r7
 8001028:	f85d 7b04 	ldr.w	r7, [sp], #4
 800102c:	4770      	bx	lr
 800102e:	bf00      	nop
 8001030:	5000440c 	.word	0x5000440c

08001034 <XMC_SCU_CLOCK_GetSystemPllClockFrequency>:

/*
 * API to retrieve frequency of System PLL output clock
 */
uint32_t XMC_SCU_CLOCK_GetSystemPllClockFrequency(void)
{
 8001034:	b580      	push	{r7, lr}
 8001036:	b084      	sub	sp, #16
 8001038:	af00      	add	r7, sp, #0
  uint32_t clock_frequency;
  uint32_t p_div;
  uint32_t n_div;
  uint32_t k2_div;

  clock_frequency = XMC_SCU_CLOCK_GetSystemPllClockSourceFrequency();
 800103a:	f000 f839 	bl	80010b0 <XMC_SCU_CLOCK_GetSystemPllClockSourceFrequency>
 800103e:	60f8      	str	r0, [r7, #12]
  if(SCU_PLL->PLLSTAT & SCU_PLL_PLLSTAT_VCOBYST_Msk)
 8001040:	4b1a      	ldr	r3, [pc, #104]	; (80010ac <XMC_SCU_CLOCK_GetSystemPllClockFrequency+0x78>)
 8001042:	681b      	ldr	r3, [r3, #0]
 8001044:	f003 0301 	and.w	r3, r3, #1
 8001048:	2b00      	cmp	r3, #0
 800104a:	d009      	beq.n	8001060 <XMC_SCU_CLOCK_GetSystemPllClockFrequency+0x2c>
  {
    /* Prescalar mode - fOSC is the parent*/
    clock_frequency = (uint32_t)(clock_frequency / 
                      ((((SCU_PLL->PLLCON1) & SCU_PLL_PLLCON1_K1DIV_Msk) >> SCU_PLL_PLLCON1_K1DIV_Pos) + 1UL));
 800104c:	4b17      	ldr	r3, [pc, #92]	; (80010ac <XMC_SCU_CLOCK_GetSystemPllClockFrequency+0x78>)
 800104e:	689b      	ldr	r3, [r3, #8]
 8001050:	f003 037f 	and.w	r3, r3, #127	; 0x7f
 8001054:	3301      	adds	r3, #1
    clock_frequency = (uint32_t)(clock_frequency / 
 8001056:	68fa      	ldr	r2, [r7, #12]
 8001058:	fbb2 f3f3 	udiv	r3, r2, r3
 800105c:	60fb      	str	r3, [r7, #12]
 800105e:	e01f      	b.n	80010a0 <XMC_SCU_CLOCK_GetSystemPllClockFrequency+0x6c>
  }
  else
  {
    p_div  = (uint32_t)((((SCU_PLL->PLLCON1) & SCU_PLL_PLLCON1_PDIV_Msk) >> SCU_PLL_PLLCON1_PDIV_Pos) + 1UL);
 8001060:	4b12      	ldr	r3, [pc, #72]	; (80010ac <XMC_SCU_CLOCK_GetSystemPllClockFrequency+0x78>)
 8001062:	689b      	ldr	r3, [r3, #8]
 8001064:	0e1b      	lsrs	r3, r3, #24
 8001066:	f003 030f 	and.w	r3, r3, #15
 800106a:	3301      	adds	r3, #1
 800106c:	60bb      	str	r3, [r7, #8]
    n_div  = (uint32_t)((((SCU_PLL->PLLCON1) & SCU_PLL_PLLCON1_NDIV_Msk) >> SCU_PLL_PLLCON1_NDIV_Pos) + 1UL);
 800106e:	4b0f      	ldr	r3, [pc, #60]	; (80010ac <XMC_SCU_CLOCK_GetSystemPllClockFrequency+0x78>)
 8001070:	689b      	ldr	r3, [r3, #8]
 8001072:	0a1b      	lsrs	r3, r3, #8
 8001074:	f003 037f 	and.w	r3, r3, #127	; 0x7f
 8001078:	3301      	adds	r3, #1
 800107a:	607b      	str	r3, [r7, #4]
    k2_div = (uint32_t)((((SCU_PLL->PLLCON1) & SCU_PLL_PLLCON1_K2DIV_Msk) >> SCU_PLL_PLLCON1_K2DIV_Pos) + 1UL);
 800107c:	4b0b      	ldr	r3, [pc, #44]	; (80010ac <XMC_SCU_CLOCK_GetSystemPllClockFrequency+0x78>)
 800107e:	689b      	ldr	r3, [r3, #8]
 8001080:	0c1b      	lsrs	r3, r3, #16
 8001082:	f003 037f 	and.w	r3, r3, #127	; 0x7f
 8001086:	3301      	adds	r3, #1
 8001088:	603b      	str	r3, [r7, #0]
       
    clock_frequency = (clock_frequency * n_div) / (p_div * k2_div);
 800108a:	68fb      	ldr	r3, [r7, #12]
 800108c:	687a      	ldr	r2, [r7, #4]
 800108e:	fb03 f202 	mul.w	r2, r3, r2
 8001092:	68bb      	ldr	r3, [r7, #8]
 8001094:	6839      	ldr	r1, [r7, #0]
 8001096:	fb01 f303 	mul.w	r3, r1, r3
 800109a:	fbb2 f3f3 	udiv	r3, r2, r3
 800109e:	60fb      	str	r3, [r7, #12]
  }

  return (clock_frequency);
 80010a0:	68fb      	ldr	r3, [r7, #12]
}
 80010a2:	4618      	mov	r0, r3
 80010a4:	3710      	adds	r7, #16
 80010a6:	46bd      	mov	sp, r7
 80010a8:	bd80      	pop	{r7, pc}
 80010aa:	bf00      	nop
 80010ac:	50004710 	.word	0x50004710

080010b0 <XMC_SCU_CLOCK_GetSystemPllClockSourceFrequency>:

/**
 * API to retrieve frequency of System PLL VCO input clock
 */
uint32_t XMC_SCU_CLOCK_GetSystemPllClockSourceFrequency(void)
{
 80010b0:	b580      	push	{r7, lr}
 80010b2:	b082      	sub	sp, #8
 80010b4:	af00      	add	r7, sp, #0
  uint32_t clock_frequency;

  /* Prescalar mode - fOSC is the parent*/
  if((SCU_PLL->PLLCON2 & SCU_PLL_PLLCON2_PINSEL_Msk) == (uint32_t)XMC_SCU_CLOCK_SYSPLLCLKSRC_OSCHP)
 80010b6:	4b08      	ldr	r3, [pc, #32]	; (80010d8 <XMC_SCU_CLOCK_GetSystemPllClockSourceFrequency+0x28>)
 80010b8:	68db      	ldr	r3, [r3, #12]
 80010ba:	f003 0301 	and.w	r3, r3, #1
 80010be:	2b00      	cmp	r3, #0
 80010c0:	d103      	bne.n	80010ca <XMC_SCU_CLOCK_GetSystemPllClockSourceFrequency+0x1a>
  {
    clock_frequency = OSCHP_GetFrequency();
 80010c2:	f005 f82d 	bl	8006120 <OSCHP_GetFrequency>
 80010c6:	6078      	str	r0, [r7, #4]
 80010c8:	e001      	b.n	80010ce <XMC_SCU_CLOCK_GetSystemPllClockSourceFrequency+0x1e>
  }
  else
  {
    clock_frequency = OFI_FREQUENCY;
 80010ca:	4b04      	ldr	r3, [pc, #16]	; (80010dc <XMC_SCU_CLOCK_GetSystemPllClockSourceFrequency+0x2c>)
 80010cc:	607b      	str	r3, [r7, #4]
  }
  
  return (clock_frequency);
 80010ce:	687b      	ldr	r3, [r7, #4]
}
 80010d0:	4618      	mov	r0, r3
 80010d2:	3708      	adds	r7, #8
 80010d4:	46bd      	mov	sp, r7
 80010d6:	bd80      	pop	{r7, pc}
 80010d8:	50004710 	.word	0x50004710
 80010dc:	016e3600 	.word	0x016e3600

080010e0 <XMC_SCU_CLOCK_GetUsbPllClockFrequency>:

/*
 * API to retrieve frequency of USB PLL output clock
 */
uint32_t XMC_SCU_CLOCK_GetUsbPllClockFrequency(void)
{
 80010e0:	b580      	push	{r7, lr}
 80010e2:	b084      	sub	sp, #16
 80010e4:	af00      	add	r7, sp, #0
  uint32_t clock_frequency;
  uint32_t n_div;
  uint32_t p_div;
  
  clock_frequency = OSCHP_GetFrequency();
 80010e6:	f005 f81b 	bl	8006120 <OSCHP_GetFrequency>
 80010ea:	60f8      	str	r0, [r7, #12]
  if((SCU_PLL->USBPLLSTAT & SCU_PLL_USBPLLSTAT_VCOBYST_Msk) == 0U)
 80010ec:	4b10      	ldr	r3, [pc, #64]	; (8001130 <XMC_SCU_CLOCK_GetUsbPllClockFrequency+0x50>)
 80010ee:	691b      	ldr	r3, [r3, #16]
 80010f0:	f003 0301 	and.w	r3, r3, #1
 80010f4:	2b00      	cmp	r3, #0
 80010f6:	d116      	bne.n	8001126 <XMC_SCU_CLOCK_GetUsbPllClockFrequency+0x46>
  {
    /* Normal mode - fVCO is the parent*/
    n_div = (uint32_t)((((SCU_PLL->USBPLLCON) & SCU_PLL_USBPLLCON_NDIV_Msk) >> SCU_PLL_USBPLLCON_NDIV_Pos) + 1UL);
 80010f8:	4b0d      	ldr	r3, [pc, #52]	; (8001130 <XMC_SCU_CLOCK_GetUsbPllClockFrequency+0x50>)
 80010fa:	695b      	ldr	r3, [r3, #20]
 80010fc:	0a1b      	lsrs	r3, r3, #8
 80010fe:	f003 037f 	and.w	r3, r3, #127	; 0x7f
 8001102:	3301      	adds	r3, #1
 8001104:	60bb      	str	r3, [r7, #8]
    p_div = (uint32_t)((((SCU_PLL->USBPLLCON) & SCU_PLL_USBPLLCON_PDIV_Msk) >> SCU_PLL_USBPLLCON_PDIV_Pos) + 1UL);
 8001106:	4b0a      	ldr	r3, [pc, #40]	; (8001130 <XMC_SCU_CLOCK_GetUsbPllClockFrequency+0x50>)
 8001108:	695b      	ldr	r3, [r3, #20]
 800110a:	0e1b      	lsrs	r3, r3, #24
 800110c:	f003 030f 	and.w	r3, r3, #15
 8001110:	3301      	adds	r3, #1
 8001112:	607b      	str	r3, [r7, #4]
    clock_frequency = (uint32_t)((clock_frequency * n_div)/ (uint32_t)(p_div * 2UL));
 8001114:	68fb      	ldr	r3, [r7, #12]
 8001116:	68ba      	ldr	r2, [r7, #8]
 8001118:	fb03 f202 	mul.w	r2, r3, r2
 800111c:	687b      	ldr	r3, [r7, #4]
 800111e:	005b      	lsls	r3, r3, #1
 8001120:	fbb2 f3f3 	udiv	r3, r2, r3
 8001124:	60fb      	str	r3, [r7, #12]
  }
  return (clock_frequency);
 8001126:	68fb      	ldr	r3, [r7, #12]
}
 8001128:	4618      	mov	r0, r3
 800112a:	3710      	adds	r7, #16
 800112c:	46bd      	mov	sp, r7
 800112e:	bd80      	pop	{r7, pc}
 8001130:	50004710 	.word	0x50004710

08001134 <XMC_SCU_CLOCK_GetCcuClockFrequency>:

/*
 * API to retrieve frequency of CCU clock frequency
 */
uint32_t XMC_SCU_CLOCK_GetCcuClockFrequency(void)
{
 8001134:	b580      	push	{r7, lr}
 8001136:	b082      	sub	sp, #8
 8001138:	af00      	add	r7, sp, #0
  uint32_t frequency = 0UL;
 800113a:	2300      	movs	r3, #0
 800113c:	607b      	str	r3, [r7, #4]
  frequency = XMC_SCU_CLOCK_GetSystemClockFrequency();
 800113e:	f7ff fb9b 	bl	8000878 <XMC_SCU_CLOCK_GetSystemClockFrequency>
 8001142:	6078      	str	r0, [r7, #4]
  
  return (uint32_t)(frequency >> ((uint32_t)((SCU_CLK->CCUCLKCR & SCU_CLK_CCUCLKCR_CCUDIV_Msk) >>
 8001144:	4b05      	ldr	r3, [pc, #20]	; (800115c <XMC_SCU_CLOCK_GetCcuClockFrequency+0x28>)
 8001146:	6a1b      	ldr	r3, [r3, #32]
 8001148:	f003 0301 	and.w	r3, r3, #1
 800114c:	687a      	ldr	r2, [r7, #4]
 800114e:	fa22 f303 	lsr.w	r3, r2, r3
                                              SCU_CLK_CCUCLKCR_CCUDIV_Pos)));
}
 8001152:	4618      	mov	r0, r3
 8001154:	3708      	adds	r7, #8
 8001156:	46bd      	mov	sp, r7
 8001158:	bd80      	pop	{r7, pc}
 800115a:	bf00      	nop
 800115c:	50004600 	.word	0x50004600

08001160 <XMC_SCU_CLOCK_GetUsbClockFrequency>:

/*
 * API to retrieve USB and SDMMC clock frequency
 */
uint32_t XMC_SCU_CLOCK_GetUsbClockFrequency(void)
{
 8001160:	b580      	push	{r7, lr}
 8001162:	b082      	sub	sp, #8
 8001164:	af00      	add	r7, sp, #0
  uint32_t frequency = 0UL;
 8001166:	2300      	movs	r3, #0
 8001168:	607b      	str	r3, [r7, #4]
  XMC_SCU_CLOCK_USBCLKSRC_t clksrc;

  clksrc = XMC_SCU_CLOCK_GetUsbClockSource();
 800116a:	f7ff fb59 	bl	8000820 <XMC_SCU_CLOCK_GetUsbClockSource>
 800116e:	6038      	str	r0, [r7, #0]

  if (clksrc == XMC_SCU_CLOCK_USBCLKSRC_SYSPLL)
 8001170:	683b      	ldr	r3, [r7, #0]
 8001172:	f5b3 3f80 	cmp.w	r3, #65536	; 0x10000
 8001176:	d103      	bne.n	8001180 <XMC_SCU_CLOCK_GetUsbClockFrequency+0x20>
  {
    frequency = XMC_SCU_CLOCK_GetSystemPllClockFrequency();
 8001178:	f7ff ff5c 	bl	8001034 <XMC_SCU_CLOCK_GetSystemPllClockFrequency>
 800117c:	6078      	str	r0, [r7, #4]
 800117e:	e005      	b.n	800118c <XMC_SCU_CLOCK_GetUsbClockFrequency+0x2c>
  }
  else if (clksrc == XMC_SCU_CLOCK_USBCLKSRC_USBPLL)
 8001180:	683b      	ldr	r3, [r7, #0]
 8001182:	2b00      	cmp	r3, #0
 8001184:	d102      	bne.n	800118c <XMC_SCU_CLOCK_GetUsbClockFrequency+0x2c>
  {
    frequency = XMC_SCU_CLOCK_GetUsbPllClockFrequency();
 8001186:	f7ff ffab 	bl	80010e0 <XMC_SCU_CLOCK_GetUsbPllClockFrequency>
 800118a:	6078      	str	r0, [r7, #4]
  }
  else
  {
  }

  return (uint32_t)(frequency / (((SCU_CLK->USBCLKCR & SCU_CLK_USBCLKCR_USBDIV_Msk) >>
 800118c:	4b05      	ldr	r3, [pc, #20]	; (80011a4 <XMC_SCU_CLOCK_GetUsbClockFrequency+0x44>)
 800118e:	699b      	ldr	r3, [r3, #24]
 8001190:	f003 0307 	and.w	r3, r3, #7
                                   SCU_CLK_USBCLKCR_USBDIV_Pos) + 1UL));
 8001194:	3301      	adds	r3, #1
  return (uint32_t)(frequency / (((SCU_CLK->USBCLKCR & SCU_CLK_USBCLKCR_USBDIV_Msk) >>
 8001196:	687a      	ldr	r2, [r7, #4]
 8001198:	fbb2 f3f3 	udiv	r3, r2, r3
}
 800119c:	4618      	mov	r0, r3
 800119e:	3708      	adds	r7, #8
 80011a0:	46bd      	mov	sp, r7
 80011a2:	bd80      	pop	{r7, pc}
 80011a4:	50004600 	.word	0x50004600

080011a8 <XMC_SCU_CLOCK_GetEbuClockFrequency>:
#if defined(EBU)
/*
 * API to retrieve EBU clock frequency
 */
uint32_t XMC_SCU_CLOCK_GetEbuClockFrequency(void)
{
 80011a8:	b580      	push	{r7, lr}
 80011aa:	b082      	sub	sp, #8
 80011ac:	af00      	add	r7, sp, #0
  uint32_t frequency = XMC_SCU_CLOCK_GetSystemPllClockFrequency();
 80011ae:	f7ff ff41 	bl	8001034 <XMC_SCU_CLOCK_GetSystemPllClockFrequency>
 80011b2:	6078      	str	r0, [r7, #4]
  
  return (uint32_t)((frequency /(((SCU_CLK->EBUCLKCR & SCU_CLK_EBUCLKCR_EBUDIV_Msk) >>
 80011b4:	4b05      	ldr	r3, [pc, #20]	; (80011cc <XMC_SCU_CLOCK_GetEbuClockFrequency+0x24>)
 80011b6:	69db      	ldr	r3, [r3, #28]
 80011b8:	f003 033f 	and.w	r3, r3, #63	; 0x3f
                                   SCU_CLK_EBUCLKCR_EBUDIV_Pos) + 1UL)));
 80011bc:	3301      	adds	r3, #1
  return (uint32_t)((frequency /(((SCU_CLK->EBUCLKCR & SCU_CLK_EBUCLKCR_EBUDIV_Msk) >>
 80011be:	687a      	ldr	r2, [r7, #4]
 80011c0:	fbb2 f3f3 	udiv	r3, r2, r3
}
 80011c4:	4618      	mov	r0, r3
 80011c6:	3708      	adds	r7, #8
 80011c8:	46bd      	mov	sp, r7
 80011ca:	bd80      	pop	{r7, pc}
 80011cc:	50004600 	.word	0x50004600

080011d0 <XMC_SCU_CLOCK_GetWdtClockFrequency>:

/*
 * API to retrieve WDT clock frequency
 */
uint32_t XMC_SCU_CLOCK_GetWdtClockFrequency(void)
{
 80011d0:	b580      	push	{r7, lr}
 80011d2:	b082      	sub	sp, #8
 80011d4:	af00      	add	r7, sp, #0
  uint32_t frequency = 0UL;
 80011d6:	2300      	movs	r3, #0
 80011d8:	607b      	str	r3, [r7, #4]
  XMC_SCU_CLOCK_WDTCLKSRC_t clksrc;

  clksrc = XMC_SCU_CLOCK_GetWdtClockSource();
 80011da:	f7ff fb2f 	bl	800083c <XMC_SCU_CLOCK_GetWdtClockSource>
 80011de:	6038      	str	r0, [r7, #0]

  if (clksrc == XMC_SCU_CLOCK_WDTCLKSRC_PLL)
 80011e0:	683b      	ldr	r3, [r7, #0]
 80011e2:	f5b3 3f00 	cmp.w	r3, #131072	; 0x20000
 80011e6:	d103      	bne.n	80011f0 <XMC_SCU_CLOCK_GetWdtClockFrequency+0x20>
  {
    frequency = XMC_SCU_CLOCK_GetSystemPllClockFrequency();
 80011e8:	f7ff ff24 	bl	8001034 <XMC_SCU_CLOCK_GetSystemPllClockFrequency>
 80011ec:	6078      	str	r0, [r7, #4]
 80011ee:	e00c      	b.n	800120a <XMC_SCU_CLOCK_GetWdtClockFrequency+0x3a>
  }
  else if (clksrc == XMC_SCU_CLOCK_WDTCLKSRC_OFI)
 80011f0:	683b      	ldr	r3, [r7, #0]
 80011f2:	2b00      	cmp	r3, #0
 80011f4:	d102      	bne.n	80011fc <XMC_SCU_CLOCK_GetWdtClockFrequency+0x2c>
  {
    frequency = OFI_FREQUENCY;
 80011f6:	4b0a      	ldr	r3, [pc, #40]	; (8001220 <XMC_SCU_CLOCK_GetWdtClockFrequency+0x50>)
 80011f8:	607b      	str	r3, [r7, #4]
 80011fa:	e006      	b.n	800120a <XMC_SCU_CLOCK_GetWdtClockFrequency+0x3a>
  }
  else if (clksrc == XMC_SCU_CLOCK_WDTCLKSRC_STDBY)
 80011fc:	683b      	ldr	r3, [r7, #0]
 80011fe:	f5b3 3f80 	cmp.w	r3, #65536	; 0x10000
 8001202:	d102      	bne.n	800120a <XMC_SCU_CLOCK_GetWdtClockFrequency+0x3a>
  {
    frequency = OSI_FREQUENCY;
 8001204:	f44f 4300 	mov.w	r3, #32768	; 0x8000
 8001208:	607b      	str	r3, [r7, #4]
  else
  {

  }

  return (uint32_t)((frequency / (((SCU_CLK->WDTCLKCR & SCU_CLK_WDTCLKCR_WDTDIV_Msk) >>
 800120a:	4b06      	ldr	r3, [pc, #24]	; (8001224 <XMC_SCU_CLOCK_GetWdtClockFrequency+0x54>)
 800120c:	6a5b      	ldr	r3, [r3, #36]	; 0x24
 800120e:	b2db      	uxtb	r3, r3
                                    SCU_CLK_WDTCLKCR_WDTDIV_Pos) + 1UL)));
 8001210:	3301      	adds	r3, #1
  return (uint32_t)((frequency / (((SCU_CLK->WDTCLKCR & SCU_CLK_WDTCLKCR_WDTDIV_Msk) >>
 8001212:	687a      	ldr	r2, [r7, #4]
 8001214:	fbb2 f3f3 	udiv	r3, r2, r3
}
 8001218:	4618      	mov	r0, r3
 800121a:	3708      	adds	r7, #8
 800121c:	46bd      	mov	sp, r7
 800121e:	bd80      	pop	{r7, pc}
 8001220:	016e3600 	.word	0x016e3600
 8001224:	50004600 	.word	0x50004600

08001228 <XMC_SCU_CLOCK_GetExternalOutputClockFrequency>:
/**
 * @brief API to retrieve EXTERNAL-OUT clock frequency
 * @retval Clock frequency
 */
uint32_t XMC_SCU_CLOCK_GetExternalOutputClockFrequency(void)
{
 8001228:	b580      	push	{r7, lr}
 800122a:	b082      	sub	sp, #8
 800122c:	af00      	add	r7, sp, #0
  uint32_t frequency = 0UL;
 800122e:	2300      	movs	r3, #0
 8001230:	607b      	str	r3, [r7, #4]
  XMC_SCU_CLOCK_EXTOUTCLKSRC_t clksrc;

  clksrc = XMC_SCU_CLOCK_GetExternalOutputClockSource();
 8001232:	f7ff fb11 	bl	8000858 <XMC_SCU_CLOCK_GetExternalOutputClockSource>
 8001236:	4603      	mov	r3, r0
 8001238:	70fb      	strb	r3, [r7, #3]

  if (clksrc == XMC_SCU_CLOCK_EXTOUTCLKSRC_PLL)
 800123a:	78fb      	ldrb	r3, [r7, #3]
 800123c:	2b03      	cmp	r3, #3
 800123e:	d10d      	bne.n	800125c <XMC_SCU_CLOCK_GetExternalOutputClockFrequency+0x34>
  {
    frequency = XMC_SCU_CLOCK_GetSystemPllClockFrequency();
 8001240:	f7ff fef8 	bl	8001034 <XMC_SCU_CLOCK_GetSystemPllClockFrequency>
 8001244:	6078      	str	r0, [r7, #4]
    
    frequency = (uint32_t)((frequency / ((((SCU_CLK->EXTCLKCR) & SCU_CLK_EXTCLKCR_ECKDIV_Msk) >>
 8001246:	4b13      	ldr	r3, [pc, #76]	; (8001294 <XMC_SCU_CLOCK_GetExternalOutputClockFrequency+0x6c>)
 8001248:	6a9b      	ldr	r3, [r3, #40]	; 0x28
 800124a:	0c1b      	lsrs	r3, r3, #16
 800124c:	f3c3 0308 	ubfx	r3, r3, #0, #9
                 SCU_CLK_EXTCLKCR_ECKDIV_Pos)+ 1UL)));
 8001250:	3301      	adds	r3, #1
    frequency = (uint32_t)((frequency / ((((SCU_CLK->EXTCLKCR) & SCU_CLK_EXTCLKCR_ECKDIV_Msk) >>
 8001252:	687a      	ldr	r2, [r7, #4]
 8001254:	fbb2 f3f3 	udiv	r3, r2, r3
 8001258:	607b      	str	r3, [r7, #4]
 800125a:	e016      	b.n	800128a <XMC_SCU_CLOCK_GetExternalOutputClockFrequency+0x62>
  }
  else if (clksrc == XMC_SCU_CLOCK_EXTOUTCLKSRC_SYS)
 800125c:	78fb      	ldrb	r3, [r7, #3]
 800125e:	2b00      	cmp	r3, #0
 8001260:	d103      	bne.n	800126a <XMC_SCU_CLOCK_GetExternalOutputClockFrequency+0x42>
  {
    frequency = XMC_SCU_CLOCK_GetSystemClockFrequency();
 8001262:	f7ff fb09 	bl	8000878 <XMC_SCU_CLOCK_GetSystemClockFrequency>
 8001266:	6078      	str	r0, [r7, #4]
 8001268:	e00f      	b.n	800128a <XMC_SCU_CLOCK_GetExternalOutputClockFrequency+0x62>
  }
  else if (clksrc == XMC_SCU_CLOCK_EXTOUTCLKSRC_USB)
 800126a:	78fb      	ldrb	r3, [r7, #3]
 800126c:	2b02      	cmp	r3, #2
 800126e:	d10c      	bne.n	800128a <XMC_SCU_CLOCK_GetExternalOutputClockFrequency+0x62>
  {
    frequency = XMC_SCU_CLOCK_GetUsbPllClockFrequency();
 8001270:	f7ff ff36 	bl	80010e0 <XMC_SCU_CLOCK_GetUsbPllClockFrequency>
 8001274:	6078      	str	r0, [r7, #4]
    
    frequency = (uint32_t)((frequency / ((((SCU_CLK->EXTCLKCR) & SCU_CLK_EXTCLKCR_ECKDIV_Msk) >>
 8001276:	4b07      	ldr	r3, [pc, #28]	; (8001294 <XMC_SCU_CLOCK_GetExternalOutputClockFrequency+0x6c>)
 8001278:	6a9b      	ldr	r3, [r3, #40]	; 0x28
 800127a:	0c1b      	lsrs	r3, r3, #16
 800127c:	f3c3 0308 	ubfx	r3, r3, #0, #9
                 SCU_CLK_EXTCLKCR_ECKDIV_Pos)+ 1UL)));
 8001280:	3301      	adds	r3, #1
    frequency = (uint32_t)((frequency / ((((SCU_CLK->EXTCLKCR) & SCU_CLK_EXTCLKCR_ECKDIV_Msk) >>
 8001282:	687a      	ldr	r2, [r7, #4]
 8001284:	fbb2 f3f3 	udiv	r3, r2, r3
 8001288:	607b      	str	r3, [r7, #4]
  else
  {

  }

  return (frequency);
 800128a:	687b      	ldr	r3, [r7, #4]
}
 800128c:	4618      	mov	r0, r3
 800128e:	3708      	adds	r7, #8
 8001290:	46bd      	mov	sp, r7
 8001292:	bd80      	pop	{r7, pc}
 8001294:	50004600 	.word	0x50004600

08001298 <XMC_SCU_CLOCK_GetPeripheralClockFrequency>:

/*
 * API to retrieve clock frequency of peripherals on the peripheral bus using a shared functional clock
 */
uint32_t XMC_SCU_CLOCK_GetPeripheralClockFrequency(void)
{
 8001298:	b580      	push	{r7, lr}
 800129a:	af00      	add	r7, sp, #0
  return (uint32_t)(XMC_SCU_CLOCK_GetCpuClockFrequency() >>
 800129c:	f7ff fb00 	bl	80008a0 <XMC_SCU_CLOCK_GetCpuClockFrequency>
 80012a0:	4602      	mov	r2, r0
         ((SCU_CLK->PBCLKCR & SCU_CLK_PBCLKCR_PBDIV_Msk) >> SCU_CLK_PBCLKCR_PBDIV_Pos));  
 80012a2:	4b04      	ldr	r3, [pc, #16]	; (80012b4 <XMC_SCU_CLOCK_GetPeripheralClockFrequency+0x1c>)
 80012a4:	695b      	ldr	r3, [r3, #20]
 80012a6:	f003 0301 	and.w	r3, r3, #1
  return (uint32_t)(XMC_SCU_CLOCK_GetCpuClockFrequency() >>
 80012aa:	fa22 f303 	lsr.w	r3, r2, r3
}
 80012ae:	4618      	mov	r0, r3
 80012b0:	bd80      	pop	{r7, pc}
 80012b2:	bf00      	nop
 80012b4:	50004600 	.word	0x50004600

080012b8 <XMC_SCU_CLOCK_SetSystemClockSource>:

/* API to select fSYS */
void XMC_SCU_CLOCK_SetSystemClockSource(const XMC_SCU_CLOCK_SYSCLKSRC_t source)
{
 80012b8:	b480      	push	{r7}
 80012ba:	b083      	sub	sp, #12
 80012bc:	af00      	add	r7, sp, #0
 80012be:	6078      	str	r0, [r7, #4]
  SCU_CLK->SYSCLKCR = (SCU_CLK->SYSCLKCR & ((uint32_t)~SCU_CLK_SYSCLKCR_SYSSEL_Msk)) |
 80012c0:	4b06      	ldr	r3, [pc, #24]	; (80012dc <XMC_SCU_CLOCK_SetSystemClockSource+0x24>)
 80012c2:	68db      	ldr	r3, [r3, #12]
 80012c4:	f423 3280 	bic.w	r2, r3, #65536	; 0x10000
 80012c8:	4904      	ldr	r1, [pc, #16]	; (80012dc <XMC_SCU_CLOCK_SetSystemClockSource+0x24>)
 80012ca:	687b      	ldr	r3, [r7, #4]
 80012cc:	4313      	orrs	r3, r2
 80012ce:	60cb      	str	r3, [r1, #12]
                      ((uint32_t)source);
}
 80012d0:	bf00      	nop
 80012d2:	370c      	adds	r7, #12
 80012d4:	46bd      	mov	sp, r7
 80012d6:	f85d 7b04 	ldr.w	r7, [sp], #4
 80012da:	4770      	bx	lr
 80012dc:	50004600 	.word	0x50004600

080012e0 <XMC_SCU_CLOCK_SetUsbClockSource>:

/* API to select fUSB */
void XMC_SCU_CLOCK_SetUsbClockSource(const XMC_SCU_CLOCK_USBCLKSRC_t source)
{
 80012e0:	b480      	push	{r7}
 80012e2:	b083      	sub	sp, #12
 80012e4:	af00      	add	r7, sp, #0
 80012e6:	6078      	str	r0, [r7, #4]
  SCU_CLK->USBCLKCR = (SCU_CLK->USBCLKCR & ((uint32_t)~SCU_CLK_USBCLKCR_USBSEL_Msk)) |
 80012e8:	4b06      	ldr	r3, [pc, #24]	; (8001304 <XMC_SCU_CLOCK_SetUsbClockSource+0x24>)
 80012ea:	699b      	ldr	r3, [r3, #24]
 80012ec:	f423 3280 	bic.w	r2, r3, #65536	; 0x10000
 80012f0:	4904      	ldr	r1, [pc, #16]	; (8001304 <XMC_SCU_CLOCK_SetUsbClockSource+0x24>)
 80012f2:	687b      	ldr	r3, [r7, #4]
 80012f4:	4313      	orrs	r3, r2
 80012f6:	618b      	str	r3, [r1, #24]
                      ((uint32_t)source);
}
 80012f8:	bf00      	nop
 80012fa:	370c      	adds	r7, #12
 80012fc:	46bd      	mov	sp, r7
 80012fe:	f85d 7b04 	ldr.w	r7, [sp], #4
 8001302:	4770      	bx	lr
 8001304:	50004600 	.word	0x50004600

08001308 <XMC_SCU_CLOCK_SetWdtClockSource>:

/* API to select fWDT */
void XMC_SCU_CLOCK_SetWdtClockSource(const XMC_SCU_CLOCK_WDTCLKSRC_t source)
{
 8001308:	b480      	push	{r7}
 800130a:	b083      	sub	sp, #12
 800130c:	af00      	add	r7, sp, #0
 800130e:	6078      	str	r0, [r7, #4]
  SCU_CLK->WDTCLKCR = (SCU_CLK->WDTCLKCR & ((uint32_t)~SCU_CLK_WDTCLKCR_WDTSEL_Msk)) |
 8001310:	4b06      	ldr	r3, [pc, #24]	; (800132c <XMC_SCU_CLOCK_SetWdtClockSource+0x24>)
 8001312:	6a5b      	ldr	r3, [r3, #36]	; 0x24
 8001314:	f423 3240 	bic.w	r2, r3, #196608	; 0x30000
 8001318:	4904      	ldr	r1, [pc, #16]	; (800132c <XMC_SCU_CLOCK_SetWdtClockSource+0x24>)
 800131a:	687b      	ldr	r3, [r7, #4]
 800131c:	4313      	orrs	r3, r2
 800131e:	624b      	str	r3, [r1, #36]	; 0x24
                      ((uint32_t)source);
}
 8001320:	bf00      	nop
 8001322:	370c      	adds	r7, #12
 8001324:	46bd      	mov	sp, r7
 8001326:	f85d 7b04 	ldr.w	r7, [sp], #4
 800132a:	4770      	bx	lr
 800132c:	50004600 	.word	0x50004600

08001330 <XMC_SCU_CLOCK_SetExternalOutputClockSource>:

/* API to select fEXT */
void XMC_SCU_CLOCK_SetExternalOutputClockSource(const XMC_SCU_CLOCK_EXTOUTCLKSRC_t source)
{
 8001330:	b480      	push	{r7}
 8001332:	b083      	sub	sp, #12
 8001334:	af00      	add	r7, sp, #0
 8001336:	4603      	mov	r3, r0
 8001338:	71fb      	strb	r3, [r7, #7]
  SCU_CLK->EXTCLKCR = (SCU_CLK->EXTCLKCR & ((uint32_t)~SCU_CLK_EXTCLKCR_ECKSEL_Msk)) |
 800133a:	4b07      	ldr	r3, [pc, #28]	; (8001358 <XMC_SCU_CLOCK_SetExternalOutputClockSource+0x28>)
 800133c:	6a9b      	ldr	r3, [r3, #40]	; 0x28
 800133e:	f023 0203 	bic.w	r2, r3, #3
                      ((uint32_t)source);
 8001342:	79fb      	ldrb	r3, [r7, #7]
  SCU_CLK->EXTCLKCR = (SCU_CLK->EXTCLKCR & ((uint32_t)~SCU_CLK_EXTCLKCR_ECKSEL_Msk)) |
 8001344:	4904      	ldr	r1, [pc, #16]	; (8001358 <XMC_SCU_CLOCK_SetExternalOutputClockSource+0x28>)
 8001346:	4313      	orrs	r3, r2
 8001348:	628b      	str	r3, [r1, #40]	; 0x28
}
 800134a:	bf00      	nop
 800134c:	370c      	adds	r7, #12
 800134e:	46bd      	mov	sp, r7
 8001350:	f85d 7b04 	ldr.w	r7, [sp], #4
 8001354:	4770      	bx	lr
 8001356:	bf00      	nop
 8001358:	50004600 	.word	0x50004600

0800135c <XMC_SCU_CLOCK_SetSystemPllClockSource>:

/* API to select fPLL */
void XMC_SCU_CLOCK_SetSystemPllClockSource(const XMC_SCU_CLOCK_SYSPLLCLKSRC_t source)
{
 800135c:	b480      	push	{r7}
 800135e:	b083      	sub	sp, #12
 8001360:	af00      	add	r7, sp, #0
 8001362:	4603      	mov	r3, r0
 8001364:	80fb      	strh	r3, [r7, #6]
  /* Check input clock */
  if (source == XMC_SCU_CLOCK_SYSPLLCLKSRC_OSCHP) /* Select PLLClockSource */
 8001366:	88fb      	ldrh	r3, [r7, #6]
 8001368:	2b00      	cmp	r3, #0
 800136a:	d108      	bne.n	800137e <XMC_SCU_CLOCK_SetSystemPllClockSource+0x22>
  {
    SCU_PLL->PLLCON2 &= (uint32_t)~(SCU_PLL_PLLCON2_PINSEL_Msk | SCU_PLL_PLLCON2_K1INSEL_Msk);
 800136c:	4b0b      	ldr	r3, [pc, #44]	; (800139c <XMC_SCU_CLOCK_SetSystemPllClockSource+0x40>)
 800136e:	68db      	ldr	r3, [r3, #12]
 8001370:	4a0a      	ldr	r2, [pc, #40]	; (800139c <XMC_SCU_CLOCK_SetSystemPllClockSource+0x40>)
 8001372:	f423 7380 	bic.w	r3, r3, #256	; 0x100
 8001376:	f023 0301 	bic.w	r3, r3, #1
 800137a:	60d3      	str	r3, [r2, #12]
  }
  else
  {
    SCU_PLL->PLLCON2 |= (uint32_t)(SCU_PLL_PLLCON2_PINSEL_Msk | SCU_PLL_PLLCON2_K1INSEL_Msk);
  }
}
 800137c:	e007      	b.n	800138e <XMC_SCU_CLOCK_SetSystemPllClockSource+0x32>
    SCU_PLL->PLLCON2 |= (uint32_t)(SCU_PLL_PLLCON2_PINSEL_Msk | SCU_PLL_PLLCON2_K1INSEL_Msk);
 800137e:	4b07      	ldr	r3, [pc, #28]	; (800139c <XMC_SCU_CLOCK_SetSystemPllClockSource+0x40>)
 8001380:	68db      	ldr	r3, [r3, #12]
 8001382:	4a06      	ldr	r2, [pc, #24]	; (800139c <XMC_SCU_CLOCK_SetSystemPllClockSource+0x40>)
 8001384:	f443 7380 	orr.w	r3, r3, #256	; 0x100
 8001388:	f043 0301 	orr.w	r3, r3, #1
 800138c:	60d3      	str	r3, [r2, #12]
}
 800138e:	bf00      	nop
 8001390:	370c      	adds	r7, #12
 8001392:	46bd      	mov	sp, r7
 8001394:	f85d 7b04 	ldr.w	r7, [sp], #4
 8001398:	4770      	bx	lr
 800139a:	bf00      	nop
 800139c:	50004710 	.word	0x50004710

080013a0 <XMC_SCU_HIB_SetRtcClockSource>:

/* API to select fRTC */
void XMC_SCU_HIB_SetRtcClockSource(const XMC_SCU_HIB_RTCCLKSRC_t source)
{ 
 80013a0:	b480      	push	{r7}
 80013a2:	b083      	sub	sp, #12
 80013a4:	af00      	add	r7, sp, #0
 80013a6:	4603      	mov	r3, r0
 80013a8:	71fb      	strb	r3, [r7, #7]
  /* Wait until the update of HDCR register in hibernate domain is completed */
  while((SCU_GENERAL->MIRRSTS) & SCU_GENERAL_MIRRSTS_HDCR_Msk)
 80013aa:	bf00      	nop
 80013ac:	4b0a      	ldr	r3, [pc, #40]	; (80013d8 <XMC_SCU_HIB_SetRtcClockSource+0x38>)
 80013ae:	f8d3 30c4 	ldr.w	r3, [r3, #196]	; 0xc4
 80013b2:	f003 0308 	and.w	r3, r3, #8
 80013b6:	2b00      	cmp	r3, #0
 80013b8:	d1f8      	bne.n	80013ac <XMC_SCU_HIB_SetRtcClockSource+0xc>
  {
  }

  SCU_HIBERNATE->HDCR = (SCU_HIBERNATE->HDCR & ((uint32_t)~SCU_HIBERNATE_HDCR_RCS_Msk)) |
 80013ba:	4b08      	ldr	r3, [pc, #32]	; (80013dc <XMC_SCU_HIB_SetRtcClockSource+0x3c>)
 80013bc:	68db      	ldr	r3, [r3, #12]
 80013be:	f023 0240 	bic.w	r2, r3, #64	; 0x40
                        ((uint32_t)source);
 80013c2:	79fb      	ldrb	r3, [r7, #7]
  SCU_HIBERNATE->HDCR = (SCU_HIBERNATE->HDCR & ((uint32_t)~SCU_HIBERNATE_HDCR_RCS_Msk)) |
 80013c4:	4905      	ldr	r1, [pc, #20]	; (80013dc <XMC_SCU_HIB_SetRtcClockSource+0x3c>)
 80013c6:	4313      	orrs	r3, r2
 80013c8:	60cb      	str	r3, [r1, #12]
}
 80013ca:	bf00      	nop
 80013cc:	370c      	adds	r7, #12
 80013ce:	46bd      	mov	sp, r7
 80013d0:	f85d 7b04 	ldr.w	r7, [sp], #4
 80013d4:	4770      	bx	lr
 80013d6:	bf00      	nop
 80013d8:	50004000 	.word	0x50004000
 80013dc:	50004300 	.word	0x50004300

080013e0 <XMC_SCU_HIB_SetStandbyClockSource>:

/* API to select fSTDBY */
void XMC_SCU_HIB_SetStandbyClockSource(const XMC_SCU_HIB_STDBYCLKSRC_t source)
{
 80013e0:	b480      	push	{r7}
 80013e2:	b083      	sub	sp, #12
 80013e4:	af00      	add	r7, sp, #0
 80013e6:	4603      	mov	r3, r0
 80013e8:	71fb      	strb	r3, [r7, #7]
  while((SCU_GENERAL->MIRRSTS) & SCU_GENERAL_MIRRSTS_HDCR_Msk)
 80013ea:	bf00      	nop
 80013ec:	4b0a      	ldr	r3, [pc, #40]	; (8001418 <XMC_SCU_HIB_SetStandbyClockSource+0x38>)
 80013ee:	f8d3 30c4 	ldr.w	r3, [r3, #196]	; 0xc4
 80013f2:	f003 0308 	and.w	r3, r3, #8
 80013f6:	2b00      	cmp	r3, #0
 80013f8:	d1f8      	bne.n	80013ec <XMC_SCU_HIB_SetStandbyClockSource+0xc>
  {
    /* check SCU_MIRRSTS to ensure that no transfer over serial interface is pending */
  }
  SCU_HIBERNATE->HDCR = (SCU_HIBERNATE->HDCR & ((uint32_t)~SCU_HIBERNATE_HDCR_STDBYSEL_Msk)) |
 80013fa:	4b08      	ldr	r3, [pc, #32]	; (800141c <XMC_SCU_HIB_SetStandbyClockSource+0x3c>)
 80013fc:	68db      	ldr	r3, [r3, #12]
 80013fe:	f023 0280 	bic.w	r2, r3, #128	; 0x80
                        ((uint32_t)source);
 8001402:	79fb      	ldrb	r3, [r7, #7]
  SCU_HIBERNATE->HDCR = (SCU_HIBERNATE->HDCR & ((uint32_t)~SCU_HIBERNATE_HDCR_STDBYSEL_Msk)) |
 8001404:	4905      	ldr	r1, [pc, #20]	; (800141c <XMC_SCU_HIB_SetStandbyClockSource+0x3c>)
 8001406:	4313      	orrs	r3, r2
 8001408:	60cb      	str	r3, [r1, #12]
}
 800140a:	bf00      	nop
 800140c:	370c      	adds	r7, #12
 800140e:	46bd      	mov	sp, r7
 8001410:	f85d 7b04 	ldr.w	r7, [sp], #4
 8001414:	4770      	bx	lr
 8001416:	bf00      	nop
 8001418:	50004000 	.word	0x50004000
 800141c:	50004300 	.word	0x50004300

08001420 <XMC_SCU_CLOCK_SetSystemClockDivider>:

/* API to program the divider placed between fsys and its parent */
void XMC_SCU_CLOCK_SetSystemClockDivider(const uint32_t divider)
{
 8001420:	b480      	push	{r7}
 8001422:	b083      	sub	sp, #12
 8001424:	af00      	add	r7, sp, #0
 8001426:	6078      	str	r0, [r7, #4]
  XMC_ASSERT("XMC_SCU_CLOCK_SetSystemClockDivider:Wrong clock divider value",
              (divider <= (SCU_CLK_SYSCLKCR_SYSDIV_Msk + 1UL)) );

  SCU_CLK->SYSCLKCR = (SCU_CLK->SYSCLKCR & ((uint32_t)~SCU_CLK_SYSCLKCR_SYSDIV_Msk)) |
 8001428:	4b07      	ldr	r3, [pc, #28]	; (8001448 <XMC_SCU_CLOCK_SetSystemClockDivider+0x28>)
 800142a:	68db      	ldr	r3, [r3, #12]
 800142c:	f023 02ff 	bic.w	r2, r3, #255	; 0xff
                      ((uint32_t)(((uint32_t)(divider - 1UL)) << SCU_CLK_SYSCLKCR_SYSDIV_Pos));
 8001430:	687b      	ldr	r3, [r7, #4]
 8001432:	3b01      	subs	r3, #1
  SCU_CLK->SYSCLKCR = (SCU_CLK->SYSCLKCR & ((uint32_t)~SCU_CLK_SYSCLKCR_SYSDIV_Msk)) |
 8001434:	4904      	ldr	r1, [pc, #16]	; (8001448 <XMC_SCU_CLOCK_SetSystemClockDivider+0x28>)
 8001436:	4313      	orrs	r3, r2
 8001438:	60cb      	str	r3, [r1, #12]
}
 800143a:	bf00      	nop
 800143c:	370c      	adds	r7, #12
 800143e:	46bd      	mov	sp, r7
 8001440:	f85d 7b04 	ldr.w	r7, [sp], #4
 8001444:	4770      	bx	lr
 8001446:	bf00      	nop
 8001448:	50004600 	.word	0x50004600

0800144c <XMC_SCU_CLOCK_SetCcuClockDivider>:

/* API to program the divider placed between fccu and its parent */
void XMC_SCU_CLOCK_SetCcuClockDivider(const uint32_t divider)
{
 800144c:	b480      	push	{r7}
 800144e:	b083      	sub	sp, #12
 8001450:	af00      	add	r7, sp, #0
 8001452:	6078      	str	r0, [r7, #4]
  XMC_ASSERT("XMC_SCU_CLOCK_SetCapcomClockDivider:Wrong clock divider value", (divider <= 2UL) );

  SCU_CLK->CCUCLKCR = (SCU_CLK->CCUCLKCR & ((uint32_t)~SCU_CLK_CCUCLKCR_CCUDIV_Msk)) |
 8001454:	4b07      	ldr	r3, [pc, #28]	; (8001474 <XMC_SCU_CLOCK_SetCcuClockDivider+0x28>)
 8001456:	6a1b      	ldr	r3, [r3, #32]
 8001458:	f023 0201 	bic.w	r2, r3, #1
                      (uint32_t)((uint32_t)(divider - 1UL) << SCU_CLK_CCUCLKCR_CCUDIV_Pos);
 800145c:	687b      	ldr	r3, [r7, #4]
 800145e:	3b01      	subs	r3, #1
  SCU_CLK->CCUCLKCR = (SCU_CLK->CCUCLKCR & ((uint32_t)~SCU_CLK_CCUCLKCR_CCUDIV_Msk)) |
 8001460:	4904      	ldr	r1, [pc, #16]	; (8001474 <XMC_SCU_CLOCK_SetCcuClockDivider+0x28>)
 8001462:	4313      	orrs	r3, r2
 8001464:	620b      	str	r3, [r1, #32]
}
 8001466:	bf00      	nop
 8001468:	370c      	adds	r7, #12
 800146a:	46bd      	mov	sp, r7
 800146c:	f85d 7b04 	ldr.w	r7, [sp], #4
 8001470:	4770      	bx	lr
 8001472:	bf00      	nop
 8001474:	50004600 	.word	0x50004600

08001478 <XMC_SCU_CLOCK_SetCpuClockDivider>:

/* API to program the divider placed between fcpu and its parent */
void XMC_SCU_CLOCK_SetCpuClockDivider(const uint32_t divider)
{
 8001478:	b480      	push	{r7}
 800147a:	b083      	sub	sp, #12
 800147c:	af00      	add	r7, sp, #0
 800147e:	6078      	str	r0, [r7, #4]
  XMC_ASSERT("XMC_SCU_CLOCK_SetCpuClockDivider:Wrong clock divider value", (divider <= 2UL) );

  SCU_CLK->CPUCLKCR = (SCU_CLK->CPUCLKCR & ((uint32_t)~SCU_CLK_CPUCLKCR_CPUDIV_Msk)) |
 8001480:	4b07      	ldr	r3, [pc, #28]	; (80014a0 <XMC_SCU_CLOCK_SetCpuClockDivider+0x28>)
 8001482:	691b      	ldr	r3, [r3, #16]
 8001484:	f023 0201 	bic.w	r2, r3, #1
                      (uint32_t)((uint32_t)(divider - 1UL) << SCU_CLK_CPUCLKCR_CPUDIV_Pos);
 8001488:	687b      	ldr	r3, [r7, #4]
 800148a:	3b01      	subs	r3, #1
  SCU_CLK->CPUCLKCR = (SCU_CLK->CPUCLKCR & ((uint32_t)~SCU_CLK_CPUCLKCR_CPUDIV_Msk)) |
 800148c:	4904      	ldr	r1, [pc, #16]	; (80014a0 <XMC_SCU_CLOCK_SetCpuClockDivider+0x28>)
 800148e:	4313      	orrs	r3, r2
 8001490:	610b      	str	r3, [r1, #16]
}
 8001492:	bf00      	nop
 8001494:	370c      	adds	r7, #12
 8001496:	46bd      	mov	sp, r7
 8001498:	f85d 7b04 	ldr.w	r7, [sp], #4
 800149c:	4770      	bx	lr
 800149e:	bf00      	nop
 80014a0:	50004600 	.word	0x50004600

080014a4 <XMC_SCU_CLOCK_SetPeripheralClockDivider>:

/* API to program the divider placed between fperiph and its parent */
void XMC_SCU_CLOCK_SetPeripheralClockDivider(const uint32_t divider)
{
 80014a4:	b480      	push	{r7}
 80014a6:	b083      	sub	sp, #12
 80014a8:	af00      	add	r7, sp, #0
 80014aa:	6078      	str	r0, [r7, #4]
  XMC_ASSERT("XMC_SCU_CLOCK_SetPeripheralClockDivider:Wrong clock divider value", (divider <= 2UL) );

  SCU_CLK->PBCLKCR = (SCU_CLK->PBCLKCR & ((uint32_t)~SCU_CLK_PBCLKCR_PBDIV_Msk)) |
 80014ac:	4b07      	ldr	r3, [pc, #28]	; (80014cc <XMC_SCU_CLOCK_SetPeripheralClockDivider+0x28>)
 80014ae:	695b      	ldr	r3, [r3, #20]
 80014b0:	f023 0201 	bic.w	r2, r3, #1
                     ((uint32_t)((uint32_t)(divider - 1UL) << SCU_CLK_PBCLKCR_PBDIV_Pos));
 80014b4:	687b      	ldr	r3, [r7, #4]
 80014b6:	3b01      	subs	r3, #1
  SCU_CLK->PBCLKCR = (SCU_CLK->PBCLKCR & ((uint32_t)~SCU_CLK_PBCLKCR_PBDIV_Msk)) |
 80014b8:	4904      	ldr	r1, [pc, #16]	; (80014cc <XMC_SCU_CLOCK_SetPeripheralClockDivider+0x28>)
 80014ba:	4313      	orrs	r3, r2
 80014bc:	614b      	str	r3, [r1, #20]
}
 80014be:	bf00      	nop
 80014c0:	370c      	adds	r7, #12
 80014c2:	46bd      	mov	sp, r7
 80014c4:	f85d 7b04 	ldr.w	r7, [sp], #4
 80014c8:	4770      	bx	lr
 80014ca:	bf00      	nop
 80014cc:	50004600 	.word	0x50004600

080014d0 <XMC_SCU_CLOCK_SetUsbClockDivider>:

/* API to program the divider placed between fsdmmc and its parent */
void XMC_SCU_CLOCK_SetUsbClockDivider(const uint32_t divider)
{
 80014d0:	b480      	push	{r7}
 80014d2:	b083      	sub	sp, #12
 80014d4:	af00      	add	r7, sp, #0
 80014d6:	6078      	str	r0, [r7, #4]
  XMC_ASSERT("XMC_SCU_CLOCK_SetSdmmcClockDivider:Wrong clock divider value",
              (divider <= (SCU_CLK_USBCLKCR_USBDIV_Msk + 1UL)) );

  SCU_CLK->USBCLKCR = (SCU_CLK->USBCLKCR & ((uint32_t)~SCU_CLK_USBCLKCR_USBDIV_Msk)) |
 80014d8:	4b07      	ldr	r3, [pc, #28]	; (80014f8 <XMC_SCU_CLOCK_SetUsbClockDivider+0x28>)
 80014da:	699b      	ldr	r3, [r3, #24]
 80014dc:	f023 0207 	bic.w	r2, r3, #7
                      (uint32_t)((uint32_t)(divider - 1UL) << SCU_CLK_USBCLKCR_USBDIV_Pos); 
 80014e0:	687b      	ldr	r3, [r7, #4]
 80014e2:	3b01      	subs	r3, #1
  SCU_CLK->USBCLKCR = (SCU_CLK->USBCLKCR & ((uint32_t)~SCU_CLK_USBCLKCR_USBDIV_Msk)) |
 80014e4:	4904      	ldr	r1, [pc, #16]	; (80014f8 <XMC_SCU_CLOCK_SetUsbClockDivider+0x28>)
 80014e6:	4313      	orrs	r3, r2
 80014e8:	618b      	str	r3, [r1, #24]
}
 80014ea:	bf00      	nop
 80014ec:	370c      	adds	r7, #12
 80014ee:	46bd      	mov	sp, r7
 80014f0:	f85d 7b04 	ldr.w	r7, [sp], #4
 80014f4:	4770      	bx	lr
 80014f6:	bf00      	nop
 80014f8:	50004600 	.word	0x50004600

080014fc <XMC_SCU_CLOCK_SetEbuClockDivider>:

#if defined(EBU)
/* API to program the divider placed between febu and its parent */
void XMC_SCU_CLOCK_SetEbuClockDivider(const uint32_t divider)
{
 80014fc:	b480      	push	{r7}
 80014fe:	b083      	sub	sp, #12
 8001500:	af00      	add	r7, sp, #0
 8001502:	6078      	str	r0, [r7, #4]
  XMC_ASSERT("XMC_SCU_CLOCK_SetEbuClockDivider:Wrong clock divider value",
              (divider <= (SCU_CLK_EBUCLKCR_EBUDIV_Msk + 1UL) ) );

  SCU_CLK->EBUCLKCR = (SCU_CLK->EBUCLKCR & ((uint32_t)~SCU_CLK_EBUCLKCR_EBUDIV_Msk)) |
 8001504:	4b07      	ldr	r3, [pc, #28]	; (8001524 <XMC_SCU_CLOCK_SetEbuClockDivider+0x28>)
 8001506:	69db      	ldr	r3, [r3, #28]
 8001508:	f023 023f 	bic.w	r2, r3, #63	; 0x3f
                      (uint32_t)(((uint32_t)(divider - 1UL)) << SCU_CLK_EBUCLKCR_EBUDIV_Pos);
 800150c:	687b      	ldr	r3, [r7, #4]
 800150e:	3b01      	subs	r3, #1
  SCU_CLK->EBUCLKCR = (SCU_CLK->EBUCLKCR & ((uint32_t)~SCU_CLK_EBUCLKCR_EBUDIV_Msk)) |
 8001510:	4904      	ldr	r1, [pc, #16]	; (8001524 <XMC_SCU_CLOCK_SetEbuClockDivider+0x28>)
 8001512:	4313      	orrs	r3, r2
 8001514:	61cb      	str	r3, [r1, #28]
}
 8001516:	bf00      	nop
 8001518:	370c      	adds	r7, #12
 800151a:	46bd      	mov	sp, r7
 800151c:	f85d 7b04 	ldr.w	r7, [sp], #4
 8001520:	4770      	bx	lr
 8001522:	bf00      	nop
 8001524:	50004600 	.word	0x50004600

08001528 <XMC_SCU_CLOCK_SetWdtClockDivider>:
#endif

/* API to program the divider placed between fwdt and its parent */
void XMC_SCU_CLOCK_SetWdtClockDivider(const uint32_t divider)
{
 8001528:	b480      	push	{r7}
 800152a:	b083      	sub	sp, #12
 800152c:	af00      	add	r7, sp, #0
 800152e:	6078      	str	r0, [r7, #4]
  XMC_ASSERT("XMC_SCU_CLOCK_SetWdtClockDivider:Wrong clock divider value",
              (divider <= (SCU_CLK_WDTCLKCR_WDTDIV_Msk + 1UL) ) );

  SCU_CLK->WDTCLKCR = (SCU_CLK->WDTCLKCR & ((uint32_t)~SCU_CLK_WDTCLKCR_WDTDIV_Msk)) |
 8001530:	4b07      	ldr	r3, [pc, #28]	; (8001550 <XMC_SCU_CLOCK_SetWdtClockDivider+0x28>)
 8001532:	6a5b      	ldr	r3, [r3, #36]	; 0x24
 8001534:	f023 02ff 	bic.w	r2, r3, #255	; 0xff
                      (uint32_t)(((uint32_t)(divider - 1UL)) << SCU_CLK_WDTCLKCR_WDTDIV_Pos);
 8001538:	687b      	ldr	r3, [r7, #4]
 800153a:	3b01      	subs	r3, #1
  SCU_CLK->WDTCLKCR = (SCU_CLK->WDTCLKCR & ((uint32_t)~SCU_CLK_WDTCLKCR_WDTDIV_Msk)) |
 800153c:	4904      	ldr	r1, [pc, #16]	; (8001550 <XMC_SCU_CLOCK_SetWdtClockDivider+0x28>)
 800153e:	4313      	orrs	r3, r2
 8001540:	624b      	str	r3, [r1, #36]	; 0x24
}
 8001542:	bf00      	nop
 8001544:	370c      	adds	r7, #12
 8001546:	46bd      	mov	sp, r7
 8001548:	f85d 7b04 	ldr.w	r7, [sp], #4
 800154c:	4770      	bx	lr
 800154e:	bf00      	nop
 8001550:	50004600 	.word	0x50004600

08001554 <XMC_SCU_CLOCK_SetExternalOutputClockDivider>:

/* API to program the divider placed between fext and its parent */
void XMC_SCU_CLOCK_SetExternalOutputClockDivider(const uint32_t divider)
{
 8001554:	b480      	push	{r7}
 8001556:	b083      	sub	sp, #12
 8001558:	af00      	add	r7, sp, #0
 800155a:	6078      	str	r0, [r7, #4]
  XMC_ASSERT("XMC_SCU_CLOCK_SetExternalOutputClockDivider:Wrong clock divider value",
              (divider <= (SCU_CLK_EXTCLKCR_ECKDIV_Msk + 1UL) ) );

  SCU_CLK->EXTCLKCR = (SCU_CLK->EXTCLKCR & ((uint32_t)~SCU_CLK_EXTCLKCR_ECKDIV_Msk)) |
 800155c:	4b08      	ldr	r3, [pc, #32]	; (8001580 <XMC_SCU_CLOCK_SetExternalOutputClockDivider+0x2c>)
 800155e:	6a9b      	ldr	r3, [r3, #40]	; 0x28
 8001560:	f023 73ff 	bic.w	r3, r3, #33423360	; 0x1fe0000
 8001564:	f423 3380 	bic.w	r3, r3, #65536	; 0x10000
                      (uint32_t)(((uint32_t)(divider - 1UL)) << SCU_CLK_EXTCLKCR_ECKDIV_Pos);
 8001568:	687a      	ldr	r2, [r7, #4]
 800156a:	3a01      	subs	r2, #1
 800156c:	0412      	lsls	r2, r2, #16
  SCU_CLK->EXTCLKCR = (SCU_CLK->EXTCLKCR & ((uint32_t)~SCU_CLK_EXTCLKCR_ECKDIV_Msk)) |
 800156e:	4904      	ldr	r1, [pc, #16]	; (8001580 <XMC_SCU_CLOCK_SetExternalOutputClockDivider+0x2c>)
 8001570:	4313      	orrs	r3, r2
 8001572:	628b      	str	r3, [r1, #40]	; 0x28
}
 8001574:	bf00      	nop
 8001576:	370c      	adds	r7, #12
 8001578:	46bd      	mov	sp, r7
 800157a:	f85d 7b04 	ldr.w	r7, [sp], #4
 800157e:	4770      	bx	lr
 8001580:	50004600 	.word	0x50004600

08001584 <XMC_SCU_CLOCK_EnableClock>:
}
#endif

/* API to enable a given module clock */
void XMC_SCU_CLOCK_EnableClock(const XMC_SCU_CLOCK_t clock)
{
 8001584:	b480      	push	{r7}
 8001586:	b083      	sub	sp, #12
 8001588:	af00      	add	r7, sp, #0
 800158a:	4603      	mov	r3, r0
 800158c:	71fb      	strb	r3, [r7, #7]
  SCU_CLK->CLKSET = ((uint32_t)clock);
 800158e:	4a04      	ldr	r2, [pc, #16]	; (80015a0 <XMC_SCU_CLOCK_EnableClock+0x1c>)
 8001590:	79fb      	ldrb	r3, [r7, #7]
 8001592:	6053      	str	r3, [r2, #4]
}
 8001594:	bf00      	nop
 8001596:	370c      	adds	r7, #12
 8001598:	46bd      	mov	sp, r7
 800159a:	f85d 7b04 	ldr.w	r7, [sp], #4
 800159e:	4770      	bx	lr
 80015a0:	50004600 	.word	0x50004600

080015a4 <XMC_SCU_CLOCK_DisableClock>:

/* API to disable a given module clock */
void XMC_SCU_CLOCK_DisableClock(const XMC_SCU_CLOCK_t clock)
{
 80015a4:	b480      	push	{r7}
 80015a6:	b083      	sub	sp, #12
 80015a8:	af00      	add	r7, sp, #0
 80015aa:	4603      	mov	r3, r0
 80015ac:	71fb      	strb	r3, [r7, #7]
  SCU_CLK->CLKCLR = ((uint32_t)clock);
 80015ae:	4a04      	ldr	r2, [pc, #16]	; (80015c0 <XMC_SCU_CLOCK_DisableClock+0x1c>)
 80015b0:	79fb      	ldrb	r3, [r7, #7]
 80015b2:	6093      	str	r3, [r2, #8]
}
 80015b4:	bf00      	nop
 80015b6:	370c      	adds	r7, #12
 80015b8:	46bd      	mov	sp, r7
 80015ba:	f85d 7b04 	ldr.w	r7, [sp], #4
 80015be:	4770      	bx	lr
 80015c0:	50004600 	.word	0x50004600

080015c4 <XMC_SCU_CLOCK_IsClockEnabled>:

/* API to determine if module clock of the given peripheral is enabled */
bool XMC_SCU_CLOCK_IsClockEnabled(const XMC_SCU_CLOCK_t clock)
{
 80015c4:	b480      	push	{r7}
 80015c6:	b083      	sub	sp, #12
 80015c8:	af00      	add	r7, sp, #0
 80015ca:	4603      	mov	r3, r0
 80015cc:	71fb      	strb	r3, [r7, #7]
  return (bool)(SCU_CLK->CLKSTAT & ((uint32_t)clock));
 80015ce:	4b07      	ldr	r3, [pc, #28]	; (80015ec <XMC_SCU_CLOCK_IsClockEnabled+0x28>)
 80015d0:	681a      	ldr	r2, [r3, #0]
 80015d2:	79fb      	ldrb	r3, [r7, #7]
 80015d4:	4013      	ands	r3, r2
 80015d6:	2b00      	cmp	r3, #0
 80015d8:	bf14      	ite	ne
 80015da:	2301      	movne	r3, #1
 80015dc:	2300      	moveq	r3, #0
 80015de:	b2db      	uxtb	r3, r3
}
 80015e0:	4618      	mov	r0, r3
 80015e2:	370c      	adds	r7, #12
 80015e4:	46bd      	mov	sp, r7
 80015e6:	f85d 7b04 	ldr.w	r7, [sp], #4
 80015ea:	4770      	bx	lr
 80015ec:	50004600 	.word	0x50004600

080015f0 <XMC_SCU_POWER_GetEVR13Voltage>:
  return ((*(uint32_t *)(&(SCU_CLK->CGATSTAT0) + (index * 3U)) & mask) != 0U);
}
#endif

float XMC_SCU_POWER_GetEVR13Voltage(void)
{
 80015f0:	b480      	push	{r7}
 80015f2:	af00      	add	r7, sp, #0
  return (SCU_POWER->EVRVADCSTAT & SCU_POWER_EVRVADCSTAT_VADC13V_Msk) * XMC_SCU_POWER_LSB13V;
 80015f4:	4b08      	ldr	r3, [pc, #32]	; (8001618 <XMC_SCU_POWER_GetEVR13Voltage+0x28>)
 80015f6:	695b      	ldr	r3, [r3, #20]
 80015f8:	b2db      	uxtb	r3, r3
 80015fa:	ee07 3a90 	vmov	s15, r3
 80015fe:	eef8 7a67 	vcvt.f32.u32	s15, s15
 8001602:	ed9f 7a06 	vldr	s14, [pc, #24]	; 800161c <XMC_SCU_POWER_GetEVR13Voltage+0x2c>
 8001606:	ee67 7a87 	vmul.f32	s15, s15, s14
 800160a:	ee17 3a90 	vmov	r3, s15
}
 800160e:	4618      	mov	r0, r3
 8001610:	46bd      	mov	sp, r7
 8001612:	f85d 7b04 	ldr.w	r7, [sp], #4
 8001616:	4770      	bx	lr
 8001618:	50004200 	.word	0x50004200
 800161c:	3bbe0ded 	.word	0x3bbe0ded

08001620 <XMC_SCU_POWER_GetEVR33Voltage>:

float XMC_SCU_POWER_GetEVR33Voltage(void)
{
 8001620:	b480      	push	{r7}
 8001622:	af00      	add	r7, sp, #0
  return ((SCU_POWER->EVRVADCSTAT & SCU_POWER_EVRVADCSTAT_VADC33V_Msk) >> SCU_POWER_EVRVADCSTAT_VADC33V_Pos) * XMC_SCU_POWER_LSB33V;
 8001624:	4b09      	ldr	r3, [pc, #36]	; (800164c <XMC_SCU_POWER_GetEVR33Voltage+0x2c>)
 8001626:	695b      	ldr	r3, [r3, #20]
 8001628:	0a1b      	lsrs	r3, r3, #8
 800162a:	b2db      	uxtb	r3, r3
 800162c:	ee07 3a90 	vmov	s15, r3
 8001630:	eef8 7a67 	vcvt.f32.u32	s15, s15
 8001634:	ed9f 7a06 	vldr	s14, [pc, #24]	; 8001650 <XMC_SCU_POWER_GetEVR33Voltage+0x30>
 8001638:	ee67 7a87 	vmul.f32	s15, s15, s14
 800163c:	ee17 3a90 	vmov	r3, s15
}
 8001640:	4618      	mov	r0, r3
 8001642:	46bd      	mov	sp, r7
 8001644:	f85d 7b04 	ldr.w	r7, [sp], #4
 8001648:	4770      	bx	lr
 800164a:	bf00      	nop
 800164c:	50004200 	.word	0x50004200
 8001650:	3cb851ec 	.word	0x3cb851ec

08001654 <XMC_SCU_CLOCK_EnableUsbPll>:

/* API to enable USB PLL for USB clock */
void XMC_SCU_CLOCK_EnableUsbPll(void)
{
 8001654:	b480      	push	{r7}
 8001656:	af00      	add	r7, sp, #0
  SCU_PLL->USBPLLCON &= (uint32_t)~(SCU_PLL_USBPLLCON_VCOPWD_Msk | SCU_PLL_USBPLLCON_PLLPWD_Msk);
 8001658:	4b06      	ldr	r3, [pc, #24]	; (8001674 <XMC_SCU_CLOCK_EnableUsbPll+0x20>)
 800165a:	695b      	ldr	r3, [r3, #20]
 800165c:	4a05      	ldr	r2, [pc, #20]	; (8001674 <XMC_SCU_CLOCK_EnableUsbPll+0x20>)
 800165e:	f423 3380 	bic.w	r3, r3, #65536	; 0x10000
 8001662:	f023 0302 	bic.w	r3, r3, #2
 8001666:	6153      	str	r3, [r2, #20]
}
 8001668:	bf00      	nop
 800166a:	46bd      	mov	sp, r7
 800166c:	f85d 7b04 	ldr.w	r7, [sp], #4
 8001670:	4770      	bx	lr
 8001672:	bf00      	nop
 8001674:	50004710 	.word	0x50004710

08001678 <XMC_SCU_CLOCK_DisableUsbPll>:

/* API to disable USB PLL for USB clock */
void XMC_SCU_CLOCK_DisableUsbPll(void)
{
 8001678:	b480      	push	{r7}
 800167a:	af00      	add	r7, sp, #0
  SCU_PLL->USBPLLCON |= (uint32_t)(SCU_PLL_USBPLLCON_VCOPWD_Msk | SCU_PLL_USBPLLCON_PLLPWD_Msk);
 800167c:	4b06      	ldr	r3, [pc, #24]	; (8001698 <XMC_SCU_CLOCK_DisableUsbPll+0x20>)
 800167e:	695b      	ldr	r3, [r3, #20]
 8001680:	4a05      	ldr	r2, [pc, #20]	; (8001698 <XMC_SCU_CLOCK_DisableUsbPll+0x20>)
 8001682:	f443 3380 	orr.w	r3, r3, #65536	; 0x10000
 8001686:	f043 0302 	orr.w	r3, r3, #2
 800168a:	6153      	str	r3, [r2, #20]
}
 800168c:	bf00      	nop
 800168e:	46bd      	mov	sp, r7
 8001690:	f85d 7b04 	ldr.w	r7, [sp], #4
 8001694:	4770      	bx	lr
 8001696:	bf00      	nop
 8001698:	50004710 	.word	0x50004710

0800169c <XMC_SCU_CLOCK_StartUsbPll>:

/* API to configure USB PLL */
void XMC_SCU_CLOCK_StartUsbPll(uint32_t pdiv, uint32_t ndiv)
{
 800169c:	b480      	push	{r7}
 800169e:	b083      	sub	sp, #12
 80016a0:	af00      	add	r7, sp, #0
 80016a2:	6078      	str	r0, [r7, #4]
 80016a4:	6039      	str	r1, [r7, #0]
  /* Go to bypass the USB PLL */
  SCU_PLL->USBPLLCON |= (uint32_t)SCU_PLL_USBPLLCON_VCOBYP_Msk;
 80016a6:	4b1a      	ldr	r3, [pc, #104]	; (8001710 <XMC_SCU_CLOCK_StartUsbPll+0x74>)
 80016a8:	695b      	ldr	r3, [r3, #20]
 80016aa:	4a19      	ldr	r2, [pc, #100]	; (8001710 <XMC_SCU_CLOCK_StartUsbPll+0x74>)
 80016ac:	f043 0301 	orr.w	r3, r3, #1
 80016b0:	6153      	str	r3, [r2, #20]

  /* disconnect Oscillator from USB PLL */
  SCU_PLL->USBPLLCON |= (uint32_t)SCU_PLL_USBPLLCON_FINDIS_Msk;
 80016b2:	4b17      	ldr	r3, [pc, #92]	; (8001710 <XMC_SCU_CLOCK_StartUsbPll+0x74>)
 80016b4:	695b      	ldr	r3, [r3, #20]
 80016b6:	4a16      	ldr	r2, [pc, #88]	; (8001710 <XMC_SCU_CLOCK_StartUsbPll+0x74>)
 80016b8:	f043 0310 	orr.w	r3, r3, #16
 80016bc:	6153      	str	r3, [r2, #20]

  /* Setup Divider settings for USB PLL */
  SCU_PLL->USBPLLCON = (uint32_t)((uint32_t)((ndiv -1U) << SCU_PLL_USBPLLCON_NDIV_Pos) |
 80016be:	683b      	ldr	r3, [r7, #0]
 80016c0:	3b01      	subs	r3, #1
 80016c2:	021a      	lsls	r2, r3, #8
                       (uint32_t)((pdiv - 1U) << SCU_PLL_USBPLLCON_PDIV_Pos));
 80016c4:	687b      	ldr	r3, [r7, #4]
 80016c6:	3b01      	subs	r3, #1
 80016c8:	061b      	lsls	r3, r3, #24
  SCU_PLL->USBPLLCON = (uint32_t)((uint32_t)((ndiv -1U) << SCU_PLL_USBPLLCON_NDIV_Pos) |
 80016ca:	4911      	ldr	r1, [pc, #68]	; (8001710 <XMC_SCU_CLOCK_StartUsbPll+0x74>)
 80016cc:	4313      	orrs	r3, r2
 80016ce:	614b      	str	r3, [r1, #20]

  /* Set OSCDISCDIS */
  SCU_PLL->USBPLLCON |= (uint32_t)SCU_PLL_USBPLLCON_OSCDISCDIS_Msk;
 80016d0:	4b0f      	ldr	r3, [pc, #60]	; (8001710 <XMC_SCU_CLOCK_StartUsbPll+0x74>)
 80016d2:	695b      	ldr	r3, [r3, #20]
 80016d4:	4a0e      	ldr	r2, [pc, #56]	; (8001710 <XMC_SCU_CLOCK_StartUsbPll+0x74>)
 80016d6:	f043 0340 	orr.w	r3, r3, #64	; 0x40
 80016da:	6153      	str	r3, [r2, #20]

  /* connect Oscillator to USB PLL */
  SCU_PLL->USBPLLCON &= (uint32_t)~SCU_PLL_USBPLLCON_FINDIS_Msk;
 80016dc:	4b0c      	ldr	r3, [pc, #48]	; (8001710 <XMC_SCU_CLOCK_StartUsbPll+0x74>)
 80016de:	695b      	ldr	r3, [r3, #20]
 80016e0:	4a0b      	ldr	r2, [pc, #44]	; (8001710 <XMC_SCU_CLOCK_StartUsbPll+0x74>)
 80016e2:	f023 0310 	bic.w	r3, r3, #16
 80016e6:	6153      	str	r3, [r2, #20]

  /* restart PLL Lock detection */
  SCU_PLL->USBPLLCON |= (uint32_t)SCU_PLL_USBPLLCON_RESLD_Msk;
 80016e8:	4b09      	ldr	r3, [pc, #36]	; (8001710 <XMC_SCU_CLOCK_StartUsbPll+0x74>)
 80016ea:	695b      	ldr	r3, [r3, #20]
 80016ec:	4a08      	ldr	r2, [pc, #32]	; (8001710 <XMC_SCU_CLOCK_StartUsbPll+0x74>)
 80016ee:	f443 2380 	orr.w	r3, r3, #262144	; 0x40000
 80016f2:	6153      	str	r3, [r2, #20]

  while ((SCU_PLL->USBPLLSTAT & SCU_PLL_USBPLLSTAT_VCOLOCK_Msk) == 0U)
 80016f4:	bf00      	nop
 80016f6:	4b06      	ldr	r3, [pc, #24]	; (8001710 <XMC_SCU_CLOCK_StartUsbPll+0x74>)
 80016f8:	691b      	ldr	r3, [r3, #16]
 80016fa:	f003 0304 	and.w	r3, r3, #4
 80016fe:	2b00      	cmp	r3, #0
 8001700:	d0f9      	beq.n	80016f6 <XMC_SCU_CLOCK_StartUsbPll+0x5a>
  {
    /* wait for PLL Lock */
  }

}
 8001702:	bf00      	nop
 8001704:	bf00      	nop
 8001706:	370c      	adds	r7, #12
 8001708:	46bd      	mov	sp, r7
 800170a:	f85d 7b04 	ldr.w	r7, [sp], #4
 800170e:	4770      	bx	lr
 8001710:	50004710 	.word	0x50004710

08001714 <XMC_SCU_CLOCK_StopUsbPll>:

/* API to disable USB PLL operation */
void XMC_SCU_CLOCK_StopUsbPll(void)
{
 8001714:	b480      	push	{r7}
 8001716:	af00      	add	r7, sp, #0
  SCU_PLL->USBPLLCON = (uint32_t)(SCU_PLL_USBPLLCON_VCOPWD_Msk | SCU_PLL_USBPLLCON_PLLPWD_Msk |
 8001718:	4b03      	ldr	r3, [pc, #12]	; (8001728 <XMC_SCU_CLOCK_StopUsbPll+0x14>)
 800171a:	4a04      	ldr	r2, [pc, #16]	; (800172c <XMC_SCU_CLOCK_StopUsbPll+0x18>)
 800171c:	615a      	str	r2, [r3, #20]
                                  SCU_PLL_USBPLLCON_VCOBYP_Msk);
}
 800171e:	bf00      	nop
 8001720:	46bd      	mov	sp, r7
 8001722:	f85d 7b04 	ldr.w	r7, [sp], #4
 8001726:	4770      	bx	lr
 8001728:	50004710 	.word	0x50004710
 800172c:	00010003 	.word	0x00010003

08001730 <XMC_SCU_CLOCK_SetBackupClockCalibrationMode>:

/* API to onfigure the calibration mode for internal oscillator */
void XMC_SCU_CLOCK_SetBackupClockCalibrationMode(XMC_SCU_CLOCK_FOFI_CALIBRATION_MODE_t mode)
{
 8001730:	b580      	push	{r7, lr}
 8001732:	b082      	sub	sp, #8
 8001734:	af00      	add	r7, sp, #0
 8001736:	4603      	mov	r3, r0
 8001738:	71fb      	strb	r3, [r7, #7]
  /* Enable factory calibration based trimming */
  SCU_PLL->PLLCON0 |= (uint32_t)SCU_PLL_PLLCON0_FOTR_Msk;
 800173a:	4b0f      	ldr	r3, [pc, #60]	; (8001778 <XMC_SCU_CLOCK_SetBackupClockCalibrationMode+0x48>)
 800173c:	685b      	ldr	r3, [r3, #4]
 800173e:	4a0e      	ldr	r2, [pc, #56]	; (8001778 <XMC_SCU_CLOCK_SetBackupClockCalibrationMode+0x48>)
 8001740:	f443 1380 	orr.w	r3, r3, #1048576	; 0x100000
 8001744:	6053      	str	r3, [r2, #4]

  if (mode == XMC_SCU_CLOCK_FOFI_CALIBRATION_MODE_AUTOMATIC)
 8001746:	79fb      	ldrb	r3, [r7, #7]
 8001748:	2b01      	cmp	r3, #1
 800174a:	d10e      	bne.n	800176a <XMC_SCU_CLOCK_SetBackupClockCalibrationMode+0x3a>
  {
    /* Disable factory calibration based trimming */
    SCU_PLL->PLLCON0 &= (uint32_t)~SCU_PLL_PLLCON0_FOTR_Msk;
 800174c:	4b0a      	ldr	r3, [pc, #40]	; (8001778 <XMC_SCU_CLOCK_SetBackupClockCalibrationMode+0x48>)
 800174e:	685b      	ldr	r3, [r3, #4]
 8001750:	4a09      	ldr	r2, [pc, #36]	; (8001778 <XMC_SCU_CLOCK_SetBackupClockCalibrationMode+0x48>)
 8001752:	f423 1380 	bic.w	r3, r3, #1048576	; 0x100000
 8001756:	6053      	str	r3, [r2, #4]
    XMC_SCU_lDelay(100UL);
 8001758:	2064      	movs	r0, #100	; 0x64
 800175a:	f7ff f8b9 	bl	80008d0 <XMC_SCU_lDelay>

    /* Enable automatic calibration */
    SCU_PLL->PLLCON0 |= (uint32_t)SCU_PLL_PLLCON0_AOTREN_Msk;
 800175e:	4b06      	ldr	r3, [pc, #24]	; (8001778 <XMC_SCU_CLOCK_SetBackupClockCalibrationMode+0x48>)
 8001760:	685b      	ldr	r3, [r3, #4]
 8001762:	4a05      	ldr	r2, [pc, #20]	; (8001778 <XMC_SCU_CLOCK_SetBackupClockCalibrationMode+0x48>)
 8001764:	f443 2300 	orr.w	r3, r3, #524288	; 0x80000
 8001768:	6053      	str	r3, [r2, #4]
  }

  XMC_SCU_lDelay(100UL);
 800176a:	2064      	movs	r0, #100	; 0x64
 800176c:	f7ff f8b0 	bl	80008d0 <XMC_SCU_lDelay>
}
 8001770:	bf00      	nop
 8001772:	3708      	adds	r7, #8
 8001774:	46bd      	mov	sp, r7
 8001776:	bd80      	pop	{r7, pc}
 8001778:	50004710 	.word	0x50004710

0800177c <XMC_SCU_POWER_EnableUsb>:



/* API to enable USB Phy and comparator */
void XMC_SCU_POWER_EnableUsb(void)
{
 800177c:	b480      	push	{r7}
 800177e:	af00      	add	r7, sp, #0
#if defined(USB_OTG_SUPPORTED)
  SCU_POWER->PWRSET = (uint32_t)(SCU_POWER_PWRSET_USBOTGEN_Msk | SCU_POWER_PWRSET_USBPHYPDQ_Msk);
 8001780:	4b04      	ldr	r3, [pc, #16]	; (8001794 <XMC_SCU_POWER_EnableUsb+0x18>)
 8001782:	f44f 3240 	mov.w	r2, #196608	; 0x30000
 8001786:	605a      	str	r2, [r3, #4]
#else
  SCU_POWER->PWRSET = (uint32_t)SCU_POWER_PWRSET_USBPHYPDQ_Msk;
#endif
}
 8001788:	bf00      	nop
 800178a:	46bd      	mov	sp, r7
 800178c:	f85d 7b04 	ldr.w	r7, [sp], #4
 8001790:	4770      	bx	lr
 8001792:	bf00      	nop
 8001794:	50004200 	.word	0x50004200

08001798 <XMC_SCU_POWER_DisableUsb>:

/* API to power down USB Phy and comparator */
void XMC_SCU_POWER_DisableUsb(void)
{
 8001798:	b480      	push	{r7}
 800179a:	af00      	add	r7, sp, #0
#if defined(USB_OTG_SUPPORTED)
  SCU_POWER->PWRCLR = (uint32_t)(SCU_POWER_PWRCLR_USBOTGEN_Msk | SCU_POWER_PWRSET_USBPHYPDQ_Msk);
 800179c:	4b04      	ldr	r3, [pc, #16]	; (80017b0 <XMC_SCU_POWER_DisableUsb+0x18>)
 800179e:	f44f 3240 	mov.w	r2, #196608	; 0x30000
 80017a2:	609a      	str	r2, [r3, #8]
#else
  SCU_POWER->PWRCLR = (uint32_t)SCU_POWER_PWRCLR_USBPHYPDQ_Msk;
#endif    
}
 80017a4:	bf00      	nop
 80017a6:	46bd      	mov	sp, r7
 80017a8:	f85d 7b04 	ldr.w	r7, [sp], #4
 80017ac:	4770      	bx	lr
 80017ae:	bf00      	nop
 80017b0:	50004200 	.word	0x50004200

080017b4 <XMC_SCU_CLOCK_IsUsbPllLocked>:

/* API to check USB PLL is locked or not */
bool XMC_SCU_CLOCK_IsUsbPllLocked(void)
{
 80017b4:	b480      	push	{r7}
 80017b6:	af00      	add	r7, sp, #0
  return (bool)((SCU_PLL->USBPLLSTAT & SCU_PLL_USBPLLSTAT_VCOLOCK_Msk) != 0UL);
 80017b8:	4b06      	ldr	r3, [pc, #24]	; (80017d4 <XMC_SCU_CLOCK_IsUsbPllLocked+0x20>)
 80017ba:	691b      	ldr	r3, [r3, #16]
 80017bc:	f003 0304 	and.w	r3, r3, #4
 80017c0:	2b00      	cmp	r3, #0
 80017c2:	bf14      	ite	ne
 80017c4:	2301      	movne	r3, #1
 80017c6:	2300      	moveq	r3, #0
 80017c8:	b2db      	uxtb	r3, r3
}
 80017ca:	4618      	mov	r0, r3
 80017cc:	46bd      	mov	sp, r7
 80017ce:	f85d 7b04 	ldr.w	r7, [sp], #4
 80017d2:	4770      	bx	lr
 80017d4:	50004710 	.word	0x50004710

080017d8 <XMC_SCU_HIB_EnableHibernateDomain>:

/* API to power up the hibernation domain */
void XMC_SCU_HIB_EnableHibernateDomain(void)
{
 80017d8:	b480      	push	{r7}
 80017da:	af00      	add	r7, sp, #0
  /* Power up HIB domain if and only if it is currently powered down */
  if((SCU_POWER->PWRSTAT & SCU_POWER_PWRSTAT_HIBEN_Msk) == 0UL)
 80017dc:	4b12      	ldr	r3, [pc, #72]	; (8001828 <XMC_SCU_HIB_EnableHibernateDomain+0x50>)
 80017de:	681b      	ldr	r3, [r3, #0]
 80017e0:	f003 0301 	and.w	r3, r3, #1
 80017e4:	2b00      	cmp	r3, #0
 80017e6:	d109      	bne.n	80017fc <XMC_SCU_HIB_EnableHibernateDomain+0x24>
  {
    SCU_POWER->PWRSET = (uint32_t)SCU_POWER_PWRSET_HIB_Msk;
 80017e8:	4b0f      	ldr	r3, [pc, #60]	; (8001828 <XMC_SCU_HIB_EnableHibernateDomain+0x50>)
 80017ea:	2201      	movs	r2, #1
 80017ec:	605a      	str	r2, [r3, #4]
    
    while((SCU_POWER->PWRSTAT & SCU_POWER_PWRSTAT_HIBEN_Msk) == 0UL)
 80017ee:	bf00      	nop
 80017f0:	4b0d      	ldr	r3, [pc, #52]	; (8001828 <XMC_SCU_HIB_EnableHibernateDomain+0x50>)
 80017f2:	681b      	ldr	r3, [r3, #0]
 80017f4:	f003 0301 	and.w	r3, r3, #1
 80017f8:	2b00      	cmp	r3, #0
 80017fa:	d0f9      	beq.n	80017f0 <XMC_SCU_HIB_EnableHibernateDomain+0x18>
      /* wait until HIB domain is enabled */
    }    
  }
  
  /* Remove the reset only if HIB domain were in a state of reset */
  if((SCU_RESET->RSTSTAT) & SCU_RESET_RSTSTAT_HIBRS_Msk)
 80017fc:	4b0b      	ldr	r3, [pc, #44]	; (800182c <XMC_SCU_HIB_EnableHibernateDomain+0x54>)
 80017fe:	681b      	ldr	r3, [r3, #0]
 8001800:	f403 7300 	and.w	r3, r3, #512	; 0x200
 8001804:	2b00      	cmp	r3, #0
 8001806:	d00a      	beq.n	800181e <XMC_SCU_HIB_EnableHibernateDomain+0x46>
  {
    SCU_RESET->RSTCLR = (uint32_t)SCU_RESET_RSTCLR_HIBRS_Msk;
 8001808:	4b08      	ldr	r3, [pc, #32]	; (800182c <XMC_SCU_HIB_EnableHibernateDomain+0x54>)
 800180a:	f44f 7200 	mov.w	r2, #512	; 0x200
 800180e:	609a      	str	r2, [r3, #8]
    while((SCU_RESET->RSTSTAT & SCU_RESET_RSTSTAT_HIBRS_Msk) != 0UL)
 8001810:	bf00      	nop
 8001812:	4b06      	ldr	r3, [pc, #24]	; (800182c <XMC_SCU_HIB_EnableHibernateDomain+0x54>)
 8001814:	681b      	ldr	r3, [r3, #0]
 8001816:	f403 7300 	and.w	r3, r3, #512	; 0x200
 800181a:	2b00      	cmp	r3, #0
 800181c:	d1f9      	bne.n	8001812 <XMC_SCU_HIB_EnableHibernateDomain+0x3a>
    {
      /* wait until HIB domain is enabled */
    }
  }
}
 800181e:	bf00      	nop
 8001820:	46bd      	mov	sp, r7
 8001822:	f85d 7b04 	ldr.w	r7, [sp], #4
 8001826:	4770      	bx	lr
 8001828:	50004200 	.word	0x50004200
 800182c:	50004400 	.word	0x50004400

08001830 <XMC_SCU_HIB_DisableHibernateDomain>:

/* API to power down the hibernation domain */
void XMC_SCU_HIB_DisableHibernateDomain(void)
{
 8001830:	b480      	push	{r7}
 8001832:	af00      	add	r7, sp, #0
  /* Disable hibernate domain */   
  SCU_POWER->PWRCLR = (uint32_t)SCU_POWER_PWRCLR_HIB_Msk;
 8001834:	4b05      	ldr	r3, [pc, #20]	; (800184c <XMC_SCU_HIB_DisableHibernateDomain+0x1c>)
 8001836:	2201      	movs	r2, #1
 8001838:	609a      	str	r2, [r3, #8]
  /* Reset of hibernate domain reset */  
  SCU_RESET->RSTSET = (uint32_t)SCU_RESET_RSTSET_HIBRS_Msk;
 800183a:	4b05      	ldr	r3, [pc, #20]	; (8001850 <XMC_SCU_HIB_DisableHibernateDomain+0x20>)
 800183c:	f44f 7200 	mov.w	r2, #512	; 0x200
 8001840:	605a      	str	r2, [r3, #4]
}
 8001842:	bf00      	nop
 8001844:	46bd      	mov	sp, r7
 8001846:	f85d 7b04 	ldr.w	r7, [sp], #4
 800184a:	4770      	bx	lr
 800184c:	50004200 	.word	0x50004200
 8001850:	50004400 	.word	0x50004400

08001854 <XMC_SCU_HIB_IsHibernateDomainEnabled>:

/* API to check the hibernation domain is enabled or not */
bool XMC_SCU_HIB_IsHibernateDomainEnabled(void)
{
 8001854:	b480      	push	{r7}
 8001856:	af00      	add	r7, sp, #0
  return ((bool)(SCU_POWER->PWRSTAT & SCU_POWER_PWRSTAT_HIBEN_Msk) && 
 8001858:	4b0b      	ldr	r3, [pc, #44]	; (8001888 <XMC_SCU_HIB_IsHibernateDomainEnabled+0x34>)
 800185a:	681b      	ldr	r3, [r3, #0]
 800185c:	f003 0301 	and.w	r3, r3, #1
 8001860:	2b00      	cmp	r3, #0
 8001862:	d007      	beq.n	8001874 <XMC_SCU_HIB_IsHibernateDomainEnabled+0x20>
          !(bool)(SCU_RESET->RSTSTAT & SCU_RESET_RSTSTAT_HIBRS_Msk));
 8001864:	4b09      	ldr	r3, [pc, #36]	; (800188c <XMC_SCU_HIB_IsHibernateDomainEnabled+0x38>)
 8001866:	681b      	ldr	r3, [r3, #0]
 8001868:	f403 7300 	and.w	r3, r3, #512	; 0x200
  return ((bool)(SCU_POWER->PWRSTAT & SCU_POWER_PWRSTAT_HIBEN_Msk) && 
 800186c:	2b00      	cmp	r3, #0
 800186e:	d101      	bne.n	8001874 <XMC_SCU_HIB_IsHibernateDomainEnabled+0x20>
 8001870:	2301      	movs	r3, #1
 8001872:	e000      	b.n	8001876 <XMC_SCU_HIB_IsHibernateDomainEnabled+0x22>
 8001874:	2300      	movs	r3, #0
 8001876:	f003 0301 	and.w	r3, r3, #1
 800187a:	b2db      	uxtb	r3, r3
}
 800187c:	4618      	mov	r0, r3
 800187e:	46bd      	mov	sp, r7
 8001880:	f85d 7b04 	ldr.w	r7, [sp], #4
 8001884:	4770      	bx	lr
 8001886:	bf00      	nop
 8001888:	50004200 	.word	0x50004200
 800188c:	50004400 	.word	0x50004400

08001890 <XMC_SCU_HIB_EnableInternalSlowClock>:

/* API to enable internal slow clock - fOSI (32.768kHz) in hibernate domain */
void XMC_SCU_HIB_EnableInternalSlowClock(void)
{
 8001890:	b480      	push	{r7}
 8001892:	af00      	add	r7, sp, #0
  while((SCU_GENERAL->MIRRSTS) & SCU_GENERAL_MIRRSTS_OSCSICTRL_Msk)
 8001894:	bf00      	nop
 8001896:	4b09      	ldr	r3, [pc, #36]	; (80018bc <XMC_SCU_HIB_EnableInternalSlowClock+0x2c>)
 8001898:	f8d3 30c4 	ldr.w	r3, [r3, #196]	; 0xc4
 800189c:	f003 0320 	and.w	r3, r3, #32
 80018a0:	2b00      	cmp	r3, #0
 80018a2:	d1f8      	bne.n	8001896 <XMC_SCU_HIB_EnableInternalSlowClock+0x6>
  {
    /* Wait until OSCSICTRL register in hibernate domain is ready to accept a write */  
  }
  SCU_HIBERNATE->OSCSICTRL &= (uint32_t)~(SCU_HIBERNATE_OSCSICTRL_PWD_Msk);
 80018a4:	4b06      	ldr	r3, [pc, #24]	; (80018c0 <XMC_SCU_HIB_EnableInternalSlowClock+0x30>)
 80018a6:	695b      	ldr	r3, [r3, #20]
 80018a8:	4a05      	ldr	r2, [pc, #20]	; (80018c0 <XMC_SCU_HIB_EnableInternalSlowClock+0x30>)
 80018aa:	f023 0301 	bic.w	r3, r3, #1
 80018ae:	6153      	str	r3, [r2, #20]
}
 80018b0:	bf00      	nop
 80018b2:	46bd      	mov	sp, r7
 80018b4:	f85d 7b04 	ldr.w	r7, [sp], #4
 80018b8:	4770      	bx	lr
 80018ba:	bf00      	nop
 80018bc:	50004000 	.word	0x50004000
 80018c0:	50004300 	.word	0x50004300

080018c4 <XMC_SCU_HIB_DisableInternalSlowClock>:

/* API to disable internal slow clock - fOSI (32.768kHz) in hibernate domain */
void XMC_SCU_HIB_DisableInternalSlowClock(void)
{
 80018c4:	b480      	push	{r7}
 80018c6:	af00      	add	r7, sp, #0
  while((SCU_GENERAL->MIRRSTS) & SCU_GENERAL_MIRRSTS_OSCSICTRL_Msk)
 80018c8:	bf00      	nop
 80018ca:	4b09      	ldr	r3, [pc, #36]	; (80018f0 <XMC_SCU_HIB_DisableInternalSlowClock+0x2c>)
 80018cc:	f8d3 30c4 	ldr.w	r3, [r3, #196]	; 0xc4
 80018d0:	f003 0320 	and.w	r3, r3, #32
 80018d4:	2b00      	cmp	r3, #0
 80018d6:	d1f8      	bne.n	80018ca <XMC_SCU_HIB_DisableInternalSlowClock+0x6>
  {
    /* Wait until OSCSICTRL register in hibernate domain is ready to accept a write */  
  }
  SCU_HIBERNATE->OSCSICTRL |= (uint32_t)SCU_HIBERNATE_OSCSICTRL_PWD_Msk;
 80018d8:	4b06      	ldr	r3, [pc, #24]	; (80018f4 <XMC_SCU_HIB_DisableInternalSlowClock+0x30>)
 80018da:	695b      	ldr	r3, [r3, #20]
 80018dc:	4a05      	ldr	r2, [pc, #20]	; (80018f4 <XMC_SCU_HIB_DisableInternalSlowClock+0x30>)
 80018de:	f043 0301 	orr.w	r3, r3, #1
 80018e2:	6153      	str	r3, [r2, #20]
}
 80018e4:	bf00      	nop
 80018e6:	46bd      	mov	sp, r7
 80018e8:	f85d 7b04 	ldr.w	r7, [sp], #4
 80018ec:	4770      	bx	lr
 80018ee:	bf00      	nop
 80018f0:	50004000 	.word	0x50004000
 80018f4:	50004300 	.word	0x50004300

080018f8 <XMC_SCU_HIB_ClearEventStatus>:

void XMC_SCU_HIB_ClearEventStatus(int32_t event)
{
 80018f8:	b480      	push	{r7}
 80018fa:	b083      	sub	sp, #12
 80018fc:	af00      	add	r7, sp, #0
 80018fe:	6078      	str	r0, [r7, #4]
  while((SCU_GENERAL->MIRRSTS) & SCU_GENERAL_MIRRSTS_HDCLR_Msk)
 8001900:	bf00      	nop
 8001902:	4b08      	ldr	r3, [pc, #32]	; (8001924 <XMC_SCU_HIB_ClearEventStatus+0x2c>)
 8001904:	f8d3 30c4 	ldr.w	r3, [r3, #196]	; 0xc4
 8001908:	f003 0302 	and.w	r3, r3, #2
 800190c:	2b00      	cmp	r3, #0
 800190e:	d1f8      	bne.n	8001902 <XMC_SCU_HIB_ClearEventStatus+0xa>
  {
    /* Wait until HDCLR register in hibernate domain is ready to accept a write */  
  }
  SCU_HIBERNATE->HDCLR = event;
 8001910:	4a05      	ldr	r2, [pc, #20]	; (8001928 <XMC_SCU_HIB_ClearEventStatus+0x30>)
 8001912:	687b      	ldr	r3, [r7, #4]
 8001914:	6053      	str	r3, [r2, #4]
}
 8001916:	bf00      	nop
 8001918:	370c      	adds	r7, #12
 800191a:	46bd      	mov	sp, r7
 800191c:	f85d 7b04 	ldr.w	r7, [sp], #4
 8001920:	4770      	bx	lr
 8001922:	bf00      	nop
 8001924:	50004000 	.word	0x50004000
 8001928:	50004300 	.word	0x50004300

0800192c <XMC_SCU_HIB_TriggerEvent>:

void XMC_SCU_HIB_TriggerEvent(int32_t event)
{
 800192c:	b480      	push	{r7}
 800192e:	b083      	sub	sp, #12
 8001930:	af00      	add	r7, sp, #0
 8001932:	6078      	str	r0, [r7, #4]
  while((SCU_GENERAL->MIRRSTS) & SCU_GENERAL_MIRRSTS_HDSET_Msk)
 8001934:	bf00      	nop
 8001936:	4b08      	ldr	r3, [pc, #32]	; (8001958 <XMC_SCU_HIB_TriggerEvent+0x2c>)
 8001938:	f8d3 30c4 	ldr.w	r3, [r3, #196]	; 0xc4
 800193c:	f003 0304 	and.w	r3, r3, #4
 8001940:	2b00      	cmp	r3, #0
 8001942:	d1f8      	bne.n	8001936 <XMC_SCU_HIB_TriggerEvent+0xa>
  {
    /* Wait until HDSET register in hibernate domain is ready to accept a write */    
  }
  SCU_HIBERNATE->HDSET = event;
 8001944:	4a05      	ldr	r2, [pc, #20]	; (800195c <XMC_SCU_HIB_TriggerEvent+0x30>)
 8001946:	687b      	ldr	r3, [r7, #4]
 8001948:	6093      	str	r3, [r2, #8]
}
 800194a:	bf00      	nop
 800194c:	370c      	adds	r7, #12
 800194e:	46bd      	mov	sp, r7
 8001950:	f85d 7b04 	ldr.w	r7, [sp], #4
 8001954:	4770      	bx	lr
 8001956:	bf00      	nop
 8001958:	50004000 	.word	0x50004000
 800195c:	50004300 	.word	0x50004300

08001960 <XMC_SCU_HIB_EnableEvent>:

void XMC_SCU_HIB_EnableEvent(int32_t event)
{
 8001960:	b480      	push	{r7}
 8001962:	b083      	sub	sp, #12
 8001964:	af00      	add	r7, sp, #0
 8001966:	6078      	str	r0, [r7, #4]
  event = ((event & XMC_SCU_HIB_EVENT_LPAC_HIB_IO_1_POSEDGE) << (SCU_HIBERNATE_HDCR_AHIBIO1HI_Pos - SCU_HIBERNATE_HDSTAT_AHIBIO1PEV_Pos)) | (event & (uint32_t)~XMC_SCU_HIB_EVENT_LPAC_HIB_IO_1_POSEDGE);
  event = ((event & XMC_SCU_HIB_EVENT_LPAC_HIB_IO_1_NEGEDGE) << (SCU_HIBERNATE_HDCR_AHIBIO1LO_Pos - SCU_HIBERNATE_HDSTAT_AHIBIO1NEV_Pos)) | (event & (uint32_t)~XMC_SCU_HIB_EVENT_LPAC_HIB_IO_1_NEGEDGE);
#endif
#endif

  while((SCU_GENERAL->MIRRSTS) & SCU_GENERAL_MIRRSTS_HDCR_Msk)
 8001968:	bf00      	nop
 800196a:	4b09      	ldr	r3, [pc, #36]	; (8001990 <XMC_SCU_HIB_EnableEvent+0x30>)
 800196c:	f8d3 30c4 	ldr.w	r3, [r3, #196]	; 0xc4
 8001970:	f003 0308 	and.w	r3, r3, #8
 8001974:	2b00      	cmp	r3, #0
 8001976:	d1f8      	bne.n	800196a <XMC_SCU_HIB_EnableEvent+0xa>
  {
    /* Wait until HDCR register in hibernate domain is ready to accept a write */    
  }
  SCU_HIBERNATE->HDCR |= event;
 8001978:	4b06      	ldr	r3, [pc, #24]	; (8001994 <XMC_SCU_HIB_EnableEvent+0x34>)
 800197a:	68da      	ldr	r2, [r3, #12]
 800197c:	687b      	ldr	r3, [r7, #4]
 800197e:	4905      	ldr	r1, [pc, #20]	; (8001994 <XMC_SCU_HIB_EnableEvent+0x34>)
 8001980:	4313      	orrs	r3, r2
 8001982:	60cb      	str	r3, [r1, #12]
}
 8001984:	bf00      	nop
 8001986:	370c      	adds	r7, #12
 8001988:	46bd      	mov	sp, r7
 800198a:	f85d 7b04 	ldr.w	r7, [sp], #4
 800198e:	4770      	bx	lr
 8001990:	50004000 	.word	0x50004000
 8001994:	50004300 	.word	0x50004300

08001998 <XMC_SCU_HIB_DisableEvent>:

void XMC_SCU_HIB_DisableEvent(int32_t event)
{
 8001998:	b480      	push	{r7}
 800199a:	b083      	sub	sp, #12
 800199c:	af00      	add	r7, sp, #0
 800199e:	6078      	str	r0, [r7, #4]
  event = ((event & XMC_SCU_HIB_EVENT_LPAC_HIB_IO_1_POSEDGE) << (SCU_HIBERNATE_HDCR_AHIBIO1HI_Pos - SCU_HIBERNATE_HDSTAT_AHIBIO1PEV_Pos)) | (event & (uint32_t)~XMC_SCU_HIB_EVENT_LPAC_HIB_IO_1_POSEDGE);
  event = ((event & XMC_SCU_HIB_EVENT_LPAC_HIB_IO_1_NEGEDGE) << (SCU_HIBERNATE_HDCR_AHIBIO1LO_Pos - SCU_HIBERNATE_HDSTAT_AHIBIO1NEV_Pos)) | (event & (uint32_t)~XMC_SCU_HIB_EVENT_LPAC_HIB_IO_1_NEGEDGE);
#endif
#endif

  while((SCU_GENERAL->MIRRSTS) & SCU_GENERAL_MIRRSTS_HDCR_Msk)
 80019a0:	bf00      	nop
 80019a2:	4b0a      	ldr	r3, [pc, #40]	; (80019cc <XMC_SCU_HIB_DisableEvent+0x34>)
 80019a4:	f8d3 30c4 	ldr.w	r3, [r3, #196]	; 0xc4
 80019a8:	f003 0308 	and.w	r3, r3, #8
 80019ac:	2b00      	cmp	r3, #0
 80019ae:	d1f8      	bne.n	80019a2 <XMC_SCU_HIB_DisableEvent+0xa>
  {
    /* Wait until HDCR register in hibernate domain is ready to accept a write */    
  }
  SCU_HIBERNATE->HDCR &= ~event;
 80019b0:	4b07      	ldr	r3, [pc, #28]	; (80019d0 <XMC_SCU_HIB_DisableEvent+0x38>)
 80019b2:	68db      	ldr	r3, [r3, #12]
 80019b4:	687a      	ldr	r2, [r7, #4]
 80019b6:	43d2      	mvns	r2, r2
 80019b8:	4611      	mov	r1, r2
 80019ba:	4a05      	ldr	r2, [pc, #20]	; (80019d0 <XMC_SCU_HIB_DisableEvent+0x38>)
 80019bc:	400b      	ands	r3, r1
 80019be:	60d3      	str	r3, [r2, #12]
}
 80019c0:	bf00      	nop
 80019c2:	370c      	adds	r7, #12
 80019c4:	46bd      	mov	sp, r7
 80019c6:	f85d 7b04 	ldr.w	r7, [sp], #4
 80019ca:	4770      	bx	lr
 80019cc:	50004000 	.word	0x50004000
 80019d0:	50004300 	.word	0x50004300

080019d4 <XMC_SCU_HIB_EnterHibernateState>:

void XMC_SCU_HIB_EnterHibernateState(void) 
{
 80019d4:	b480      	push	{r7}
 80019d6:	af00      	add	r7, sp, #0
  while((SCU_GENERAL->MIRRSTS) & SCU_GENERAL_MIRRSTS_HDCR_Msk)
 80019d8:	bf00      	nop
 80019da:	4b09      	ldr	r3, [pc, #36]	; (8001a00 <XMC_SCU_HIB_EnterHibernateState+0x2c>)
 80019dc:	f8d3 30c4 	ldr.w	r3, [r3, #196]	; 0xc4
 80019e0:	f003 0308 	and.w	r3, r3, #8
 80019e4:	2b00      	cmp	r3, #0
 80019e6:	d1f8      	bne.n	80019da <XMC_SCU_HIB_EnterHibernateState+0x6>
  {
    /* Wait until HDCR register in hibernate domain is ready to accept a write */    
  }
  SCU_HIBERNATE->HDCR |= SCU_HIBERNATE_HDCR_HIB_Msk;
 80019e8:	4b06      	ldr	r3, [pc, #24]	; (8001a04 <XMC_SCU_HIB_EnterHibernateState+0x30>)
 80019ea:	68db      	ldr	r3, [r3, #12]
 80019ec:	4a05      	ldr	r2, [pc, #20]	; (8001a04 <XMC_SCU_HIB_EnterHibernateState+0x30>)
 80019ee:	f043 0310 	orr.w	r3, r3, #16
 80019f2:	60d3      	str	r3, [r2, #12]
}
 80019f4:	bf00      	nop
 80019f6:	46bd      	mov	sp, r7
 80019f8:	f85d 7b04 	ldr.w	r7, [sp], #4
 80019fc:	4770      	bx	lr
 80019fe:	bf00      	nop
 8001a00:	50004000 	.word	0x50004000
 8001a04:	50004300 	.word	0x50004300

08001a08 <XMC_SCU_HIB_EnterHibernateStateEx>:

void XMC_SCU_HIB_EnterHibernateStateEx(XMC_SCU_HIB_HIBERNATE_MODE_t mode)
{
 8001a08:	b580      	push	{r7, lr}
 8001a0a:	b082      	sub	sp, #8
 8001a0c:	af00      	add	r7, sp, #0
 8001a0e:	4603      	mov	r3, r0
 8001a10:	71fb      	strb	r3, [r7, #7]
  if (mode == XMC_SCU_HIB_HIBERNATE_MODE_EXTERNAL)
 8001a12:	79fb      	ldrb	r3, [r7, #7]
 8001a14:	2b00      	cmp	r3, #0
 8001a16:	d101      	bne.n	8001a1c <XMC_SCU_HIB_EnterHibernateStateEx+0x14>
  {
    XMC_SCU_HIB_EnterHibernateState();
 8001a18:	f7ff ffdc 	bl	80019d4 <XMC_SCU_HIB_EnterHibernateState>
      /* Wait until HDCR register in hibernate domain is ready to accept a write */
    }
    SCU_HIBERNATE->HINTSET = SCU_HIBERNATE_HINTSET_HIBNINT_Msk;
  }
#endif
}
 8001a1c:	bf00      	nop
 8001a1e:	3708      	adds	r7, #8
 8001a20:	46bd      	mov	sp, r7
 8001a22:	bd80      	pop	{r7, pc}

08001a24 <XMC_SCU_HIB_SetWakeupTriggerInput>:

void XMC_SCU_HIB_SetWakeupTriggerInput(XMC_SCU_HIB_IO_t pin)
{
 8001a24:	b480      	push	{r7}
 8001a26:	b083      	sub	sp, #12
 8001a28:	af00      	add	r7, sp, #0
 8001a2a:	4603      	mov	r3, r0
 8001a2c:	71fb      	strb	r3, [r7, #7]
  while((SCU_GENERAL->MIRRSTS) & SCU_GENERAL_MIRRSTS_HDCR_Msk)
 8001a2e:	bf00      	nop
 8001a30:	4b0e      	ldr	r3, [pc, #56]	; (8001a6c <XMC_SCU_HIB_SetWakeupTriggerInput+0x48>)
 8001a32:	f8d3 30c4 	ldr.w	r3, [r3, #196]	; 0xc4
 8001a36:	f003 0308 	and.w	r3, r3, #8
 8001a3a:	2b00      	cmp	r3, #0
 8001a3c:	d1f8      	bne.n	8001a30 <XMC_SCU_HIB_SetWakeupTriggerInput+0xc>
  {
    /* Wait until HDCR register in hibernate domain is ready to accept a write */    
  }

  if (pin == XMC_SCU_HIB_IO_0)
 8001a3e:	79fb      	ldrb	r3, [r7, #7]
 8001a40:	2b00      	cmp	r3, #0
 8001a42:	d106      	bne.n	8001a52 <XMC_SCU_HIB_SetWakeupTriggerInput+0x2e>
  {
    SCU_HIBERNATE->HDCR |= SCU_HIBERNATE_HDCR_WKUPSEL_Msk;
 8001a44:	4b0a      	ldr	r3, [pc, #40]	; (8001a70 <XMC_SCU_HIB_SetWakeupTriggerInput+0x4c>)
 8001a46:	68db      	ldr	r3, [r3, #12]
 8001a48:	4a09      	ldr	r2, [pc, #36]	; (8001a70 <XMC_SCU_HIB_SetWakeupTriggerInput+0x4c>)
 8001a4a:	f443 7380 	orr.w	r3, r3, #256	; 0x100
 8001a4e:	60d3      	str	r3, [r2, #12]
  }
  else
  {
    SCU_HIBERNATE->HDCR &= ~SCU_HIBERNATE_HDCR_WKUPSEL_Msk; 
  }
}
 8001a50:	e005      	b.n	8001a5e <XMC_SCU_HIB_SetWakeupTriggerInput+0x3a>
    SCU_HIBERNATE->HDCR &= ~SCU_HIBERNATE_HDCR_WKUPSEL_Msk; 
 8001a52:	4b07      	ldr	r3, [pc, #28]	; (8001a70 <XMC_SCU_HIB_SetWakeupTriggerInput+0x4c>)
 8001a54:	68db      	ldr	r3, [r3, #12]
 8001a56:	4a06      	ldr	r2, [pc, #24]	; (8001a70 <XMC_SCU_HIB_SetWakeupTriggerInput+0x4c>)
 8001a58:	f423 7380 	bic.w	r3, r3, #256	; 0x100
 8001a5c:	60d3      	str	r3, [r2, #12]
}
 8001a5e:	bf00      	nop
 8001a60:	370c      	adds	r7, #12
 8001a62:	46bd      	mov	sp, r7
 8001a64:	f85d 7b04 	ldr.w	r7, [sp], #4
 8001a68:	4770      	bx	lr
 8001a6a:	bf00      	nop
 8001a6c:	50004000 	.word	0x50004000
 8001a70:	50004300 	.word	0x50004300

08001a74 <XMC_SCU_HIB_SetPinMode>:

void XMC_SCU_HIB_SetPinMode(XMC_SCU_HIB_IO_t pin, XMC_SCU_HIB_PIN_MODE_t mode)
{
 8001a74:	b480      	push	{r7}
 8001a76:	b083      	sub	sp, #12
 8001a78:	af00      	add	r7, sp, #0
 8001a7a:	4603      	mov	r3, r0
 8001a7c:	6039      	str	r1, [r7, #0]
 8001a7e:	71fb      	strb	r3, [r7, #7]
  while((SCU_GENERAL->MIRRSTS) & SCU_GENERAL_MIRRSTS_HDCR_Msk)
 8001a80:	bf00      	nop
 8001a82:	4b0f      	ldr	r3, [pc, #60]	; (8001ac0 <XMC_SCU_HIB_SetPinMode+0x4c>)
 8001a84:	f8d3 30c4 	ldr.w	r3, [r3, #196]	; 0xc4
 8001a88:	f003 0308 	and.w	r3, r3, #8
 8001a8c:	2b00      	cmp	r3, #0
 8001a8e:	d1f8      	bne.n	8001a82 <XMC_SCU_HIB_SetPinMode+0xe>
  {
    /* Wait until HDCR register in hibernate domain is ready to accept a write */    
  }
  SCU_HIBERNATE->HDCR = (SCU_HIBERNATE->HDCR & ~(SCU_HIBERNATE_HDCR_HIBIO0SEL_Msk << (SCU_HIBERNATE_HDCR_HIBIOSEL_Size * pin))) |
 8001a90:	4b0c      	ldr	r3, [pc, #48]	; (8001ac4 <XMC_SCU_HIB_SetPinMode+0x50>)
 8001a92:	68da      	ldr	r2, [r3, #12]
 8001a94:	79fb      	ldrb	r3, [r7, #7]
 8001a96:	009b      	lsls	r3, r3, #2
 8001a98:	f44f 2170 	mov.w	r1, #983040	; 0xf0000
 8001a9c:	fa01 f303 	lsl.w	r3, r1, r3
 8001aa0:	43db      	mvns	r3, r3
 8001aa2:	401a      	ands	r2, r3
                        (mode << (SCU_HIBERNATE_HDCR_HIBIOSEL_Size * pin));
 8001aa4:	79fb      	ldrb	r3, [r7, #7]
 8001aa6:	009b      	lsls	r3, r3, #2
 8001aa8:	6839      	ldr	r1, [r7, #0]
 8001aaa:	fa01 f303 	lsl.w	r3, r1, r3
  SCU_HIBERNATE->HDCR = (SCU_HIBERNATE->HDCR & ~(SCU_HIBERNATE_HDCR_HIBIO0SEL_Msk << (SCU_HIBERNATE_HDCR_HIBIOSEL_Size * pin))) |
 8001aae:	4905      	ldr	r1, [pc, #20]	; (8001ac4 <XMC_SCU_HIB_SetPinMode+0x50>)
 8001ab0:	4313      	orrs	r3, r2
 8001ab2:	60cb      	str	r3, [r1, #12]
}
 8001ab4:	bf00      	nop
 8001ab6:	370c      	adds	r7, #12
 8001ab8:	46bd      	mov	sp, r7
 8001aba:	f85d 7b04 	ldr.w	r7, [sp], #4
 8001abe:	4770      	bx	lr
 8001ac0:	50004000 	.word	0x50004000
 8001ac4:	50004300 	.word	0x50004300

08001ac8 <XMC_SCU_HIB_SetPinOutputLevel>:

void XMC_SCU_HIB_SetPinOutputLevel(XMC_SCU_HIB_IO_t pin, XMC_SCU_HIB_IO_OUTPUT_LEVEL_t level)
{
 8001ac8:	b480      	push	{r7}
 8001aca:	b083      	sub	sp, #12
 8001acc:	af00      	add	r7, sp, #0
 8001ace:	4603      	mov	r3, r0
 8001ad0:	460a      	mov	r2, r1
 8001ad2:	71fb      	strb	r3, [r7, #7]
 8001ad4:	4613      	mov	r3, r2
 8001ad6:	80bb      	strh	r3, [r7, #4]
  while((SCU_GENERAL->MIRRSTS) & SCU_GENERAL_MIRRSTS_HDCR_Msk)
 8001ad8:	bf00      	nop
 8001ada:	4b0f      	ldr	r3, [pc, #60]	; (8001b18 <XMC_SCU_HIB_SetPinOutputLevel+0x50>)
 8001adc:	f8d3 30c4 	ldr.w	r3, [r3, #196]	; 0xc4
 8001ae0:	f003 0308 	and.w	r3, r3, #8
 8001ae4:	2b00      	cmp	r3, #0
 8001ae6:	d1f8      	bne.n	8001ada <XMC_SCU_HIB_SetPinOutputLevel+0x12>
  {
    /* Wait until HDCR register in hibernate domain is ready to accept a write */    
  }
  SCU_HIBERNATE->HDCR = (SCU_HIBERNATE->HDCR & ~(SCU_HIBERNATE_HDCR_HIBIO0POL_Msk << pin)) |
 8001ae8:	4b0c      	ldr	r3, [pc, #48]	; (8001b1c <XMC_SCU_HIB_SetPinOutputLevel+0x54>)
 8001aea:	68da      	ldr	r2, [r3, #12]
 8001aec:	79fb      	ldrb	r3, [r7, #7]
 8001aee:	f44f 5180 	mov.w	r1, #4096	; 0x1000
 8001af2:	fa01 f303 	lsl.w	r3, r1, r3
 8001af6:	43db      	mvns	r3, r3
 8001af8:	4013      	ands	r3, r2
                        (level << pin);
 8001afa:	88b9      	ldrh	r1, [r7, #4]
 8001afc:	79fa      	ldrb	r2, [r7, #7]
 8001afe:	fa01 f202 	lsl.w	r2, r1, r2
 8001b02:	4611      	mov	r1, r2
  SCU_HIBERNATE->HDCR = (SCU_HIBERNATE->HDCR & ~(SCU_HIBERNATE_HDCR_HIBIO0POL_Msk << pin)) |
 8001b04:	4a05      	ldr	r2, [pc, #20]	; (8001b1c <XMC_SCU_HIB_SetPinOutputLevel+0x54>)
 8001b06:	430b      	orrs	r3, r1
 8001b08:	60d3      	str	r3, [r2, #12]
}
 8001b0a:	bf00      	nop
 8001b0c:	370c      	adds	r7, #12
 8001b0e:	46bd      	mov	sp, r7
 8001b10:	f85d 7b04 	ldr.w	r7, [sp], #4
 8001b14:	4770      	bx	lr
 8001b16:	bf00      	nop
 8001b18:	50004000 	.word	0x50004000
 8001b1c:	50004300 	.word	0x50004300

08001b20 <XMC_SCU_HIB_SetInput0>:

void XMC_SCU_HIB_SetInput0(XMC_SCU_HIB_IO_t pin)
{
 8001b20:	b480      	push	{r7}
 8001b22:	b083      	sub	sp, #12
 8001b24:	af00      	add	r7, sp, #0
 8001b26:	4603      	mov	r3, r0
 8001b28:	71fb      	strb	r3, [r7, #7]
  while((SCU_GENERAL->MIRRSTS) & SCU_GENERAL_MIRRSTS_HDCR_Msk)
 8001b2a:	bf00      	nop
 8001b2c:	4b0e      	ldr	r3, [pc, #56]	; (8001b68 <XMC_SCU_HIB_SetInput0+0x48>)
 8001b2e:	f8d3 30c4 	ldr.w	r3, [r3, #196]	; 0xc4
 8001b32:	f003 0308 	and.w	r3, r3, #8
 8001b36:	2b00      	cmp	r3, #0
 8001b38:	d1f8      	bne.n	8001b2c <XMC_SCU_HIB_SetInput0+0xc>
  {
    /* Wait until HDCR register in hibernate domain is ready to accept a write */    
  }

  if (pin == XMC_SCU_HIB_IO_0)
 8001b3a:	79fb      	ldrb	r3, [r7, #7]
 8001b3c:	2b00      	cmp	r3, #0
 8001b3e:	d106      	bne.n	8001b4e <XMC_SCU_HIB_SetInput0+0x2e>
  {
    SCU_HIBERNATE->HDCR |= SCU_HIBERNATE_HDCR_GPI0SEL_Msk;
 8001b40:	4b0a      	ldr	r3, [pc, #40]	; (8001b6c <XMC_SCU_HIB_SetInput0+0x4c>)
 8001b42:	68db      	ldr	r3, [r3, #12]
 8001b44:	4a09      	ldr	r2, [pc, #36]	; (8001b6c <XMC_SCU_HIB_SetInput0+0x4c>)
 8001b46:	f443 6380 	orr.w	r3, r3, #1024	; 0x400
 8001b4a:	60d3      	str	r3, [r2, #12]
  }
  else
  {
    SCU_HIBERNATE->HDCR &= ~SCU_HIBERNATE_HDCR_GPI0SEL_Msk; 
  }
}
 8001b4c:	e005      	b.n	8001b5a <XMC_SCU_HIB_SetInput0+0x3a>
    SCU_HIBERNATE->HDCR &= ~SCU_HIBERNATE_HDCR_GPI0SEL_Msk; 
 8001b4e:	4b07      	ldr	r3, [pc, #28]	; (8001b6c <XMC_SCU_HIB_SetInput0+0x4c>)
 8001b50:	68db      	ldr	r3, [r3, #12]
 8001b52:	4a06      	ldr	r2, [pc, #24]	; (8001b6c <XMC_SCU_HIB_SetInput0+0x4c>)
 8001b54:	f423 6380 	bic.w	r3, r3, #1024	; 0x400
 8001b58:	60d3      	str	r3, [r2, #12]
}
 8001b5a:	bf00      	nop
 8001b5c:	370c      	adds	r7, #12
 8001b5e:	46bd      	mov	sp, r7
 8001b60:	f85d 7b04 	ldr.w	r7, [sp], #4
 8001b64:	4770      	bx	lr
 8001b66:	bf00      	nop
 8001b68:	50004000 	.word	0x50004000
 8001b6c:	50004300 	.word	0x50004300

08001b70 <XMC_SCU_HIB_SetSR0Input>:

void XMC_SCU_HIB_SetSR0Input(XMC_SCU_HIB_SR0_INPUT_t input)
{
 8001b70:	b480      	push	{r7}
 8001b72:	b083      	sub	sp, #12
 8001b74:	af00      	add	r7, sp, #0
 8001b76:	4603      	mov	r3, r0
 8001b78:	80fb      	strh	r3, [r7, #6]
  while((SCU_GENERAL->MIRRSTS) & SCU_GENERAL_MIRRSTS_HDCR_Msk)
 8001b7a:	bf00      	nop
 8001b7c:	4b0a      	ldr	r3, [pc, #40]	; (8001ba8 <XMC_SCU_HIB_SetSR0Input+0x38>)
 8001b7e:	f8d3 30c4 	ldr.w	r3, [r3, #196]	; 0xc4
 8001b82:	f003 0308 	and.w	r3, r3, #8
 8001b86:	2b00      	cmp	r3, #0
 8001b88:	d1f8      	bne.n	8001b7c <XMC_SCU_HIB_SetSR0Input+0xc>
    /* Wait until HDCR register in hibernate domain is ready to accept a write */
  }
#if ((UC_SERIES == XMC44) || (UC_SERIES == XMC42) || (UC_SERIES == XMC41))
  SCU_HIBERNATE->HDCR = (SCU_HIBERNATE->HDCR & (uint32_t)~(SCU_HIBERNATE_HDCR_GPI0SEL_Msk | SCU_HIBERNATE_HDCR_ADIG0SEL_Msk)) | 
#else
  SCU_HIBERNATE->HDCR = (SCU_HIBERNATE->HDCR & (uint32_t)~(SCU_HIBERNATE_HDCR_GPI0SEL_Msk)) | 
 8001b8a:	4b08      	ldr	r3, [pc, #32]	; (8001bac <XMC_SCU_HIB_SetSR0Input+0x3c>)
 8001b8c:	68db      	ldr	r3, [r3, #12]
 8001b8e:	f423 6280 	bic.w	r2, r3, #1024	; 0x400
 8001b92:	88fb      	ldrh	r3, [r7, #6]
 8001b94:	4905      	ldr	r1, [pc, #20]	; (8001bac <XMC_SCU_HIB_SetSR0Input+0x3c>)
 8001b96:	4313      	orrs	r3, r2
 8001b98:	60cb      	str	r3, [r1, #12]
#endif  
                        input;
}
 8001b9a:	bf00      	nop
 8001b9c:	370c      	adds	r7, #12
 8001b9e:	46bd      	mov	sp, r7
 8001ba0:	f85d 7b04 	ldr.w	r7, [sp], #4
 8001ba4:	4770      	bx	lr
 8001ba6:	bf00      	nop
 8001ba8:	50004000 	.word	0x50004000
 8001bac:	50004300 	.word	0x50004300

08001bb0 <XMC_SCU_CLOCK_IsLowPowerOscillatorStable>:
}

#endif

bool XMC_SCU_CLOCK_IsLowPowerOscillatorStable(void)
{
 8001bb0:	b480      	push	{r7}
 8001bb2:	af00      	add	r7, sp, #0
  return ((SCU_HIBERNATE->HDSTAT & SCU_HIBERNATE_HDSTAT_ULPWDG_Msk) == 0UL);
 8001bb4:	4b06      	ldr	r3, [pc, #24]	; (8001bd0 <XMC_SCU_CLOCK_IsLowPowerOscillatorStable+0x20>)
 8001bb6:	681b      	ldr	r3, [r3, #0]
 8001bb8:	f003 0308 	and.w	r3, r3, #8
 8001bbc:	2b00      	cmp	r3, #0
 8001bbe:	bf0c      	ite	eq
 8001bc0:	2301      	moveq	r3, #1
 8001bc2:	2300      	movne	r3, #0
 8001bc4:	b2db      	uxtb	r3, r3
}
 8001bc6:	4618      	mov	r0, r3
 8001bc8:	46bd      	mov	sp, r7
 8001bca:	f85d 7b04 	ldr.w	r7, [sp], #4
 8001bce:	4770      	bx	lr
 8001bd0:	50004300 	.word	0x50004300

08001bd4 <XMC_SCU_CLOCK_EnableLowPowerOscillator>:

/* API to configure the 32khz Ultra Low Power oscillator */
void XMC_SCU_CLOCK_EnableLowPowerOscillator(void)
{
 8001bd4:	b580      	push	{r7, lr}
 8001bd6:	af00      	add	r7, sp, #0
  /* Enable OSC_ULP */
  while((SCU_GENERAL->MIRRSTS) & SCU_GENERAL_MIRRSTS_OSCULCTRL_Msk)
 8001bd8:	bf00      	nop
 8001bda:	4b17      	ldr	r3, [pc, #92]	; (8001c38 <XMC_SCU_CLOCK_EnableLowPowerOscillator+0x64>)
 8001bdc:	f8d3 30c4 	ldr.w	r3, [r3, #196]	; 0xc4
 8001be0:	f003 0380 	and.w	r3, r3, #128	; 0x80
 8001be4:	2b00      	cmp	r3, #0
 8001be6:	d1f8      	bne.n	8001bda <XMC_SCU_CLOCK_EnableLowPowerOscillator+0x6>
  {
    /* Wait until no pending update to OSCULCTRL register in hibernate domain */
  }
  SCU_HIBERNATE->OSCULCTRL &= ~SCU_HIBERNATE_OSCULCTRL_MODE_Msk;
 8001be8:	4b14      	ldr	r3, [pc, #80]	; (8001c3c <XMC_SCU_CLOCK_EnableLowPowerOscillator+0x68>)
 8001bea:	69db      	ldr	r3, [r3, #28]
 8001bec:	4a13      	ldr	r2, [pc, #76]	; (8001c3c <XMC_SCU_CLOCK_EnableLowPowerOscillator+0x68>)
 8001bee:	f023 0330 	bic.w	r3, r3, #48	; 0x30
 8001bf2:	61d3      	str	r3, [r2, #28]

  /* Enable OSC_ULP Oscillator Watchdog*/
  while (SCU_GENERAL->MIRRSTS & SCU_GENERAL_MIRRSTS_HDCR_Msk)
 8001bf4:	bf00      	nop
 8001bf6:	4b10      	ldr	r3, [pc, #64]	; (8001c38 <XMC_SCU_CLOCK_EnableLowPowerOscillator+0x64>)
 8001bf8:	f8d3 30c4 	ldr.w	r3, [r3, #196]	; 0xc4
 8001bfc:	f003 0308 	and.w	r3, r3, #8
 8001c00:	2b00      	cmp	r3, #0
 8001c02:	d1f8      	bne.n	8001bf6 <XMC_SCU_CLOCK_EnableLowPowerOscillator+0x22>
  {
    /* check SCU_MIRRSTS to ensure that no transfer over serial interface is pending */
  }
  SCU_HIBERNATE->HDCR |= (uint32_t)SCU_HIBERNATE_HDCR_ULPWDGEN_Msk;
 8001c04:	4b0d      	ldr	r3, [pc, #52]	; (8001c3c <XMC_SCU_CLOCK_EnableLowPowerOscillator+0x68>)
 8001c06:	68db      	ldr	r3, [r3, #12]
 8001c08:	4a0c      	ldr	r2, [pc, #48]	; (8001c3c <XMC_SCU_CLOCK_EnableLowPowerOscillator+0x68>)
 8001c0a:	f043 0308 	orr.w	r3, r3, #8
 8001c0e:	60d3      	str	r3, [r2, #12]

  /* Enable OSC_ULP Oscillator Watchdog*/
  while (SCU_GENERAL->MIRRSTS & SCU_GENERAL_MIRRSTS_HDSET_Msk)
 8001c10:	bf00      	nop
 8001c12:	4b09      	ldr	r3, [pc, #36]	; (8001c38 <XMC_SCU_CLOCK_EnableLowPowerOscillator+0x64>)
 8001c14:	f8d3 30c4 	ldr.w	r3, [r3, #196]	; 0xc4
 8001c18:	f003 0304 	and.w	r3, r3, #4
 8001c1c:	2b00      	cmp	r3, #0
 8001c1e:	d1f8      	bne.n	8001c12 <XMC_SCU_CLOCK_EnableLowPowerOscillator+0x3e>
  {
    /* check SCU_MIRRSTS to ensure that no transfer over serial interface is pending */
  }
  SCU_HIBERNATE->HDSET = (uint32_t)SCU_HIBERNATE_HDSET_ULPWDG_Msk;
 8001c20:	4b06      	ldr	r3, [pc, #24]	; (8001c3c <XMC_SCU_CLOCK_EnableLowPowerOscillator+0x68>)
 8001c22:	2208      	movs	r2, #8
 8001c24:	609a      	str	r2, [r3, #8]

  while (XMC_SCU_GetMirrorStatus() != 0)
 8001c26:	bf00      	nop
 8001c28:	f7fe fe46 	bl	80008b8 <XMC_SCU_GetMirrorStatus>
 8001c2c:	4603      	mov	r3, r0
 8001c2e:	2b00      	cmp	r3, #0
 8001c30:	d1fa      	bne.n	8001c28 <XMC_SCU_CLOCK_EnableLowPowerOscillator+0x54>
  {
    /* Wait until update of the stanby clock source is done in the HIB domain */    
  }
}
 8001c32:	bf00      	nop
 8001c34:	bf00      	nop
 8001c36:	bd80      	pop	{r7, pc}
 8001c38:	50004000 	.word	0x50004000
 8001c3c:	50004300 	.word	0x50004300

08001c40 <XMC_SCU_CLOCK_DisableLowPowerOscillator>:

/* API to configure the 32khz Ultra Low Power oscillator */
void XMC_SCU_CLOCK_DisableLowPowerOscillator(void)
{
 8001c40:	b480      	push	{r7}
 8001c42:	af00      	add	r7, sp, #0
  while((SCU_GENERAL->MIRRSTS) & SCU_GENERAL_MIRRSTS_OSCULCTRL_Msk)
 8001c44:	bf00      	nop
 8001c46:	4b09      	ldr	r3, [pc, #36]	; (8001c6c <XMC_SCU_CLOCK_DisableLowPowerOscillator+0x2c>)
 8001c48:	f8d3 30c4 	ldr.w	r3, [r3, #196]	; 0xc4
 8001c4c:	f003 0380 	and.w	r3, r3, #128	; 0x80
 8001c50:	2b00      	cmp	r3, #0
 8001c52:	d1f8      	bne.n	8001c46 <XMC_SCU_CLOCK_DisableLowPowerOscillator+0x6>
  {
    /* Wait until OSCULCTRL register in hibernate domain is ready to accept a write */    
  }
  SCU_HIBERNATE->OSCULCTRL |= (uint32_t)SCU_HIBERNATE_OSCULCTRL_MODE_Msk;
 8001c54:	4b06      	ldr	r3, [pc, #24]	; (8001c70 <XMC_SCU_CLOCK_DisableLowPowerOscillator+0x30>)
 8001c56:	69db      	ldr	r3, [r3, #28]
 8001c58:	4a05      	ldr	r2, [pc, #20]	; (8001c70 <XMC_SCU_CLOCK_DisableLowPowerOscillator+0x30>)
 8001c5a:	f043 0330 	orr.w	r3, r3, #48	; 0x30
 8001c5e:	61d3      	str	r3, [r2, #28]
}
 8001c60:	bf00      	nop
 8001c62:	46bd      	mov	sp, r7
 8001c64:	f85d 7b04 	ldr.w	r7, [sp], #4
 8001c68:	4770      	bx	lr
 8001c6a:	bf00      	nop
 8001c6c:	50004000 	.word	0x50004000
 8001c70:	50004300 	.word	0x50004300

08001c74 <XMC_SCU_CLOCK_EnableLowPowerOscillatorGeneralPurposeInput>:

void XMC_SCU_CLOCK_EnableLowPowerOscillatorGeneralPurposeInput(void)
{
 8001c74:	b480      	push	{r7}
 8001c76:	af00      	add	r7, sp, #0
  while((SCU_GENERAL->MIRRSTS) & SCU_GENERAL_MIRRSTS_OSCULCTRL_Msk)
 8001c78:	bf00      	nop
 8001c7a:	4b09      	ldr	r3, [pc, #36]	; (8001ca0 <XMC_SCU_CLOCK_EnableLowPowerOscillatorGeneralPurposeInput+0x2c>)
 8001c7c:	f8d3 30c4 	ldr.w	r3, [r3, #196]	; 0xc4
 8001c80:	f003 0380 	and.w	r3, r3, #128	; 0x80
 8001c84:	2b00      	cmp	r3, #0
 8001c86:	d1f8      	bne.n	8001c7a <XMC_SCU_CLOCK_EnableLowPowerOscillatorGeneralPurposeInput+0x6>
  {
    /* Wait until OSCULCTRL register in hibernate domain is ready to accept a write */    
  }
  SCU_HIBERNATE->OSCULCTRL |= SCU_HIBERNATE_OSCULCTRL_X1DEN_Msk | SCU_HIBERNATE_OSCULCTRL_MODE_Msk;
 8001c88:	4b06      	ldr	r3, [pc, #24]	; (8001ca4 <XMC_SCU_CLOCK_EnableLowPowerOscillatorGeneralPurposeInput+0x30>)
 8001c8a:	69db      	ldr	r3, [r3, #28]
 8001c8c:	4a05      	ldr	r2, [pc, #20]	; (8001ca4 <XMC_SCU_CLOCK_EnableLowPowerOscillatorGeneralPurposeInput+0x30>)
 8001c8e:	f043 0331 	orr.w	r3, r3, #49	; 0x31
 8001c92:	61d3      	str	r3, [r2, #28]
}
 8001c94:	bf00      	nop
 8001c96:	46bd      	mov	sp, r7
 8001c98:	f85d 7b04 	ldr.w	r7, [sp], #4
 8001c9c:	4770      	bx	lr
 8001c9e:	bf00      	nop
 8001ca0:	50004000 	.word	0x50004000
 8001ca4:	50004300 	.word	0x50004300

08001ca8 <XMC_SCU_CLOCK_DisableLowPowerOscillatorGeneralPurposeInput>:

void XMC_SCU_CLOCK_DisableLowPowerOscillatorGeneralPurposeInput(void)
{
 8001ca8:	b480      	push	{r7}
 8001caa:	af00      	add	r7, sp, #0
  while((SCU_GENERAL->MIRRSTS) & SCU_GENERAL_MIRRSTS_OSCULCTRL_Msk)
 8001cac:	bf00      	nop
 8001cae:	4b0a      	ldr	r3, [pc, #40]	; (8001cd8 <XMC_SCU_CLOCK_DisableLowPowerOscillatorGeneralPurposeInput+0x30>)
 8001cb0:	f8d3 30c4 	ldr.w	r3, [r3, #196]	; 0xc4
 8001cb4:	f003 0380 	and.w	r3, r3, #128	; 0x80
 8001cb8:	2b00      	cmp	r3, #0
 8001cba:	d1f8      	bne.n	8001cae <XMC_SCU_CLOCK_DisableLowPowerOscillatorGeneralPurposeInput+0x6>
  {
    /* Wait until OSCULCTRL register in hibernate domain is ready to accept a write */    
  }
  SCU_HIBERNATE->OSCULCTRL = (SCU_HIBERNATE->OSCULCTRL & ~(uint32_t)(SCU_HIBERNATE_OSCULCTRL_X1DEN_Msk | SCU_HIBERNATE_OSCULCTRL_MODE_Msk)) |
 8001cbc:	4b07      	ldr	r3, [pc, #28]	; (8001cdc <XMC_SCU_CLOCK_DisableLowPowerOscillatorGeneralPurposeInput+0x34>)
 8001cbe:	69db      	ldr	r3, [r3, #28]
 8001cc0:	f023 0331 	bic.w	r3, r3, #49	; 0x31
 8001cc4:	4a05      	ldr	r2, [pc, #20]	; (8001cdc <XMC_SCU_CLOCK_DisableLowPowerOscillatorGeneralPurposeInput+0x34>)
 8001cc6:	f043 0320 	orr.w	r3, r3, #32
 8001cca:	61d3      	str	r3, [r2, #28]
                             (SCU_HIBERNATE_OSCULCTRL_MODE_OSC_POWER_DOWN << SCU_HIBERNATE_OSCULCTRL_MODE_Pos);                       
}
 8001ccc:	bf00      	nop
 8001cce:	46bd      	mov	sp, r7
 8001cd0:	f85d 7b04 	ldr.w	r7, [sp], #4
 8001cd4:	4770      	bx	lr
 8001cd6:	bf00      	nop
 8001cd8:	50004000 	.word	0x50004000
 8001cdc:	50004300 	.word	0x50004300

08001ce0 <XMC_SCU_CLOCK_GetLowPowerOscillatorGeneralPurposeInputStatus>:

uint32_t XMC_SCU_CLOCK_GetLowPowerOscillatorGeneralPurposeInputStatus(void)
{
 8001ce0:	b480      	push	{r7}
 8001ce2:	af00      	add	r7, sp, #0
  return (SCU_HIBERNATE->OSCULSTAT & SCU_HIBERNATE_OSCULSTAT_X1D_Msk);
 8001ce4:	4b04      	ldr	r3, [pc, #16]	; (8001cf8 <XMC_SCU_CLOCK_GetLowPowerOscillatorGeneralPurposeInputStatus+0x18>)
 8001ce6:	699b      	ldr	r3, [r3, #24]
 8001ce8:	f003 0301 	and.w	r3, r3, #1
}
 8001cec:	4618      	mov	r0, r3
 8001cee:	46bd      	mov	sp, r7
 8001cf0:	f85d 7b04 	ldr.w	r7, [sp], #4
 8001cf4:	4770      	bx	lr
 8001cf6:	bf00      	nop
 8001cf8:	50004300 	.word	0x50004300

08001cfc <XMC_SCU_CLOCK_EnableHighPerformanceOscillator>:

/* API to enable High Precision High Speed oscillator */
void XMC_SCU_CLOCK_EnableHighPerformanceOscillator(void)
{
 8001cfc:	b598      	push	{r3, r4, r7, lr}
 8001cfe:	af00      	add	r7, sp, #0
  SCU_PLL->PLLCON0 &= (uint32_t)~SCU_PLL_PLLCON0_PLLPWD_Msk;
 8001d00:	4b0f      	ldr	r3, [pc, #60]	; (8001d40 <XMC_SCU_CLOCK_EnableHighPerformanceOscillator+0x44>)
 8001d02:	685b      	ldr	r3, [r3, #4]
 8001d04:	4a0e      	ldr	r2, [pc, #56]	; (8001d40 <XMC_SCU_CLOCK_EnableHighPerformanceOscillator+0x44>)
 8001d06:	f423 3380 	bic.w	r3, r3, #65536	; 0x10000
 8001d0a:	6053      	str	r3, [r2, #4]

  SCU_OSC->OSCHPCTRL = (uint32_t)((SCU_OSC->OSCHPCTRL & ~(SCU_OSC_OSCHPCTRL_MODE_Msk | SCU_OSC_OSCHPCTRL_OSCVAL_Msk)) |
 8001d0c:	4b0d      	ldr	r3, [pc, #52]	; (8001d44 <XMC_SCU_CLOCK_EnableHighPerformanceOscillator+0x48>)
 8001d0e:	685b      	ldr	r3, [r3, #4]
 8001d10:	f423 2470 	bic.w	r4, r3, #983040	; 0xf0000
 8001d14:	f024 0430 	bic.w	r4, r4, #48	; 0x30
                                  (((OSCHP_GetFrequency() / FOSCREF) - 1UL) << SCU_OSC_OSCHPCTRL_OSCVAL_Pos));
 8001d18:	f004 fa02 	bl	8006120 <OSCHP_GetFrequency>
 8001d1c:	4603      	mov	r3, r0
 8001d1e:	4a0a      	ldr	r2, [pc, #40]	; (8001d48 <XMC_SCU_CLOCK_EnableHighPerformanceOscillator+0x4c>)
 8001d20:	fba2 2303 	umull	r2, r3, r2, r3
 8001d24:	0d1b      	lsrs	r3, r3, #20
 8001d26:	3b01      	subs	r3, #1
 8001d28:	041b      	lsls	r3, r3, #16
  SCU_OSC->OSCHPCTRL = (uint32_t)((SCU_OSC->OSCHPCTRL & ~(SCU_OSC_OSCHPCTRL_MODE_Msk | SCU_OSC_OSCHPCTRL_OSCVAL_Msk)) |
 8001d2a:	4a06      	ldr	r2, [pc, #24]	; (8001d44 <XMC_SCU_CLOCK_EnableHighPerformanceOscillator+0x48>)
 8001d2c:	4323      	orrs	r3, r4
 8001d2e:	6053      	str	r3, [r2, #4]

  /* restart OSC Watchdog */
  SCU_PLL->PLLCON0 &= (uint32_t)~SCU_PLL_PLLCON0_OSCRES_Msk;
 8001d30:	4b03      	ldr	r3, [pc, #12]	; (8001d40 <XMC_SCU_CLOCK_EnableHighPerformanceOscillator+0x44>)
 8001d32:	685b      	ldr	r3, [r3, #4]
 8001d34:	4a02      	ldr	r2, [pc, #8]	; (8001d40 <XMC_SCU_CLOCK_EnableHighPerformanceOscillator+0x44>)
 8001d36:	f423 3300 	bic.w	r3, r3, #131072	; 0x20000
 8001d3a:	6053      	str	r3, [r2, #4]
}
 8001d3c:	bf00      	nop
 8001d3e:	bd98      	pop	{r3, r4, r7, pc}
 8001d40:	50004710 	.word	0x50004710
 8001d44:	50004700 	.word	0x50004700
 8001d48:	6b5fca6b 	.word	0x6b5fca6b

08001d4c <XMC_SCU_CLOCK_IsHighPerformanceOscillatorStable>:

bool XMC_SCU_CLOCK_IsHighPerformanceOscillatorStable(void)
{
 8001d4c:	b480      	push	{r7}
 8001d4e:	af00      	add	r7, sp, #0
  return ((SCU_PLL->PLLSTAT & XMC_SCU_PLL_PLLSTAT_OSC_USABLE) == XMC_SCU_PLL_PLLSTAT_OSC_USABLE);
 8001d50:	4b07      	ldr	r3, [pc, #28]	; (8001d70 <XMC_SCU_CLOCK_IsHighPerformanceOscillatorStable+0x24>)
 8001d52:	681b      	ldr	r3, [r3, #0]
 8001d54:	f403 7360 	and.w	r3, r3, #896	; 0x380
 8001d58:	f5b3 7f60 	cmp.w	r3, #896	; 0x380
 8001d5c:	bf0c      	ite	eq
 8001d5e:	2301      	moveq	r3, #1
 8001d60:	2300      	movne	r3, #0
 8001d62:	b2db      	uxtb	r3, r3
}
 8001d64:	4618      	mov	r0, r3
 8001d66:	46bd      	mov	sp, r7
 8001d68:	f85d 7b04 	ldr.w	r7, [sp], #4
 8001d6c:	4770      	bx	lr
 8001d6e:	bf00      	nop
 8001d70:	50004710 	.word	0x50004710

08001d74 <XMC_SCU_CLOCK_DisableHighPerformanceOscillator>:

/* API to disable High Precision High Speed oscillator */
void XMC_SCU_CLOCK_DisableHighPerformanceOscillator(void)
{
 8001d74:	b480      	push	{r7}
 8001d76:	af00      	add	r7, sp, #0
  SCU_OSC->OSCHPCTRL |= (uint32_t)SCU_OSC_OSCHPCTRL_MODE_Msk;
 8001d78:	4b05      	ldr	r3, [pc, #20]	; (8001d90 <XMC_SCU_CLOCK_DisableHighPerformanceOscillator+0x1c>)
 8001d7a:	685b      	ldr	r3, [r3, #4]
 8001d7c:	4a04      	ldr	r2, [pc, #16]	; (8001d90 <XMC_SCU_CLOCK_DisableHighPerformanceOscillator+0x1c>)
 8001d7e:	f043 0330 	orr.w	r3, r3, #48	; 0x30
 8001d82:	6053      	str	r3, [r2, #4]
}
 8001d84:	bf00      	nop
 8001d86:	46bd      	mov	sp, r7
 8001d88:	f85d 7b04 	ldr.w	r7, [sp], #4
 8001d8c:	4770      	bx	lr
 8001d8e:	bf00      	nop
 8001d90:	50004700 	.word	0x50004700

08001d94 <XMC_SCU_CLOCK_EnableHighPerformanceOscillatorGeneralPurposeInput>:

void XMC_SCU_CLOCK_EnableHighPerformanceOscillatorGeneralPurposeInput(void)
{
 8001d94:	b480      	push	{r7}
 8001d96:	af00      	add	r7, sp, #0
  SCU_OSC->OSCHPCTRL |= SCU_OSC_OSCHPCTRL_X1DEN_Msk;
 8001d98:	4b05      	ldr	r3, [pc, #20]	; (8001db0 <XMC_SCU_CLOCK_EnableHighPerformanceOscillatorGeneralPurposeInput+0x1c>)
 8001d9a:	685b      	ldr	r3, [r3, #4]
 8001d9c:	4a04      	ldr	r2, [pc, #16]	; (8001db0 <XMC_SCU_CLOCK_EnableHighPerformanceOscillatorGeneralPurposeInput+0x1c>)
 8001d9e:	f043 0301 	orr.w	r3, r3, #1
 8001da2:	6053      	str	r3, [r2, #4]
}
 8001da4:	bf00      	nop
 8001da6:	46bd      	mov	sp, r7
 8001da8:	f85d 7b04 	ldr.w	r7, [sp], #4
 8001dac:	4770      	bx	lr
 8001dae:	bf00      	nop
 8001db0:	50004700 	.word	0x50004700

08001db4 <XMC_SCU_CLOCK_DisableHighPerformanceOscillatorGeneralPurposeInput>:

void XMC_SCU_CLOCK_DisableHighPerformanceOscillatorGeneralPurposeInput(void)
{
 8001db4:	b480      	push	{r7}
 8001db6:	af00      	add	r7, sp, #0
  SCU_OSC->OSCHPCTRL &= ~SCU_OSC_OSCHPCTRL_X1DEN_Msk;
 8001db8:	4b05      	ldr	r3, [pc, #20]	; (8001dd0 <XMC_SCU_CLOCK_DisableHighPerformanceOscillatorGeneralPurposeInput+0x1c>)
 8001dba:	685b      	ldr	r3, [r3, #4]
 8001dbc:	4a04      	ldr	r2, [pc, #16]	; (8001dd0 <XMC_SCU_CLOCK_DisableHighPerformanceOscillatorGeneralPurposeInput+0x1c>)
 8001dbe:	f023 0301 	bic.w	r3, r3, #1
 8001dc2:	6053      	str	r3, [r2, #4]
}
 8001dc4:	bf00      	nop
 8001dc6:	46bd      	mov	sp, r7
 8001dc8:	f85d 7b04 	ldr.w	r7, [sp], #4
 8001dcc:	4770      	bx	lr
 8001dce:	bf00      	nop
 8001dd0:	50004700 	.word	0x50004700

08001dd4 <XMC_SCU_CLOCK_GetHighPerformanceOscillatorGeneralPurposeInputStatus>:

uint32_t XMC_SCU_CLOCK_GetHighPerformanceOscillatorGeneralPurposeInputStatus(void)
{
 8001dd4:	b480      	push	{r7}
 8001dd6:	af00      	add	r7, sp, #0
  return (SCU_OSC->OSCHPSTAT & SCU_OSC_OSCHPSTAT_X1D_Msk);
 8001dd8:	4b04      	ldr	r3, [pc, #16]	; (8001dec <XMC_SCU_CLOCK_GetHighPerformanceOscillatorGeneralPurposeInputStatus+0x18>)
 8001dda:	681b      	ldr	r3, [r3, #0]
 8001ddc:	f003 0301 	and.w	r3, r3, #1
}
 8001de0:	4618      	mov	r0, r3
 8001de2:	46bd      	mov	sp, r7
 8001de4:	f85d 7b04 	ldr.w	r7, [sp], #4
 8001de8:	4770      	bx	lr
 8001dea:	bf00      	nop
 8001dec:	50004700 	.word	0x50004700

08001df0 <XMC_SCU_CLOCK_EnableSystemPll>:

/* API to enable main PLL */
void XMC_SCU_CLOCK_EnableSystemPll(void)
{
 8001df0:	b480      	push	{r7}
 8001df2:	af00      	add	r7, sp, #0
  SCU_PLL->PLLCON0 &= (uint32_t)~(SCU_PLL_PLLCON0_VCOPWD_Msk | SCU_PLL_PLLCON0_PLLPWD_Msk);
 8001df4:	4b06      	ldr	r3, [pc, #24]	; (8001e10 <XMC_SCU_CLOCK_EnableSystemPll+0x20>)
 8001df6:	685b      	ldr	r3, [r3, #4]
 8001df8:	4a05      	ldr	r2, [pc, #20]	; (8001e10 <XMC_SCU_CLOCK_EnableSystemPll+0x20>)
 8001dfa:	f423 3380 	bic.w	r3, r3, #65536	; 0x10000
 8001dfe:	f023 0302 	bic.w	r3, r3, #2
 8001e02:	6053      	str	r3, [r2, #4]
}
 8001e04:	bf00      	nop
 8001e06:	46bd      	mov	sp, r7
 8001e08:	f85d 7b04 	ldr.w	r7, [sp], #4
 8001e0c:	4770      	bx	lr
 8001e0e:	bf00      	nop
 8001e10:	50004710 	.word	0x50004710

08001e14 <XMC_SCU_CLOCK_DisableSystemPll>:

/* API to disable main PLL */
void XMC_SCU_CLOCK_DisableSystemPll(void)
{
 8001e14:	b480      	push	{r7}
 8001e16:	af00      	add	r7, sp, #0
  SCU_PLL->PLLCON0 |= (uint32_t)(SCU_PLL_PLLCON0_VCOPWD_Msk | SCU_PLL_PLLCON0_PLLPWD_Msk);
 8001e18:	4b06      	ldr	r3, [pc, #24]	; (8001e34 <XMC_SCU_CLOCK_DisableSystemPll+0x20>)
 8001e1a:	685b      	ldr	r3, [r3, #4]
 8001e1c:	4a05      	ldr	r2, [pc, #20]	; (8001e34 <XMC_SCU_CLOCK_DisableSystemPll+0x20>)
 8001e1e:	f443 3380 	orr.w	r3, r3, #65536	; 0x10000
 8001e22:	f043 0302 	orr.w	r3, r3, #2
 8001e26:	6053      	str	r3, [r2, #4]
}
 8001e28:	bf00      	nop
 8001e2a:	46bd      	mov	sp, r7
 8001e2c:	f85d 7b04 	ldr.w	r7, [sp], #4
 8001e30:	4770      	bx	lr
 8001e32:	bf00      	nop
 8001e34:	50004710 	.word	0x50004710

08001e38 <XMC_SCU_CLOCK_StartSystemPll>:
void XMC_SCU_CLOCK_StartSystemPll(XMC_SCU_CLOCK_SYSPLLCLKSRC_t source,
                                  XMC_SCU_CLOCK_SYSPLL_MODE_t mode,
                                  uint32_t pdiv,
                                  uint32_t ndiv,
                                  uint32_t kdiv)
{
 8001e38:	b580      	push	{r7, lr}
 8001e3a:	b086      	sub	sp, #24
 8001e3c:	af00      	add	r7, sp, #0
 8001e3e:	60ba      	str	r2, [r7, #8]
 8001e40:	607b      	str	r3, [r7, #4]
 8001e42:	4603      	mov	r3, r0
 8001e44:	81fb      	strh	r3, [r7, #14]
 8001e46:	460b      	mov	r3, r1
 8001e48:	737b      	strb	r3, [r7, #13]

  uint32_t vco_frequency; /* Q10.22, max VCO frequency = 520MHz */
  uint32_t kdiv_temp;

  XMC_SCU_CLOCK_SetSystemPllClockSource(source);
 8001e4a:	89fb      	ldrh	r3, [r7, #14]
 8001e4c:	4618      	mov	r0, r3
 8001e4e:	f7ff fa85 	bl	800135c <XMC_SCU_CLOCK_SetSystemPllClockSource>

  if (mode == XMC_SCU_CLOCK_SYSPLL_MODE_NORMAL)
 8001e52:	7b7b      	ldrb	r3, [r7, #13]
 8001e54:	2b01      	cmp	r3, #1
 8001e56:	f040 8084 	bne.w	8001f62 <XMC_SCU_CLOCK_StartSystemPll+0x12a>
  {
    /* Calculate initial step to be close to fOFI */
    if (source == XMC_SCU_CLOCK_SYSPLLCLKSRC_OSCHP)
 8001e5a:	89fb      	ldrh	r3, [r7, #14]
 8001e5c:	2b00      	cmp	r3, #0
 8001e5e:	d109      	bne.n	8001e74 <XMC_SCU_CLOCK_StartSystemPll+0x3c>
    {
      vco_frequency = (OSCHP_GetFrequency() / 1000000U) << 22;
 8001e60:	f004 f95e 	bl	8006120 <OSCHP_GetFrequency>
 8001e64:	4603      	mov	r3, r0
 8001e66:	4a4c      	ldr	r2, [pc, #304]	; (8001f98 <XMC_SCU_CLOCK_StartSystemPll+0x160>)
 8001e68:	fba2 2303 	umull	r2, r3, r2, r3
 8001e6c:	0c9b      	lsrs	r3, r3, #18
 8001e6e:	059b      	lsls	r3, r3, #22
 8001e70:	617b      	str	r3, [r7, #20]
 8001e72:	e002      	b.n	8001e7a <XMC_SCU_CLOCK_StartSystemPll+0x42>
    }
    else
    {
      vco_frequency = (OFI_FREQUENCY / 1000000U) << 22;
 8001e74:	f04f 63c0 	mov.w	r3, #100663296	; 0x6000000
 8001e78:	617b      	str	r3, [r7, #20]
    }
    vco_frequency = ((vco_frequency * ndiv) / pdiv);
 8001e7a:	697b      	ldr	r3, [r7, #20]
 8001e7c:	687a      	ldr	r2, [r7, #4]
 8001e7e:	fb03 f202 	mul.w	r2, r3, r2
 8001e82:	68bb      	ldr	r3, [r7, #8]
 8001e84:	fbb2 f3f3 	udiv	r3, r2, r3
 8001e88:	617b      	str	r3, [r7, #20]
    kdiv_temp = (vco_frequency / (OFI_FREQUENCY / 1000000U)) >> 22;
 8001e8a:	697b      	ldr	r3, [r7, #20]
 8001e8c:	4a43      	ldr	r2, [pc, #268]	; (8001f9c <XMC_SCU_CLOCK_StartSystemPll+0x164>)
 8001e8e:	fba2 2303 	umull	r2, r3, r2, r3
 8001e92:	091b      	lsrs	r3, r3, #4
 8001e94:	0d9b      	lsrs	r3, r3, #22
 8001e96:	613b      	str	r3, [r7, #16]

    /* Switch to prescaler mode */
    SCU_PLL->PLLCON0 |= (uint32_t)SCU_PLL_PLLCON0_VCOBYP_Msk;
 8001e98:	4b41      	ldr	r3, [pc, #260]	; (8001fa0 <XMC_SCU_CLOCK_StartSystemPll+0x168>)
 8001e9a:	685b      	ldr	r3, [r3, #4]
 8001e9c:	4a40      	ldr	r2, [pc, #256]	; (8001fa0 <XMC_SCU_CLOCK_StartSystemPll+0x168>)
 8001e9e:	f043 0301 	orr.w	r3, r3, #1
 8001ea2:	6053      	str	r3, [r2, #4]

    /* disconnect Oscillator from PLL */
    SCU_PLL->PLLCON0 |= (uint32_t)SCU_PLL_PLLCON0_FINDIS_Msk;
 8001ea4:	4b3e      	ldr	r3, [pc, #248]	; (8001fa0 <XMC_SCU_CLOCK_StartSystemPll+0x168>)
 8001ea6:	685b      	ldr	r3, [r3, #4]
 8001ea8:	4a3d      	ldr	r2, [pc, #244]	; (8001fa0 <XMC_SCU_CLOCK_StartSystemPll+0x168>)
 8001eaa:	f043 0310 	orr.w	r3, r3, #16
 8001eae:	6053      	str	r3, [r2, #4]

    /* Setup divider settings for main PLL */
    SCU_PLL->PLLCON1 = (uint32_t)((SCU_PLL->PLLCON1 & ~(SCU_PLL_PLLCON1_NDIV_Msk | SCU_PLL_PLLCON1_K2DIV_Msk |
 8001eb0:	4b3b      	ldr	r3, [pc, #236]	; (8001fa0 <XMC_SCU_CLOCK_StartSystemPll+0x168>)
 8001eb2:	689a      	ldr	r2, [r3, #8]
 8001eb4:	4b3b      	ldr	r3, [pc, #236]	; (8001fa4 <XMC_SCU_CLOCK_StartSystemPll+0x16c>)
 8001eb6:	4013      	ands	r3, r2
                                   SCU_PLL_PLLCON1_PDIV_Msk)) | ((ndiv - 1UL) << SCU_PLL_PLLCON1_NDIV_Pos) |
 8001eb8:	687a      	ldr	r2, [r7, #4]
 8001eba:	3a01      	subs	r2, #1
 8001ebc:	0212      	lsls	r2, r2, #8
 8001ebe:	431a      	orrs	r2, r3
                                   ((kdiv_temp - 1UL) << SCU_PLL_PLLCON1_K2DIV_Pos) |
 8001ec0:	693b      	ldr	r3, [r7, #16]
 8001ec2:	3b01      	subs	r3, #1
 8001ec4:	041b      	lsls	r3, r3, #16
                                   SCU_PLL_PLLCON1_PDIV_Msk)) | ((ndiv - 1UL) << SCU_PLL_PLLCON1_NDIV_Pos) |
 8001ec6:	431a      	orrs	r2, r3
                                   ((pdiv - 1UL)<< SCU_PLL_PLLCON1_PDIV_Pos));
 8001ec8:	68bb      	ldr	r3, [r7, #8]
 8001eca:	3b01      	subs	r3, #1
 8001ecc:	061b      	lsls	r3, r3, #24
    SCU_PLL->PLLCON1 = (uint32_t)((SCU_PLL->PLLCON1 & ~(SCU_PLL_PLLCON1_NDIV_Msk | SCU_PLL_PLLCON1_K2DIV_Msk |
 8001ece:	4934      	ldr	r1, [pc, #208]	; (8001fa0 <XMC_SCU_CLOCK_StartSystemPll+0x168>)
 8001ed0:	4313      	orrs	r3, r2
 8001ed2:	608b      	str	r3, [r1, #8]

    /* Set OSCDISCDIS, OSC clock remains connected to the VCO in case of loss of lock */
    SCU_PLL->PLLCON0 |= (uint32_t)SCU_PLL_PLLCON0_OSCDISCDIS_Msk;
 8001ed4:	4b32      	ldr	r3, [pc, #200]	; (8001fa0 <XMC_SCU_CLOCK_StartSystemPll+0x168>)
 8001ed6:	685b      	ldr	r3, [r3, #4]
 8001ed8:	4a31      	ldr	r2, [pc, #196]	; (8001fa0 <XMC_SCU_CLOCK_StartSystemPll+0x168>)
 8001eda:	f043 0340 	orr.w	r3, r3, #64	; 0x40
 8001ede:	6053      	str	r3, [r2, #4]

    /* connect Oscillator to PLL */
    SCU_PLL->PLLCON0 &= (uint32_t)~SCU_PLL_PLLCON0_FINDIS_Msk;
 8001ee0:	4b2f      	ldr	r3, [pc, #188]	; (8001fa0 <XMC_SCU_CLOCK_StartSystemPll+0x168>)
 8001ee2:	685b      	ldr	r3, [r3, #4]
 8001ee4:	4a2e      	ldr	r2, [pc, #184]	; (8001fa0 <XMC_SCU_CLOCK_StartSystemPll+0x168>)
 8001ee6:	f023 0310 	bic.w	r3, r3, #16
 8001eea:	6053      	str	r3, [r2, #4]

    /* restart PLL Lock detection */
    SCU_PLL->PLLCON0 |= (uint32_t)SCU_PLL_PLLCON0_RESLD_Msk;
 8001eec:	4b2c      	ldr	r3, [pc, #176]	; (8001fa0 <XMC_SCU_CLOCK_StartSystemPll+0x168>)
 8001eee:	685b      	ldr	r3, [r3, #4]
 8001ef0:	4a2b      	ldr	r2, [pc, #172]	; (8001fa0 <XMC_SCU_CLOCK_StartSystemPll+0x168>)
 8001ef2:	f443 2380 	orr.w	r3, r3, #262144	; 0x40000
 8001ef6:	6053      	str	r3, [r2, #4]
    while ((SCU_PLL->PLLSTAT & SCU_PLL_PLLSTAT_VCOLOCK_Msk) == 0U)
 8001ef8:	bf00      	nop
 8001efa:	4b29      	ldr	r3, [pc, #164]	; (8001fa0 <XMC_SCU_CLOCK_StartSystemPll+0x168>)
 8001efc:	681b      	ldr	r3, [r3, #0]
 8001efe:	f003 0304 	and.w	r3, r3, #4
 8001f02:	2b00      	cmp	r3, #0
 8001f04:	d0f9      	beq.n	8001efa <XMC_SCU_CLOCK_StartSystemPll+0xc2>
    {
      /* wait for PLL Lock */
    }

    /* Switch to normal mode */
    SCU_PLL->PLLCON0 &= (uint32_t)~SCU_PLL_PLLCON0_VCOBYP_Msk;
 8001f06:	4b26      	ldr	r3, [pc, #152]	; (8001fa0 <XMC_SCU_CLOCK_StartSystemPll+0x168>)
 8001f08:	685b      	ldr	r3, [r3, #4]
 8001f0a:	4a25      	ldr	r2, [pc, #148]	; (8001fa0 <XMC_SCU_CLOCK_StartSystemPll+0x168>)
 8001f0c:	f023 0301 	bic.w	r3, r3, #1
 8001f10:	6053      	str	r3, [r2, #4]
    while ((SCU_PLL->PLLSTAT & SCU_PLL_PLLSTAT_VCOBYST_Msk) != 0U)
 8001f12:	bf00      	nop
 8001f14:	4b22      	ldr	r3, [pc, #136]	; (8001fa0 <XMC_SCU_CLOCK_StartSystemPll+0x168>)
 8001f16:	681b      	ldr	r3, [r3, #0]
 8001f18:	f003 0301 	and.w	r3, r3, #1
 8001f1c:	2b00      	cmp	r3, #0
 8001f1e:	d1f9      	bne.n	8001f14 <XMC_SCU_CLOCK_StartSystemPll+0xdc>
    {
      /* wait for normal mode */
    }

    /* Ramp up PLL frequency in steps */
    kdiv_temp = (vco_frequency / 60UL) >> 22;
 8001f20:	697b      	ldr	r3, [r7, #20]
 8001f22:	4a21      	ldr	r2, [pc, #132]	; (8001fa8 <XMC_SCU_CLOCK_StartSystemPll+0x170>)
 8001f24:	fba2 2303 	umull	r2, r3, r2, r3
 8001f28:	095b      	lsrs	r3, r3, #5
 8001f2a:	0d9b      	lsrs	r3, r3, #22
 8001f2c:	613b      	str	r3, [r7, #16]
    if (kdiv < kdiv_temp)
 8001f2e:	6a3a      	ldr	r2, [r7, #32]
 8001f30:	693b      	ldr	r3, [r7, #16]
 8001f32:	429a      	cmp	r2, r3
 8001f34:	d202      	bcs.n	8001f3c <XMC_SCU_CLOCK_StartSystemPll+0x104>
    {
      XMC_SCU_CLOCK_StepSystemPllFrequency(kdiv_temp);
 8001f36:	6938      	ldr	r0, [r7, #16]
 8001f38:	f000 f84a 	bl	8001fd0 <XMC_SCU_CLOCK_StepSystemPllFrequency>
    }

    kdiv_temp = (vco_frequency / 90UL) >> 22;
 8001f3c:	697b      	ldr	r3, [r7, #20]
 8001f3e:	085b      	lsrs	r3, r3, #1
 8001f40:	4a1a      	ldr	r2, [pc, #104]	; (8001fac <XMC_SCU_CLOCK_StartSystemPll+0x174>)
 8001f42:	fba2 2303 	umull	r2, r3, r2, r3
 8001f46:	095b      	lsrs	r3, r3, #5
 8001f48:	0d9b      	lsrs	r3, r3, #22
 8001f4a:	613b      	str	r3, [r7, #16]
    if (kdiv < kdiv_temp)
 8001f4c:	6a3a      	ldr	r2, [r7, #32]
 8001f4e:	693b      	ldr	r3, [r7, #16]
 8001f50:	429a      	cmp	r2, r3
 8001f52:	d202      	bcs.n	8001f5a <XMC_SCU_CLOCK_StartSystemPll+0x122>
    {
      XMC_SCU_CLOCK_StepSystemPllFrequency(kdiv_temp);
 8001f54:	6938      	ldr	r0, [r7, #16]
 8001f56:	f000 f83b 	bl	8001fd0 <XMC_SCU_CLOCK_StepSystemPllFrequency>
    }

    XMC_SCU_CLOCK_StepSystemPllFrequency(kdiv);
 8001f5a:	6a38      	ldr	r0, [r7, #32]
 8001f5c:	f000 f838 	bl	8001fd0 <XMC_SCU_CLOCK_StepSystemPllFrequency>
    while ((SCU_PLL->PLLSTAT & SCU_PLL_PLLSTAT_VCOBYST_Msk) == 0U)
    {
      /* wait for prescaler mode */
    }
  }
}
 8001f60:	e015      	b.n	8001f8e <XMC_SCU_CLOCK_StartSystemPll+0x156>
    SCU_PLL->PLLCON1 = (uint32_t)((SCU_PLL->PLLCON1 & ~SCU_PLL_PLLCON1_K1DIV_Msk) |
 8001f62:	4b0f      	ldr	r3, [pc, #60]	; (8001fa0 <XMC_SCU_CLOCK_StartSystemPll+0x168>)
 8001f64:	689b      	ldr	r3, [r3, #8]
 8001f66:	f023 027f 	bic.w	r2, r3, #127	; 0x7f
                       ((kdiv -1UL) << SCU_PLL_PLLCON1_K1DIV_Pos));
 8001f6a:	6a3b      	ldr	r3, [r7, #32]
 8001f6c:	3b01      	subs	r3, #1
    SCU_PLL->PLLCON1 = (uint32_t)((SCU_PLL->PLLCON1 & ~SCU_PLL_PLLCON1_K1DIV_Msk) |
 8001f6e:	490c      	ldr	r1, [pc, #48]	; (8001fa0 <XMC_SCU_CLOCK_StartSystemPll+0x168>)
 8001f70:	4313      	orrs	r3, r2
 8001f72:	608b      	str	r3, [r1, #8]
    SCU_PLL->PLLCON0 |= (uint32_t)SCU_PLL_PLLCON0_VCOBYP_Msk;
 8001f74:	4b0a      	ldr	r3, [pc, #40]	; (8001fa0 <XMC_SCU_CLOCK_StartSystemPll+0x168>)
 8001f76:	685b      	ldr	r3, [r3, #4]
 8001f78:	4a09      	ldr	r2, [pc, #36]	; (8001fa0 <XMC_SCU_CLOCK_StartSystemPll+0x168>)
 8001f7a:	f043 0301 	orr.w	r3, r3, #1
 8001f7e:	6053      	str	r3, [r2, #4]
    while ((SCU_PLL->PLLSTAT & SCU_PLL_PLLSTAT_VCOBYST_Msk) == 0U)
 8001f80:	bf00      	nop
 8001f82:	4b07      	ldr	r3, [pc, #28]	; (8001fa0 <XMC_SCU_CLOCK_StartSystemPll+0x168>)
 8001f84:	681b      	ldr	r3, [r3, #0]
 8001f86:	f003 0301 	and.w	r3, r3, #1
 8001f8a:	2b00      	cmp	r3, #0
 8001f8c:	d0f9      	beq.n	8001f82 <XMC_SCU_CLOCK_StartSystemPll+0x14a>
}
 8001f8e:	bf00      	nop
 8001f90:	3718      	adds	r7, #24
 8001f92:	46bd      	mov	sp, r7
 8001f94:	bd80      	pop	{r7, pc}
 8001f96:	bf00      	nop
 8001f98:	431bde83 	.word	0x431bde83
 8001f9c:	aaaaaaab 	.word	0xaaaaaaab
 8001fa0:	50004710 	.word	0x50004710
 8001fa4:	f08080ff 	.word	0xf08080ff
 8001fa8:	88888889 	.word	0x88888889
 8001fac:	b60b60b7 	.word	0xb60b60b7

08001fb0 <XMC_SCU_CLOCK_StopSystemPll>:

/* API to stop main PLL operation */
void XMC_SCU_CLOCK_StopSystemPll(void)
{
 8001fb0:	b480      	push	{r7}
 8001fb2:	af00      	add	r7, sp, #0
  SCU_PLL->PLLCON0 |= (uint32_t)SCU_PLL_PLLCON0_PLLPWD_Msk;
 8001fb4:	4b05      	ldr	r3, [pc, #20]	; (8001fcc <XMC_SCU_CLOCK_StopSystemPll+0x1c>)
 8001fb6:	685b      	ldr	r3, [r3, #4]
 8001fb8:	4a04      	ldr	r2, [pc, #16]	; (8001fcc <XMC_SCU_CLOCK_StopSystemPll+0x1c>)
 8001fba:	f443 3380 	orr.w	r3, r3, #65536	; 0x10000
 8001fbe:	6053      	str	r3, [r2, #4]
}
 8001fc0:	bf00      	nop
 8001fc2:	46bd      	mov	sp, r7
 8001fc4:	f85d 7b04 	ldr.w	r7, [sp], #4
 8001fc8:	4770      	bx	lr
 8001fca:	bf00      	nop
 8001fcc:	50004710 	.word	0x50004710

08001fd0 <XMC_SCU_CLOCK_StepSystemPllFrequency>:

/* API to step up/down the main PLL frequency */
void XMC_SCU_CLOCK_StepSystemPllFrequency(uint32_t kdiv)
{
 8001fd0:	b580      	push	{r7, lr}
 8001fd2:	b082      	sub	sp, #8
 8001fd4:	af00      	add	r7, sp, #0
 8001fd6:	6078      	str	r0, [r7, #4]
  SCU_PLL->PLLCON1 = (uint32_t)((SCU_PLL->PLLCON1 & ~SCU_PLL_PLLCON1_K2DIV_Msk) |
 8001fd8:	4b08      	ldr	r3, [pc, #32]	; (8001ffc <XMC_SCU_CLOCK_StepSystemPllFrequency+0x2c>)
 8001fda:	689b      	ldr	r3, [r3, #8]
 8001fdc:	f423 02fe 	bic.w	r2, r3, #8323072	; 0x7f0000
                     ((kdiv - 1UL) << SCU_PLL_PLLCON1_K2DIV_Pos));
 8001fe0:	687b      	ldr	r3, [r7, #4]
 8001fe2:	3b01      	subs	r3, #1
 8001fe4:	041b      	lsls	r3, r3, #16
  SCU_PLL->PLLCON1 = (uint32_t)((SCU_PLL->PLLCON1 & ~SCU_PLL_PLLCON1_K2DIV_Msk) |
 8001fe6:	4905      	ldr	r1, [pc, #20]	; (8001ffc <XMC_SCU_CLOCK_StepSystemPllFrequency+0x2c>)
 8001fe8:	4313      	orrs	r3, r2
 8001fea:	608b      	str	r3, [r1, #8]

  XMC_SCU_lDelay(50U);
 8001fec:	2032      	movs	r0, #50	; 0x32
 8001fee:	f7fe fc6f 	bl	80008d0 <XMC_SCU_lDelay>
}
 8001ff2:	bf00      	nop
 8001ff4:	3708      	adds	r7, #8
 8001ff6:	46bd      	mov	sp, r7
 8001ff8:	bd80      	pop	{r7, pc}
 8001ffa:	bf00      	nop
 8001ffc:	50004710 	.word	0x50004710

08002000 <XMC_SCU_CLOCK_IsSystemPllLocked>:

/* API to check main PLL is locked or not */
bool XMC_SCU_CLOCK_IsSystemPllLocked(void)
{
 8002000:	b480      	push	{r7}
 8002002:	af00      	add	r7, sp, #0
  return (bool)((SCU_PLL->PLLSTAT & SCU_PLL_PLLSTAT_VCOLOCK_Msk) != 0UL);
 8002004:	4b06      	ldr	r3, [pc, #24]	; (8002020 <XMC_SCU_CLOCK_IsSystemPllLocked+0x20>)
 8002006:	681b      	ldr	r3, [r3, #0]
 8002008:	f003 0304 	and.w	r3, r3, #4
 800200c:	2b00      	cmp	r3, #0
 800200e:	bf14      	ite	ne
 8002010:	2301      	movne	r3, #1
 8002012:	2300      	moveq	r3, #0
 8002014:	b2db      	uxtb	r3, r3
}
 8002016:	4618      	mov	r0, r3
 8002018:	46bd      	mov	sp, r7
 800201a:	f85d 7b04 	ldr.w	r7, [sp], #4
 800201e:	4770      	bx	lr
 8002020:	50004710 	.word	0x50004710

08002024 <XMC_SCU_INTERRUPT_SetEventHandler>:
/*
 * API to assign the event handler function to be executed on occurrence of the selected event.
 */
XMC_SCU_STATUS_t XMC_SCU_INTERRUPT_SetEventHandler(const XMC_SCU_INTERRUPT_EVENT_t event,
                                                   const XMC_SCU_INTERRUPT_EVENT_HANDLER_t handler)
{
 8002024:	b480      	push	{r7}
 8002026:	b085      	sub	sp, #20
 8002028:	af00      	add	r7, sp, #0
 800202a:	6078      	str	r0, [r7, #4]
 800202c:	6039      	str	r1, [r7, #0]
  uint32_t index;
  XMC_SCU_STATUS_t status;
  
  index = 0U;
 800202e:	2300      	movs	r3, #0
 8002030:	60fb      	str	r3, [r7, #12]
  while (((event & ((XMC_SCU_INTERRUPT_EVENT_t)1 << index)) == 0U) && (index < XMC_SCU_INTERRUPT_EVENT_MAX))
 8002032:	e002      	b.n	800203a <XMC_SCU_INTERRUPT_SetEventHandler+0x16>
  {
    index++;
 8002034:	68fb      	ldr	r3, [r7, #12]
 8002036:	3301      	adds	r3, #1
 8002038:	60fb      	str	r3, [r7, #12]
  while (((event & ((XMC_SCU_INTERRUPT_EVENT_t)1 << index)) == 0U) && (index < XMC_SCU_INTERRUPT_EVENT_MAX))
 800203a:	687a      	ldr	r2, [r7, #4]
 800203c:	68fb      	ldr	r3, [r7, #12]
 800203e:	fa22 f303 	lsr.w	r3, r2, r3
 8002042:	f003 0301 	and.w	r3, r3, #1
 8002046:	2b00      	cmp	r3, #0
 8002048:	d102      	bne.n	8002050 <XMC_SCU_INTERRUPT_SetEventHandler+0x2c>
 800204a:	68fb      	ldr	r3, [r7, #12]
 800204c:	2b1f      	cmp	r3, #31
 800204e:	d9f1      	bls.n	8002034 <XMC_SCU_INTERRUPT_SetEventHandler+0x10>
  }
  
  if (index == XMC_SCU_INTERRUPT_EVENT_MAX)
 8002050:	68fb      	ldr	r3, [r7, #12]
 8002052:	2b20      	cmp	r3, #32
 8002054:	d102      	bne.n	800205c <XMC_SCU_INTERRUPT_SetEventHandler+0x38>
  {
    status = XMC_SCU_STATUS_ERROR;
 8002056:	2301      	movs	r3, #1
 8002058:	72fb      	strb	r3, [r7, #11]
 800205a:	e006      	b.n	800206a <XMC_SCU_INTERRUPT_SetEventHandler+0x46>
  }
  else
  {
    event_handler_list[index] = handler;
 800205c:	4906      	ldr	r1, [pc, #24]	; (8002078 <XMC_SCU_INTERRUPT_SetEventHandler+0x54>)
 800205e:	68fb      	ldr	r3, [r7, #12]
 8002060:	683a      	ldr	r2, [r7, #0]
 8002062:	f841 2023 	str.w	r2, [r1, r3, lsl #2]
    status = XMC_SCU_STATUS_OK;      
 8002066:	2300      	movs	r3, #0
 8002068:	72fb      	strb	r3, [r7, #11]
  }
  
  return (status);
 800206a:	7afb      	ldrb	r3, [r7, #11]
}
 800206c:	4618      	mov	r0, r3
 800206e:	3714      	adds	r7, #20
 8002070:	46bd      	mov	sp, r7
 8002072:	f85d 7b04 	ldr.w	r7, [sp], #4
 8002076:	4770      	bx	lr
 8002078:	20000474 	.word	0x20000474

0800207c <XMC_SCU_IRQHandler>:

/*
 * API to execute callback functions for multiple events.
 */
void XMC_SCU_IRQHandler(uint32_t sr_num)
{
 800207c:	b580      	push	{r7, lr}
 800207e:	b086      	sub	sp, #24
 8002080:	af00      	add	r7, sp, #0
 8002082:	6078      	str	r0, [r7, #4]
  XMC_SCU_INTERRUPT_EVENT_t event;
  XMC_SCU_INTERRUPT_EVENT_HANDLER_t event_handler;
  
  XMC_UNUSED_ARG(sr_num);
  
  index = 0U;
 8002084:	2300      	movs	r3, #0
 8002086:	617b      	str	r3, [r7, #20]
  event = XMC_SCU_INTERUPT_GetEventStatus();
 8002088:	f7fe fc7e 	bl	8000988 <XMC_SCU_INTERUPT_GetEventStatus>
 800208c:	6138      	str	r0, [r7, #16]
  while (index < XMC_SCU_INTERRUPT_EVENT_MAX)
 800208e:	e01c      	b.n	80020ca <XMC_SCU_IRQHandler+0x4e>
  {    
    if ((event & ((XMC_SCU_INTERRUPT_EVENT_t)1 << index)) != 0U)
 8002090:	693a      	ldr	r2, [r7, #16]
 8002092:	697b      	ldr	r3, [r7, #20]
 8002094:	fa22 f303 	lsr.w	r3, r2, r3
 8002098:	f003 0301 	and.w	r3, r3, #1
 800209c:	2b00      	cmp	r3, #0
 800209e:	d011      	beq.n	80020c4 <XMC_SCU_IRQHandler+0x48>
    {
      event_handler = event_handler_list[index];
 80020a0:	4a0e      	ldr	r2, [pc, #56]	; (80020dc <XMC_SCU_IRQHandler+0x60>)
 80020a2:	697b      	ldr	r3, [r7, #20]
 80020a4:	f852 3023 	ldr.w	r3, [r2, r3, lsl #2]
 80020a8:	60fb      	str	r3, [r7, #12]
      if (event_handler != NULL)
 80020aa:	68fb      	ldr	r3, [r7, #12]
 80020ac:	2b00      	cmp	r3, #0
 80020ae:	d001      	beq.n	80020b4 <XMC_SCU_IRQHandler+0x38>
      {
          (event_handler)();
 80020b0:	68fb      	ldr	r3, [r7, #12]
 80020b2:	4798      	blx	r3
      }
      
      XMC_SCU_INTERRUPT_ClearEventStatus((uint32_t)(1UL << index));
 80020b4:	2201      	movs	r2, #1
 80020b6:	697b      	ldr	r3, [r7, #20]
 80020b8:	fa02 f303 	lsl.w	r3, r2, r3
 80020bc:	4618      	mov	r0, r3
 80020be:	f7fe fc6f 	bl	80009a0 <XMC_SCU_INTERRUPT_ClearEventStatus>
      
      break;
 80020c2:	e006      	b.n	80020d2 <XMC_SCU_IRQHandler+0x56>
    }   
    index++;    
 80020c4:	697b      	ldr	r3, [r7, #20]
 80020c6:	3301      	adds	r3, #1
 80020c8:	617b      	str	r3, [r7, #20]
  while (index < XMC_SCU_INTERRUPT_EVENT_MAX)
 80020ca:	697b      	ldr	r3, [r7, #20]
 80020cc:	2b1f      	cmp	r3, #31
 80020ce:	d9df      	bls.n	8002090 <XMC_SCU_IRQHandler+0x14>
  }
}
 80020d0:	bf00      	nop
 80020d2:	bf00      	nop
 80020d4:	3718      	adds	r7, #24
 80020d6:	46bd      	mov	sp, r7
 80020d8:	bd80      	pop	{r7, pc}
 80020da:	bf00      	nop
 80020dc:	20000474 	.word	0x20000474

080020e0 <XMC_GPIO_SetMode>:
/*******************************************************************************
 * API IMPLEMENTATION
 *******************************************************************************/

void XMC_GPIO_SetMode(XMC_GPIO_PORT_t *const port, const uint8_t pin, const XMC_GPIO_MODE_t mode)
{
 80020e0:	b480      	push	{r7}
 80020e2:	b083      	sub	sp, #12
 80020e4:	af00      	add	r7, sp, #0
 80020e6:	6078      	str	r0, [r7, #4]
 80020e8:	460b      	mov	r3, r1
 80020ea:	70fb      	strb	r3, [r7, #3]
 80020ec:	4613      	mov	r3, r2
 80020ee:	70bb      	strb	r3, [r7, #2]
  XMC_ASSERT("XMC_GPIO_SetMode: Invalid port", XMC_GPIO_CHECK_PORT(port));
  XMC_ASSERT("XMC_GPIO_SetMode: Invalid mode", XMC_GPIO_IsModeValid(mode));

  port->IOCR[(uint32_t)pin >> 2U] &= ~(uint32_t)((uint32_t)PORT_IOCR_PC_Msk << ((uint32_t)PORT_IOCR_PC_Size * ((uint32_t)pin & 0x3U)));
 80020f0:	78fb      	ldrb	r3, [r7, #3]
 80020f2:	089b      	lsrs	r3, r3, #2
 80020f4:	b2db      	uxtb	r3, r3
 80020f6:	461a      	mov	r2, r3
 80020f8:	687b      	ldr	r3, [r7, #4]
 80020fa:	3204      	adds	r2, #4
 80020fc:	f853 2022 	ldr.w	r2, [r3, r2, lsl #2]
 8002100:	78fb      	ldrb	r3, [r7, #3]
 8002102:	f003 0303 	and.w	r3, r3, #3
 8002106:	00db      	lsls	r3, r3, #3
 8002108:	21f8      	movs	r1, #248	; 0xf8
 800210a:	fa01 f303 	lsl.w	r3, r1, r3
 800210e:	43db      	mvns	r3, r3
 8002110:	78f9      	ldrb	r1, [r7, #3]
 8002112:	0889      	lsrs	r1, r1, #2
 8002114:	b2c9      	uxtb	r1, r1
 8002116:	4608      	mov	r0, r1
 8002118:	ea02 0103 	and.w	r1, r2, r3
 800211c:	687b      	ldr	r3, [r7, #4]
 800211e:	1d02      	adds	r2, r0, #4
 8002120:	f843 1022 	str.w	r1, [r3, r2, lsl #2]
  port->IOCR[(uint32_t)pin >> 2U] |= (uint32_t)mode << ((uint32_t)PORT_IOCR_PC_Size * ((uint32_t)pin & 0x3U));
 8002124:	78fb      	ldrb	r3, [r7, #3]
 8002126:	089b      	lsrs	r3, r3, #2
 8002128:	b2db      	uxtb	r3, r3
 800212a:	461a      	mov	r2, r3
 800212c:	687b      	ldr	r3, [r7, #4]
 800212e:	3204      	adds	r2, #4
 8002130:	f853 2022 	ldr.w	r2, [r3, r2, lsl #2]
 8002134:	78b9      	ldrb	r1, [r7, #2]
 8002136:	78fb      	ldrb	r3, [r7, #3]
 8002138:	f003 0303 	and.w	r3, r3, #3
 800213c:	00db      	lsls	r3, r3, #3
 800213e:	fa01 f303 	lsl.w	r3, r1, r3
 8002142:	78f9      	ldrb	r1, [r7, #3]
 8002144:	0889      	lsrs	r1, r1, #2
 8002146:	b2c9      	uxtb	r1, r1
 8002148:	4608      	mov	r0, r1
 800214a:	ea42 0103 	orr.w	r1, r2, r3
 800214e:	687b      	ldr	r3, [r7, #4]
 8002150:	1d02      	adds	r2, r0, #4
 8002152:	f843 1022 	str.w	r1, [r3, r2, lsl #2]
}
 8002156:	bf00      	nop
 8002158:	370c      	adds	r7, #12
 800215a:	46bd      	mov	sp, r7
 800215c:	f85d 7b04 	ldr.w	r7, [sp], #4
 8002160:	4770      	bx	lr

08002162 <XMC_GPIO_SetHardwareControl>:

void XMC_GPIO_SetHardwareControl(XMC_GPIO_PORT_t *const port, const uint8_t pin, const XMC_GPIO_HWCTRL_t hwctrl)
{
 8002162:	b480      	push	{r7}
 8002164:	b083      	sub	sp, #12
 8002166:	af00      	add	r7, sp, #0
 8002168:	6078      	str	r0, [r7, #4]
 800216a:	460b      	mov	r3, r1
 800216c:	70fb      	strb	r3, [r7, #3]
 800216e:	4613      	mov	r3, r2
 8002170:	70bb      	strb	r3, [r7, #2]
  XMC_ASSERT("XMC_GPIO_SetHardwareControl: Invalid port", XMC_GPIO_CHECK_PORT(port));
  XMC_ASSERT("XMC_GPIO_SetHardwareControl: Invalid hwctrl", XMC_GPIO_CHECK_HWCTRL(hwctrl));

  port->HWSEL &= ~(uint32_t)((uint32_t)PORT_HWSEL_Msk << ((uint32_t)pin << 1U));
 8002172:	687b      	ldr	r3, [r7, #4]
 8002174:	6f5a      	ldr	r2, [r3, #116]	; 0x74
 8002176:	78fb      	ldrb	r3, [r7, #3]
 8002178:	005b      	lsls	r3, r3, #1
 800217a:	2103      	movs	r1, #3
 800217c:	fa01 f303 	lsl.w	r3, r1, r3
 8002180:	43db      	mvns	r3, r3
 8002182:	401a      	ands	r2, r3
 8002184:	687b      	ldr	r3, [r7, #4]
 8002186:	675a      	str	r2, [r3, #116]	; 0x74
  port->HWSEL |= (uint32_t)hwctrl << ((uint32_t)pin << 1U);
 8002188:	687b      	ldr	r3, [r7, #4]
 800218a:	6f5a      	ldr	r2, [r3, #116]	; 0x74
 800218c:	78b9      	ldrb	r1, [r7, #2]
 800218e:	78fb      	ldrb	r3, [r7, #3]
 8002190:	005b      	lsls	r3, r3, #1
 8002192:	fa01 f303 	lsl.w	r3, r1, r3
 8002196:	431a      	orrs	r2, r3
 8002198:	687b      	ldr	r3, [r7, #4]
 800219a:	675a      	str	r2, [r3, #116]	; 0x74
}
 800219c:	bf00      	nop
 800219e:	370c      	adds	r7, #12
 80021a0:	46bd      	mov	sp, r7
 80021a2:	f85d 7b04 	ldr.w	r7, [sp], #4
 80021a6:	4770      	bx	lr

080021a8 <HID_Device_ProcessControlRequest>:
#define  __INCLUDE_FROM_HID_DRIVER
#define  __INCLUDE_FROM_HID_DEVICE_C
#include "HIDClassDevice.h"

void HID_Device_ProcessControlRequest(USB_ClassInfo_HID_Device_t* const HIDInterfaceInfo)
{
 80021a8:	e92d 4ff0 	stmdb	sp!, {r4, r5, r6, r7, r8, r9, sl, fp, lr}
 80021ac:	b091      	sub	sp, #68	; 0x44
 80021ae:	af02      	add	r7, sp, #8
 80021b0:	60f8      	str	r0, [r7, #12]
	 *  \return Boolean \c true if the selected endpoint has received a SETUP packet, \c false otherwise.
	 */
	static inline bool Endpoint_IsSETUPReceived(void) ATTR_WARN_UNUSED_RESULT ATTR_ALWAYS_INLINE;
	static inline bool Endpoint_IsSETUPReceived(void)
	{
		return device.IsSetupRecieved;
 80021b2:	4bb3      	ldr	r3, [pc, #716]	; (8002480 <HID_Device_ProcessControlRequest+0x2d8>)
 80021b4:	f893 313e 	ldrb.w	r3, [r3, #318]	; 0x13e
 80021b8:	f3c3 0340 	ubfx	r3, r3, #1, #1
 80021bc:	b2db      	uxtb	r3, r3
 80021be:	2b00      	cmp	r3, #0
 80021c0:	bf14      	ite	ne
 80021c2:	2301      	movne	r3, #1
 80021c4:	2300      	moveq	r3, #0
 80021c6:	b2db      	uxtb	r3, r3
	if (!(Endpoint_IsSETUPReceived()))
 80021c8:	f083 0301 	eor.w	r3, r3, #1
 80021cc:	b2db      	uxtb	r3, r3
 80021ce:	2b00      	cmp	r3, #0
 80021d0:	f040 81c8 	bne.w	8002564 <HID_Device_ProcessControlRequest+0x3bc>
	  return;

	if (USB_ControlRequest.wIndex != HIDInterfaceInfo->Config.InterfaceNumber)
 80021d4:	4bab      	ldr	r3, [pc, #684]	; (8002484 <HID_Device_ProcessControlRequest+0x2dc>)
 80021d6:	889b      	ldrh	r3, [r3, #4]
 80021d8:	b29a      	uxth	r2, r3
 80021da:	68fb      	ldr	r3, [r7, #12]
 80021dc:	781b      	ldrb	r3, [r3, #0]
 80021de:	b29b      	uxth	r3, r3
 80021e0:	429a      	cmp	r2, r3
 80021e2:	f040 81c1 	bne.w	8002568 <HID_Device_ProcessControlRequest+0x3c0>
	  return;

	switch (USB_ControlRequest.bRequest)
 80021e6:	4ba7      	ldr	r3, [pc, #668]	; (8002484 <HID_Device_ProcessControlRequest+0x2dc>)
 80021e8:	785b      	ldrb	r3, [r3, #1]
 80021ea:	3b01      	subs	r3, #1
 80021ec:	2b0a      	cmp	r3, #10
 80021ee:	f200 81c8 	bhi.w	8002582 <HID_Device_ProcessControlRequest+0x3da>
 80021f2:	a201      	add	r2, pc, #4	; (adr r2, 80021f8 <HID_Device_ProcessControlRequest+0x50>)
 80021f4:	f852 f023 	ldr.w	pc, [r2, r3, lsl #2]
 80021f8:	08002225 	.word	0x08002225
 80021fc:	080024eb 	.word	0x080024eb
 8002200:	0800240b 	.word	0x0800240b
 8002204:	08002583 	.word	0x08002583
 8002208:	08002583 	.word	0x08002583
 800220c:	08002583 	.word	0x08002583
 8002210:	08002583 	.word	0x08002583
 8002214:	08002583 	.word	0x08002583
 8002218:	08002329 	.word	0x08002329
 800221c:	080024bb 	.word	0x080024bb
 8002220:	08002489 	.word	0x08002489
	{
		case HID_REQ_GetReport:
			if (USB_ControlRequest.bmRequestType == (REQDIR_DEVICETOHOST | REQTYPE_CLASS | REQREC_INTERFACE))
 8002224:	4b97      	ldr	r3, [pc, #604]	; (8002484 <HID_Device_ProcessControlRequest+0x2dc>)
 8002226:	781b      	ldrb	r3, [r3, #0]
 8002228:	2ba1      	cmp	r3, #161	; 0xa1
 800222a:	f040 819f 	bne.w	800256c <HID_Device_ProcessControlRequest+0x3c4>
			{
 800222e:	466b      	mov	r3, sp
 8002230:	461c      	mov	r4, r3
				uint16_t ReportSize = 0;
 8002232:	2300      	movs	r3, #0
 8002234:	82fb      	strh	r3, [r7, #22]
				uint8_t  ReportID   = (USB_ControlRequest.wValue & 0xFF);
 8002236:	4b93      	ldr	r3, [pc, #588]	; (8002484 <HID_Device_ProcessControlRequest+0x2dc>)
 8002238:	885b      	ldrh	r3, [r3, #2]
 800223a:	b29b      	uxth	r3, r3
 800223c:	b2db      	uxtb	r3, r3
 800223e:	757b      	strb	r3, [r7, #21]
				uint8_t  ReportType = (USB_ControlRequest.wValue >> 8) - 1;
 8002240:	4b90      	ldr	r3, [pc, #576]	; (8002484 <HID_Device_ProcessControlRequest+0x2dc>)
 8002242:	885b      	ldrh	r3, [r3, #2]
 8002244:	b29b      	uxth	r3, r3
 8002246:	0a1b      	lsrs	r3, r3, #8
 8002248:	b29b      	uxth	r3, r3
 800224a:	b2db      	uxtb	r3, r3
 800224c:	3b01      	subs	r3, #1
 800224e:	f887 302b 	strb.w	r3, [r7, #43]	; 0x2b
				uint8_t  ReportData[HIDInterfaceInfo->Config.PrevReportINBufferSize];
 8002252:	68fb      	ldr	r3, [r7, #12]
 8002254:	7b19      	ldrb	r1, [r3, #12]
 8002256:	460b      	mov	r3, r1
 8002258:	3b01      	subs	r3, #1
 800225a:	627b      	str	r3, [r7, #36]	; 0x24
 800225c:	b2cb      	uxtb	r3, r1
 800225e:	2200      	movs	r2, #0
 8002260:	603b      	str	r3, [r7, #0]
 8002262:	607a      	str	r2, [r7, #4]
 8002264:	f04f 0200 	mov.w	r2, #0
 8002268:	f04f 0300 	mov.w	r3, #0
 800226c:	e9d7 5600 	ldrd	r5, r6, [r7]
 8002270:	4630      	mov	r0, r6
 8002272:	00c3      	lsls	r3, r0, #3
 8002274:	4628      	mov	r0, r5
 8002276:	ea43 7350 	orr.w	r3, r3, r0, lsr #29
 800227a:	4628      	mov	r0, r5
 800227c:	00c2      	lsls	r2, r0, #3
 800227e:	b2cb      	uxtb	r3, r1
 8002280:	2200      	movs	r2, #0
 8002282:	469a      	mov	sl, r3
 8002284:	4693      	mov	fp, r2
 8002286:	f04f 0200 	mov.w	r2, #0
 800228a:	f04f 0300 	mov.w	r3, #0
 800228e:	ea4f 03cb 	mov.w	r3, fp, lsl #3
 8002292:	ea43 735a 	orr.w	r3, r3, sl, lsr #29
 8002296:	ea4f 02ca 	mov.w	r2, sl, lsl #3
 800229a:	460b      	mov	r3, r1
 800229c:	3307      	adds	r3, #7
 800229e:	08db      	lsrs	r3, r3, #3
 80022a0:	00db      	lsls	r3, r3, #3
 80022a2:	ebad 0d03 	sub.w	sp, sp, r3
 80022a6:	ab02      	add	r3, sp, #8
 80022a8:	3300      	adds	r3, #0
 80022aa:	623b      	str	r3, [r7, #32]

				memset(ReportData, 0, sizeof(ReportData));
 80022ac:	460b      	mov	r3, r1
 80022ae:	461a      	mov	r2, r3
 80022b0:	2100      	movs	r1, #0
 80022b2:	6a38      	ldr	r0, [r7, #32]
 80022b4:	f004 f872 	bl	800639c <memset>

				CALLBACK_HID_Device_CreateHIDReport(HIDInterfaceInfo, &ReportID, ReportType, ReportData, &ReportSize);
 80022b8:	f897 202b 	ldrb.w	r2, [r7, #43]	; 0x2b
 80022bc:	f107 0115 	add.w	r1, r7, #21
 80022c0:	f107 0316 	add.w	r3, r7, #22
 80022c4:	9300      	str	r3, [sp, #0]
 80022c6:	6a3b      	ldr	r3, [r7, #32]
 80022c8:	68f8      	ldr	r0, [r7, #12]
 80022ca:	f7fe f839 	bl	8000340 <CALLBACK_HID_Device_CreateHIDReport>

				if (HIDInterfaceInfo->Config.PrevReportINBuffer != NULL)
 80022ce:	68fb      	ldr	r3, [r7, #12]
 80022d0:	689b      	ldr	r3, [r3, #8]
 80022d2:	2b00      	cmp	r3, #0
 80022d4:	d007      	beq.n	80022e6 <HID_Device_ProcessControlRequest+0x13e>
				{
					MEMCPY(HIDInterfaceInfo->Config.PrevReportINBuffer, ReportData,
 80022d6:	68fb      	ldr	r3, [r7, #12]
 80022d8:	6898      	ldr	r0, [r3, #8]
 80022da:	68fb      	ldr	r3, [r7, #12]
 80022dc:	7b1b      	ldrb	r3, [r3, #12]
 80022de:	461a      	mov	r2, r3
 80022e0:	6a39      	ldr	r1, [r7, #32]
 80022e2:	f000 fa5d 	bl	80027a0 <thumb2_memcpy>
		device.CurrentEndpoint = Address & ENDPOINT_EPNUM_MASK;
 80022e6:	2200      	movs	r2, #0
 80022e8:	4b65      	ldr	r3, [pc, #404]	; (8002480 <HID_Device_ProcessControlRequest+0x2d8>)
 80022ea:	f883 213c 	strb.w	r2, [r3, #316]	; 0x13c
		device.CurrentDirection = (Address & ENDPOINT_DIR_MASK);
 80022ee:	2200      	movs	r2, #0
 80022f0:	4b63      	ldr	r3, [pc, #396]	; (8002480 <HID_Device_ProcessControlRequest+0x2d8>)
 80022f2:	f883 213d 	strb.w	r2, [r3, #317]	; 0x13d
	}
 80022f6:	bf00      	nop
	 *  \note This is not applicable for non CONTROL type endpoints.
	 */
	static inline void Endpoint_ClearSETUP(void) ATTR_ALWAYS_INLINE;
	static inline void Endpoint_ClearSETUP(void)
	{
		device.IsSetupRecieved = 0;
 80022f8:	4a61      	ldr	r2, [pc, #388]	; (8002480 <HID_Device_ProcessControlRequest+0x2d8>)
 80022fa:	f892 313e 	ldrb.w	r3, [r2, #318]	; 0x13e
 80022fe:	f36f 0341 	bfc	r3, #1, #1
 8002302:	f882 313e 	strb.w	r3, [r2, #318]	; 0x13e
	}
 8002306:	bf00      	nop

				Endpoint_SelectEndpoint(ENDPOINT_CONTROLEP);

				Endpoint_ClearSETUP();

				if (ReportID)
 8002308:	7d7b      	ldrb	r3, [r7, #21]
 800230a:	2b00      	cmp	r3, #0
 800230c:	d003      	beq.n	8002316 <HID_Device_ProcessControlRequest+0x16e>
				  Endpoint_Write_8(ReportID);
 800230e:	7d7b      	ldrb	r3, [r7, #21]
 8002310:	4618      	mov	r0, r3
 8002312:	f000 fc2f 	bl	8002b74 <Endpoint_Write_8>

				Endpoint_Write_Control_Stream_LE(ReportData, ReportSize);
 8002316:	8afb      	ldrh	r3, [r7, #22]
 8002318:	4619      	mov	r1, r3
 800231a:	6a38      	ldr	r0, [r7, #32]
 800231c:	f000 ffc0 	bl	80032a0 <Endpoint_Write_Control_Stream_LE>
				Endpoint_ClearOUT();
 8002320:	f000 fb32 	bl	8002988 <Endpoint_ClearOUT>
 8002324:	46a5      	mov	sp, r4
			}

			break;
 8002326:	e121      	b.n	800256c <HID_Device_ProcessControlRequest+0x3c4>
		case HID_REQ_SetReport:
			if (USB_ControlRequest.bmRequestType == (REQDIR_HOSTTODEVICE | REQTYPE_CLASS | REQREC_INTERFACE))
 8002328:	4b56      	ldr	r3, [pc, #344]	; (8002484 <HID_Device_ProcessControlRequest+0x2dc>)
 800232a:	781b      	ldrb	r3, [r3, #0]
 800232c:	2b21      	cmp	r3, #33	; 0x21
 800232e:	f040 811f 	bne.w	8002570 <HID_Device_ProcessControlRequest+0x3c8>
			{
 8002332:	466b      	mov	r3, sp
 8002334:	461e      	mov	r6, r3
				uint16_t ReportSize = USB_ControlRequest.wLength;
 8002336:	4b53      	ldr	r3, [pc, #332]	; (8002484 <HID_Device_ProcessControlRequest+0x2dc>)
 8002338:	799a      	ldrb	r2, [r3, #6]
 800233a:	79db      	ldrb	r3, [r3, #7]
 800233c:	021b      	lsls	r3, r3, #8
 800233e:	4313      	orrs	r3, r2
 8002340:	86fb      	strh	r3, [r7, #54]	; 0x36
				uint8_t  ReportID   = (USB_ControlRequest.wValue & 0xFF);
 8002342:	4b50      	ldr	r3, [pc, #320]	; (8002484 <HID_Device_ProcessControlRequest+0x2dc>)
 8002344:	885b      	ldrh	r3, [r3, #2]
 8002346:	b29b      	uxth	r3, r3
 8002348:	f887 3035 	strb.w	r3, [r7, #53]	; 0x35
				uint8_t  ReportType = (USB_ControlRequest.wValue >> 8) - 1;
 800234c:	4b4d      	ldr	r3, [pc, #308]	; (8002484 <HID_Device_ProcessControlRequest+0x2dc>)
 800234e:	885b      	ldrh	r3, [r3, #2]
 8002350:	b29b      	uxth	r3, r3
 8002352:	0a1b      	lsrs	r3, r3, #8
 8002354:	b29b      	uxth	r3, r3
 8002356:	b2db      	uxtb	r3, r3
 8002358:	3b01      	subs	r3, #1
 800235a:	f887 3034 	strb.w	r3, [r7, #52]	; 0x34
				uint8_t  ReportData[ReportSize];
 800235e:	8ef9      	ldrh	r1, [r7, #54]	; 0x36
 8002360:	460b      	mov	r3, r1
 8002362:	3b01      	subs	r3, #1
 8002364:	633b      	str	r3, [r7, #48]	; 0x30
 8002366:	b28b      	uxth	r3, r1
 8002368:	2200      	movs	r2, #0
 800236a:	4698      	mov	r8, r3
 800236c:	4691      	mov	r9, r2
 800236e:	f04f 0200 	mov.w	r2, #0
 8002372:	f04f 0300 	mov.w	r3, #0
 8002376:	ea4f 03c9 	mov.w	r3, r9, lsl #3
 800237a:	ea43 7358 	orr.w	r3, r3, r8, lsr #29
 800237e:	ea4f 02c8 	mov.w	r2, r8, lsl #3
 8002382:	b28b      	uxth	r3, r1
 8002384:	2200      	movs	r2, #0
 8002386:	461c      	mov	r4, r3
 8002388:	4615      	mov	r5, r2
 800238a:	f04f 0200 	mov.w	r2, #0
 800238e:	f04f 0300 	mov.w	r3, #0
 8002392:	00eb      	lsls	r3, r5, #3
 8002394:	ea43 7354 	orr.w	r3, r3, r4, lsr #29
 8002398:	00e2      	lsls	r2, r4, #3
 800239a:	460b      	mov	r3, r1
 800239c:	3307      	adds	r3, #7
 800239e:	08db      	lsrs	r3, r3, #3
 80023a0:	00db      	lsls	r3, r3, #3
 80023a2:	ebad 0d03 	sub.w	sp, sp, r3
 80023a6:	ab02      	add	r3, sp, #8
 80023a8:	3300      	adds	r3, #0
 80023aa:	62fb      	str	r3, [r7, #44]	; 0x2c
		device.IsSetupRecieved = 0;
 80023ac:	4a34      	ldr	r2, [pc, #208]	; (8002480 <HID_Device_ProcessControlRequest+0x2d8>)
 80023ae:	f892 313e 	ldrb.w	r3, [r2, #318]	; 0x13e
 80023b2:	f36f 0341 	bfc	r3, #1, #1
 80023b6:	f882 313e 	strb.w	r3, [r2, #318]	; 0x13e
	}
 80023ba:	bf00      	nop

				Endpoint_ClearSETUP();
				Endpoint_Read_Control_Stream_LE(ReportData, ReportSize);
 80023bc:	8efb      	ldrh	r3, [r7, #54]	; 0x36
 80023be:	4619      	mov	r1, r3
 80023c0:	6af8      	ldr	r0, [r7, #44]	; 0x2c
 80023c2:	f000 ffb5 	bl	8003330 <Endpoint_Read_Control_Stream_LE>
				Endpoint_ClearIN();
 80023c6:	f000 fb2b 	bl	8002a20 <Endpoint_ClearIN>

				CALLBACK_HID_Device_ProcessHIDReport(HIDInterfaceInfo, ReportID, ReportType,
				                                     &ReportData[ReportID ? 1 : 0], ReportSize - (ReportID ? 1 : 0));
 80023ca:	f897 3035 	ldrb.w	r3, [r7, #53]	; 0x35
 80023ce:	2b00      	cmp	r3, #0
 80023d0:	bf14      	ite	ne
 80023d2:	2301      	movne	r3, #1
 80023d4:	2300      	moveq	r3, #0
 80023d6:	b2db      	uxtb	r3, r3
 80023d8:	461a      	mov	r2, r3
 80023da:	6afb      	ldr	r3, [r7, #44]	; 0x2c
 80023dc:	1898      	adds	r0, r3, r2
 80023de:	f897 3035 	ldrb.w	r3, [r7, #53]	; 0x35
 80023e2:	2b00      	cmp	r3, #0
 80023e4:	bf14      	ite	ne
 80023e6:	2301      	movne	r3, #1
 80023e8:	2300      	moveq	r3, #0
 80023ea:	b2db      	uxtb	r3, r3
 80023ec:	b29b      	uxth	r3, r3
				CALLBACK_HID_Device_ProcessHIDReport(HIDInterfaceInfo, ReportID, ReportType,
 80023ee:	8efa      	ldrh	r2, [r7, #54]	; 0x36
 80023f0:	1ad3      	subs	r3, r2, r3
 80023f2:	b29b      	uxth	r3, r3
 80023f4:	f897 2034 	ldrb.w	r2, [r7, #52]	; 0x34
 80023f8:	f897 1035 	ldrb.w	r1, [r7, #53]	; 0x35
 80023fc:	9300      	str	r3, [sp, #0]
 80023fe:	4603      	mov	r3, r0
 8002400:	68f8      	ldr	r0, [r7, #12]
 8002402:	f7fd ffe3 	bl	80003cc <CALLBACK_HID_Device_ProcessHIDReport>
 8002406:	46b5      	mov	sp, r6
			}

			break;
 8002408:	e0b2      	b.n	8002570 <HID_Device_ProcessControlRequest+0x3c8>
		case HID_REQ_GetProtocol:
			if (USB_ControlRequest.bmRequestType == (REQDIR_DEVICETOHOST | REQTYPE_CLASS | REQREC_INTERFACE))
 800240a:	4b1e      	ldr	r3, [pc, #120]	; (8002484 <HID_Device_ProcessControlRequest+0x2dc>)
 800240c:	781b      	ldrb	r3, [r3, #0]
 800240e:	2ba1      	cmp	r3, #161	; 0xa1
 8002410:	f040 80b0 	bne.w	8002574 <HID_Device_ProcessControlRequest+0x3cc>
		device.IsSetupRecieved = 0;
 8002414:	4a1a      	ldr	r2, [pc, #104]	; (8002480 <HID_Device_ProcessControlRequest+0x2d8>)
 8002416:	f892 313e 	ldrb.w	r3, [r2, #318]	; 0x13e
 800241a:	f36f 0341 	bfc	r3, #1, #1
 800241e:	f882 313e 	strb.w	r3, [r2, #318]	; 0x13e
	}
 8002422:	bf00      	nop
			{
				Endpoint_ClearSETUP();
				while (!(Endpoint_IsINReady()));
 8002424:	bf00      	nop
	 *  \return Boolean \c true if the current endpoint is ready for an IN packet, \c false otherwise.
	 */
	static inline bool Endpoint_IsINReady(void) ATTR_WARN_UNUSED_RESULT ATTR_ALWAYS_INLINE;
	static inline bool Endpoint_IsINReady(void)
	{
		USBD_Endpoint_t *ep = &device.Endpoints[device.CurrentEndpoint];
 8002426:	4b16      	ldr	r3, [pc, #88]	; (8002480 <HID_Device_ProcessControlRequest+0x2d8>)
 8002428:	f893 313c 	ldrb.w	r3, [r3, #316]	; 0x13c
 800242c:	461a      	mov	r2, r3
 800242e:	232c      	movs	r3, #44	; 0x2c
 8002430:	fb02 f303 	mul.w	r3, r2, r3
 8002434:	4a12      	ldr	r2, [pc, #72]	; (8002480 <HID_Device_ProcessControlRequest+0x2d8>)
 8002436:	4413      	add	r3, r2
 8002438:	3304      	adds	r3, #4
 800243a:	61fb      	str	r3, [r7, #28]
		return ep->InInUse == 0 && ep->IsEnabled;
 800243c:	69fb      	ldr	r3, [r7, #28]
 800243e:	685b      	ldr	r3, [r3, #4]
 8002440:	f3c3 1300 	ubfx	r3, r3, #4, #1
 8002444:	b2db      	uxtb	r3, r3
 8002446:	2b00      	cmp	r3, #0
 8002448:	d108      	bne.n	800245c <HID_Device_ProcessControlRequest+0x2b4>
 800244a:	69fb      	ldr	r3, [r7, #28]
 800244c:	791b      	ldrb	r3, [r3, #4]
 800244e:	f003 0302 	and.w	r3, r3, #2
 8002452:	b2db      	uxtb	r3, r3
 8002454:	2b00      	cmp	r3, #0
 8002456:	d001      	beq.n	800245c <HID_Device_ProcessControlRequest+0x2b4>
 8002458:	2301      	movs	r3, #1
 800245a:	e000      	b.n	800245e <HID_Device_ProcessControlRequest+0x2b6>
 800245c:	2300      	movs	r3, #0
 800245e:	f003 0301 	and.w	r3, r3, #1
 8002462:	b2db      	uxtb	r3, r3
 8002464:	f083 0301 	eor.w	r3, r3, #1
 8002468:	b2db      	uxtb	r3, r3
 800246a:	2b00      	cmp	r3, #0
 800246c:	d1db      	bne.n	8002426 <HID_Device_ProcessControlRequest+0x27e>
				Endpoint_Write_8(HIDInterfaceInfo->State.UsingReportProtocol);
 800246e:	68fb      	ldr	r3, [r7, #12]
 8002470:	7c1b      	ldrb	r3, [r3, #16]
 8002472:	4618      	mov	r0, r3
 8002474:	f000 fb7e 	bl	8002b74 <Endpoint_Write_8>
				Endpoint_ClearIN();
 8002478:	f000 fad2 	bl	8002a20 <Endpoint_ClearIN>
	}
 800247c:	bf00      	nop
				Endpoint_ClearStatusStage();
			}

			break;
 800247e:	e079      	b.n	8002574 <HID_Device_ProcessControlRequest+0x3cc>
 8002480:	200004f8 	.word	0x200004f8
 8002484:	20000a80 	.word	0x20000a80
		case HID_REQ_SetProtocol:
			if (USB_ControlRequest.bmRequestType == (REQDIR_HOSTTODEVICE | REQTYPE_CLASS | REQREC_INTERFACE))
 8002488:	4b40      	ldr	r3, [pc, #256]	; (800258c <HID_Device_ProcessControlRequest+0x3e4>)
 800248a:	781b      	ldrb	r3, [r3, #0]
 800248c:	2b21      	cmp	r3, #33	; 0x21
 800248e:	d173      	bne.n	8002578 <HID_Device_ProcessControlRequest+0x3d0>
		device.IsSetupRecieved = 0;
 8002490:	4a3f      	ldr	r2, [pc, #252]	; (8002590 <HID_Device_ProcessControlRequest+0x3e8>)
 8002492:	f892 313e 	ldrb.w	r3, [r2, #318]	; 0x13e
 8002496:	f36f 0341 	bfc	r3, #1, #1
 800249a:	f882 313e 	strb.w	r3, [r2, #318]	; 0x13e
	}
 800249e:	bf00      	nop
	}
 80024a0:	bf00      	nop
			{
				Endpoint_ClearSETUP();
				Endpoint_ClearStatusStage();

				HIDInterfaceInfo->State.UsingReportProtocol = ((USB_ControlRequest.wValue & 0xFF) != 0x00);
 80024a2:	4b3a      	ldr	r3, [pc, #232]	; (800258c <HID_Device_ProcessControlRequest+0x3e4>)
 80024a4:	885b      	ldrh	r3, [r3, #2]
 80024a6:	b29b      	uxth	r3, r3
 80024a8:	b2db      	uxtb	r3, r3
 80024aa:	2b00      	cmp	r3, #0
 80024ac:	bf14      	ite	ne
 80024ae:	2301      	movne	r3, #1
 80024b0:	2300      	moveq	r3, #0
 80024b2:	b2da      	uxtb	r2, r3
 80024b4:	68fb      	ldr	r3, [r7, #12]
 80024b6:	741a      	strb	r2, [r3, #16]
			}

			break;
 80024b8:	e05e      	b.n	8002578 <HID_Device_ProcessControlRequest+0x3d0>
		case HID_REQ_SetIdle:
			if (USB_ControlRequest.bmRequestType == (REQDIR_HOSTTODEVICE | REQTYPE_CLASS | REQREC_INTERFACE))
 80024ba:	4b34      	ldr	r3, [pc, #208]	; (800258c <HID_Device_ProcessControlRequest+0x3e4>)
 80024bc:	781b      	ldrb	r3, [r3, #0]
 80024be:	2b21      	cmp	r3, #33	; 0x21
 80024c0:	d15c      	bne.n	800257c <HID_Device_ProcessControlRequest+0x3d4>
		device.IsSetupRecieved = 0;
 80024c2:	4a33      	ldr	r2, [pc, #204]	; (8002590 <HID_Device_ProcessControlRequest+0x3e8>)
 80024c4:	f892 313e 	ldrb.w	r3, [r2, #318]	; 0x13e
 80024c8:	f36f 0341 	bfc	r3, #1, #1
 80024cc:	f882 313e 	strb.w	r3, [r2, #318]	; 0x13e
	}
 80024d0:	bf00      	nop
	}
 80024d2:	bf00      	nop
			{
				Endpoint_ClearSETUP();
				Endpoint_ClearStatusStage();

				HIDInterfaceInfo->State.IdleCount = ((USB_ControlRequest.wValue & 0xFF00) >> 6);
 80024d4:	4b2d      	ldr	r3, [pc, #180]	; (800258c <HID_Device_ProcessControlRequest+0x3e4>)
 80024d6:	885b      	ldrh	r3, [r3, #2]
 80024d8:	b29b      	uxth	r3, r3
 80024da:	119b      	asrs	r3, r3, #6
 80024dc:	b29b      	uxth	r3, r3
 80024de:	f403 737f 	and.w	r3, r3, #1020	; 0x3fc
 80024e2:	b29a      	uxth	r2, r3
 80024e4:	68fb      	ldr	r3, [r7, #12]
 80024e6:	829a      	strh	r2, [r3, #20]
			}

			break;
 80024e8:	e048      	b.n	800257c <HID_Device_ProcessControlRequest+0x3d4>
		case HID_REQ_GetIdle:
			if (USB_ControlRequest.bmRequestType == (REQDIR_DEVICETOHOST | REQTYPE_CLASS | REQREC_INTERFACE))
 80024ea:	4b28      	ldr	r3, [pc, #160]	; (800258c <HID_Device_ProcessControlRequest+0x3e4>)
 80024ec:	781b      	ldrb	r3, [r3, #0]
 80024ee:	2ba1      	cmp	r3, #161	; 0xa1
 80024f0:	d146      	bne.n	8002580 <HID_Device_ProcessControlRequest+0x3d8>
		device.IsSetupRecieved = 0;
 80024f2:	4a27      	ldr	r2, [pc, #156]	; (8002590 <HID_Device_ProcessControlRequest+0x3e8>)
 80024f4:	f892 313e 	ldrb.w	r3, [r2, #318]	; 0x13e
 80024f8:	f36f 0341 	bfc	r3, #1, #1
 80024fc:	f882 313e 	strb.w	r3, [r2, #318]	; 0x13e
	}
 8002500:	bf00      	nop
			{
				Endpoint_ClearSETUP();
				while (!(Endpoint_IsINReady()));
 8002502:	bf00      	nop
		USBD_Endpoint_t *ep = &device.Endpoints[device.CurrentEndpoint];
 8002504:	4b22      	ldr	r3, [pc, #136]	; (8002590 <HID_Device_ProcessControlRequest+0x3e8>)
 8002506:	f893 313c 	ldrb.w	r3, [r3, #316]	; 0x13c
 800250a:	461a      	mov	r2, r3
 800250c:	232c      	movs	r3, #44	; 0x2c
 800250e:	fb02 f303 	mul.w	r3, r2, r3
 8002512:	4a1f      	ldr	r2, [pc, #124]	; (8002590 <HID_Device_ProcessControlRequest+0x3e8>)
 8002514:	4413      	add	r3, r2
 8002516:	3304      	adds	r3, #4
 8002518:	61bb      	str	r3, [r7, #24]
		return ep->InInUse == 0 && ep->IsEnabled;
 800251a:	69bb      	ldr	r3, [r7, #24]
 800251c:	685b      	ldr	r3, [r3, #4]
 800251e:	f3c3 1300 	ubfx	r3, r3, #4, #1
 8002522:	b2db      	uxtb	r3, r3
 8002524:	2b00      	cmp	r3, #0
 8002526:	d108      	bne.n	800253a <HID_Device_ProcessControlRequest+0x392>
 8002528:	69bb      	ldr	r3, [r7, #24]
 800252a:	791b      	ldrb	r3, [r3, #4]
 800252c:	f003 0302 	and.w	r3, r3, #2
 8002530:	b2db      	uxtb	r3, r3
 8002532:	2b00      	cmp	r3, #0
 8002534:	d001      	beq.n	800253a <HID_Device_ProcessControlRequest+0x392>
 8002536:	2301      	movs	r3, #1
 8002538:	e000      	b.n	800253c <HID_Device_ProcessControlRequest+0x394>
 800253a:	2300      	movs	r3, #0
 800253c:	f003 0301 	and.w	r3, r3, #1
 8002540:	b2db      	uxtb	r3, r3
 8002542:	f083 0301 	eor.w	r3, r3, #1
 8002546:	b2db      	uxtb	r3, r3
 8002548:	2b00      	cmp	r3, #0
 800254a:	d1db      	bne.n	8002504 <HID_Device_ProcessControlRequest+0x35c>
				Endpoint_Write_8(HIDInterfaceInfo->State.IdleCount >> 2);
 800254c:	68fb      	ldr	r3, [r7, #12]
 800254e:	8a9b      	ldrh	r3, [r3, #20]
 8002550:	089b      	lsrs	r3, r3, #2
 8002552:	b29b      	uxth	r3, r3
 8002554:	b2db      	uxtb	r3, r3
 8002556:	4618      	mov	r0, r3
 8002558:	f000 fb0c 	bl	8002b74 <Endpoint_Write_8>
				Endpoint_ClearIN();
 800255c:	f000 fa60 	bl	8002a20 <Endpoint_ClearIN>
	}
 8002560:	bf00      	nop
				Endpoint_ClearStatusStage();
			}

			break;
 8002562:	e00d      	b.n	8002580 <HID_Device_ProcessControlRequest+0x3d8>
	  return;
 8002564:	bf00      	nop
 8002566:	e00c      	b.n	8002582 <HID_Device_ProcessControlRequest+0x3da>
	  return;
 8002568:	bf00      	nop
 800256a:	e00a      	b.n	8002582 <HID_Device_ProcessControlRequest+0x3da>
			break;
 800256c:	bf00      	nop
 800256e:	e008      	b.n	8002582 <HID_Device_ProcessControlRequest+0x3da>
			break;
 8002570:	bf00      	nop
 8002572:	e006      	b.n	8002582 <HID_Device_ProcessControlRequest+0x3da>
			break;
 8002574:	bf00      	nop
 8002576:	e004      	b.n	8002582 <HID_Device_ProcessControlRequest+0x3da>
			break;
 8002578:	bf00      	nop
 800257a:	e002      	b.n	8002582 <HID_Device_ProcessControlRequest+0x3da>
			break;
 800257c:	bf00      	nop
 800257e:	e000      	b.n	8002582 <HID_Device_ProcessControlRequest+0x3da>
			break;
 8002580:	bf00      	nop
	}
}
 8002582:	373c      	adds	r7, #60	; 0x3c
 8002584:	46bd      	mov	sp, r7
 8002586:	e8bd 8ff0 	ldmia.w	sp!, {r4, r5, r6, r7, r8, r9, sl, fp, pc}
 800258a:	bf00      	nop
 800258c:	20000a80 	.word	0x20000a80
 8002590:	200004f8 	.word	0x200004f8

08002594 <HID_Device_ConfigureEndpoints>:

bool HID_Device_ConfigureEndpoints(USB_ClassInfo_HID_Device_t* const HIDInterfaceInfo)
{
 8002594:	b580      	push	{r7, lr}
 8002596:	b082      	sub	sp, #8
 8002598:	af00      	add	r7, sp, #0
 800259a:	6078      	str	r0, [r7, #4]
	memset(&HIDInterfaceInfo->State, 0x00, sizeof(HIDInterfaceInfo->State));
 800259c:	687b      	ldr	r3, [r7, #4]
 800259e:	3310      	adds	r3, #16
 80025a0:	2208      	movs	r2, #8
 80025a2:	2100      	movs	r1, #0
 80025a4:	4618      	mov	r0, r3
 80025a6:	f003 fef9 	bl	800639c <memset>
	HIDInterfaceInfo->State.UsingReportProtocol = true;
 80025aa:	687b      	ldr	r3, [r7, #4]
 80025ac:	2201      	movs	r2, #1
 80025ae:	741a      	strb	r2, [r3, #16]
	HIDInterfaceInfo->State.IdleCount           = 750;
 80025b0:	687b      	ldr	r3, [r7, #4]
 80025b2:	f240 22ee 	movw	r2, #750	; 0x2ee
 80025b6:	829a      	strh	r2, [r3, #20]

	HIDInterfaceInfo->Config.ReportINEndpoint.Type = EP_TYPE_INTERRUPT;
 80025b8:	687b      	ldr	r3, [r7, #4]
 80025ba:	2203      	movs	r2, #3
 80025bc:	719a      	strb	r2, [r3, #6]

	if (!(Endpoint_ConfigureEndpointTable(&HIDInterfaceInfo->Config.ReportINEndpoint, 1)))
 80025be:	687b      	ldr	r3, [r7, #4]
 80025c0:	3302      	adds	r3, #2
 80025c2:	2101      	movs	r1, #1
 80025c4:	4618      	mov	r0, r3
 80025c6:	f000 fbb1 	bl	8002d2c <Endpoint_ConfigureEndpointTable>
 80025ca:	4603      	mov	r3, r0
 80025cc:	f083 0301 	eor.w	r3, r3, #1
 80025d0:	b2db      	uxtb	r3, r3
 80025d2:	2b00      	cmp	r3, #0
 80025d4:	d001      	beq.n	80025da <HID_Device_ConfigureEndpoints+0x46>
	  return false;
 80025d6:	2300      	movs	r3, #0
 80025d8:	e000      	b.n	80025dc <HID_Device_ConfigureEndpoints+0x48>

	return true;
 80025da:	2301      	movs	r3, #1
}
 80025dc:	4618      	mov	r0, r3
 80025de:	3708      	adds	r7, #8
 80025e0:	46bd      	mov	sp, r7
 80025e2:	bd80      	pop	{r7, pc}

080025e4 <HID_Device_USBTask>:

void HID_Device_USBTask(USB_ClassInfo_HID_Device_t* const HIDInterfaceInfo)
{
 80025e4:	e92d 43f0 	stmdb	sp!, {r4, r5, r6, r7, r8, r9, lr}
 80025e8:	b08b      	sub	sp, #44	; 0x2c
 80025ea:	af02      	add	r7, sp, #8
 80025ec:	6078      	str	r0, [r7, #4]
	if (USB_DeviceState != DEVICE_STATE_Configured)
 80025ee:	4b6a      	ldr	r3, [pc, #424]	; (8002798 <HID_Device_USBTask+0x1b4>)
 80025f0:	781b      	ldrb	r3, [r3, #0]
 80025f2:	b2db      	uxtb	r3, r3
 80025f4:	2b04      	cmp	r3, #4
 80025f6:	f040 80c8 	bne.w	800278a <HID_Device_USBTask+0x1a6>
	  return;

	if (HIDInterfaceInfo->State.PrevFrameNum == USB_Device_GetFrameNumber())
 80025fa:	687b      	ldr	r3, [r7, #4]
 80025fc:	8a5e      	ldrh	r6, [r3, #18]
			 *  \return Current USB frame number from the USB controller.
			 */
    
            static inline uint16_t USB_Device_GetFrameNumber(void) ATTR_ALWAYS_INLINE;
            static inline uint16_t USB_Device_GetFrameNumber(void) {
                return device.Driver->GetFrameNumber();
 80025fe:	4b67      	ldr	r3, [pc, #412]	; (800279c <HID_Device_USBTask+0x1b8>)
 8002600:	681b      	ldr	r3, [r3, #0]
 8002602:	6b9b      	ldr	r3, [r3, #56]	; 0x38
 8002604:	4798      	blx	r3
 8002606:	4603      	mov	r3, r0
 8002608:	429e      	cmp	r6, r3
 800260a:	f000 80c0 	beq.w	800278e <HID_Device_USBTask+0x1aa>
		#else
		return;
		#endif
	}

	Endpoint_SelectEndpoint(HIDInterfaceInfo->Config.ReportINEndpoint.Address);
 800260e:	687b      	ldr	r3, [r7, #4]
 8002610:	789b      	ldrb	r3, [r3, #2]
 8002612:	747b      	strb	r3, [r7, #17]
		device.CurrentEndpoint = Address & ENDPOINT_EPNUM_MASK;
 8002614:	7c7b      	ldrb	r3, [r7, #17]
 8002616:	f003 030f 	and.w	r3, r3, #15
 800261a:	b2da      	uxtb	r2, r3
 800261c:	4b5f      	ldr	r3, [pc, #380]	; (800279c <HID_Device_USBTask+0x1b8>)
 800261e:	f883 213c 	strb.w	r2, [r3, #316]	; 0x13c
		device.CurrentDirection = (Address & ENDPOINT_DIR_MASK);
 8002622:	7c7b      	ldrb	r3, [r7, #17]
 8002624:	f023 037f 	bic.w	r3, r3, #127	; 0x7f
 8002628:	b2da      	uxtb	r2, r3
 800262a:	4b5c      	ldr	r3, [pc, #368]	; (800279c <HID_Device_USBTask+0x1b8>)
 800262c:	f883 213d 	strb.w	r2, [r3, #317]	; 0x13d
	}
 8002630:	bf00      	nop

	if (Endpoint_IsReadWriteAllowed())
 8002632:	f000 fa6d 	bl	8002b10 <Endpoint_IsReadWriteAllowed>
 8002636:	4603      	mov	r3, r0
 8002638:	2b00      	cmp	r3, #0
 800263a:	f000 80a9 	beq.w	8002790 <HID_Device_USBTask+0x1ac>
	{
 800263e:	466b      	mov	r3, sp
 8002640:	461e      	mov	r6, r3
		uint8_t  ReportINData[HIDInterfaceInfo->Config.PrevReportINBufferSize];
 8002642:	687b      	ldr	r3, [r7, #4]
 8002644:	7b19      	ldrb	r1, [r3, #12]
 8002646:	460b      	mov	r3, r1
 8002648:	3b01      	subs	r3, #1
 800264a:	61bb      	str	r3, [r7, #24]
 800264c:	b2cb      	uxtb	r3, r1
 800264e:	2200      	movs	r2, #0
 8002650:	4698      	mov	r8, r3
 8002652:	4691      	mov	r9, r2
 8002654:	f04f 0200 	mov.w	r2, #0
 8002658:	f04f 0300 	mov.w	r3, #0
 800265c:	ea4f 03c9 	mov.w	r3, r9, lsl #3
 8002660:	ea43 7358 	orr.w	r3, r3, r8, lsr #29
 8002664:	ea4f 02c8 	mov.w	r2, r8, lsl #3
 8002668:	b2cb      	uxtb	r3, r1
 800266a:	2200      	movs	r2, #0
 800266c:	461c      	mov	r4, r3
 800266e:	4615      	mov	r5, r2
 8002670:	f04f 0200 	mov.w	r2, #0
 8002674:	f04f 0300 	mov.w	r3, #0
 8002678:	00eb      	lsls	r3, r5, #3
 800267a:	ea43 7354 	orr.w	r3, r3, r4, lsr #29
 800267e:	00e2      	lsls	r2, r4, #3
 8002680:	460b      	mov	r3, r1
 8002682:	3307      	adds	r3, #7
 8002684:	08db      	lsrs	r3, r3, #3
 8002686:	00db      	lsls	r3, r3, #3
 8002688:	ebad 0d03 	sub.w	sp, sp, r3
 800268c:	ab02      	add	r3, sp, #8
 800268e:	3300      	adds	r3, #0
 8002690:	617b      	str	r3, [r7, #20]
		uint8_t  ReportID     = 0;
 8002692:	2300      	movs	r3, #0
 8002694:	73fb      	strb	r3, [r7, #15]
		uint16_t ReportINSize = 0;
 8002696:	2300      	movs	r3, #0
 8002698:	81bb      	strh	r3, [r7, #12]

		memset(ReportINData, 0, sizeof(ReportINData));
 800269a:	460b      	mov	r3, r1
 800269c:	461a      	mov	r2, r3
 800269e:	2100      	movs	r1, #0
 80026a0:	6978      	ldr	r0, [r7, #20]
 80026a2:	f003 fe7b 	bl	800639c <memset>

		bool ForceSend         = CALLBACK_HID_Device_CreateHIDReport(HIDInterfaceInfo, &ReportID, HID_REPORT_ITEM_In,
 80026a6:	f107 010f 	add.w	r1, r7, #15
 80026aa:	f107 030c 	add.w	r3, r7, #12
 80026ae:	9300      	str	r3, [sp, #0]
 80026b0:	697b      	ldr	r3, [r7, #20]
 80026b2:	2200      	movs	r2, #0
 80026b4:	6878      	ldr	r0, [r7, #4]
 80026b6:	f7fd fe43 	bl	8000340 <CALLBACK_HID_Device_CreateHIDReport>
 80026ba:	4603      	mov	r3, r0
 80026bc:	74fb      	strb	r3, [r7, #19]
		                                                             ReportINData, &ReportINSize);
		bool StatesChanged     = false;
 80026be:	2300      	movs	r3, #0
 80026c0:	77fb      	strb	r3, [r7, #31]
		bool IdlePeriodElapsed = (HIDInterfaceInfo->State.IdleCount && !(HIDInterfaceInfo->State.IdleMSRemaining));
 80026c2:	687b      	ldr	r3, [r7, #4]
 80026c4:	8a9b      	ldrh	r3, [r3, #20]
 80026c6:	2b00      	cmp	r3, #0
 80026c8:	d005      	beq.n	80026d6 <HID_Device_USBTask+0xf2>
 80026ca:	687b      	ldr	r3, [r7, #4]
 80026cc:	8adb      	ldrh	r3, [r3, #22]
 80026ce:	2b00      	cmp	r3, #0
 80026d0:	d101      	bne.n	80026d6 <HID_Device_USBTask+0xf2>
 80026d2:	2301      	movs	r3, #1
 80026d4:	e000      	b.n	80026d8 <HID_Device_USBTask+0xf4>
 80026d6:	2300      	movs	r3, #0
 80026d8:	74bb      	strb	r3, [r7, #18]
 80026da:	7cbb      	ldrb	r3, [r7, #18]
 80026dc:	f003 0301 	and.w	r3, r3, #1
 80026e0:	74bb      	strb	r3, [r7, #18]

		if (HIDInterfaceInfo->Config.PrevReportINBuffer != NULL)
 80026e2:	687b      	ldr	r3, [r7, #4]
 80026e4:	689b      	ldr	r3, [r3, #8]
 80026e6:	2b00      	cmp	r3, #0
 80026e8:	d014      	beq.n	8002714 <HID_Device_USBTask+0x130>
		{
			StatesChanged = (memcmp(ReportINData, HIDInterfaceInfo->Config.PrevReportINBuffer, ReportINSize) != 0);
 80026ea:	687b      	ldr	r3, [r7, #4]
 80026ec:	689b      	ldr	r3, [r3, #8]
 80026ee:	89ba      	ldrh	r2, [r7, #12]
 80026f0:	4619      	mov	r1, r3
 80026f2:	6978      	ldr	r0, [r7, #20]
 80026f4:	f003 fd84 	bl	8006200 <memcmp>
 80026f8:	4603      	mov	r3, r0
 80026fa:	2b00      	cmp	r3, #0
 80026fc:	bf14      	ite	ne
 80026fe:	2301      	movne	r3, #1
 8002700:	2300      	moveq	r3, #0
 8002702:	77fb      	strb	r3, [r7, #31]
			MEMCPY(HIDInterfaceInfo->Config.PrevReportINBuffer, ReportINData, HIDInterfaceInfo->Config.PrevReportINBufferSize);
 8002704:	687b      	ldr	r3, [r7, #4]
 8002706:	6898      	ldr	r0, [r3, #8]
 8002708:	687b      	ldr	r3, [r7, #4]
 800270a:	7b1b      	ldrb	r3, [r3, #12]
 800270c:	461a      	mov	r2, r3
 800270e:	6979      	ldr	r1, [r7, #20]
 8002710:	f000 f846 	bl	80027a0 <thumb2_memcpy>
		}

		if (ReportINSize && (ForceSend || StatesChanged || IdlePeriodElapsed))
 8002714:	89bb      	ldrh	r3, [r7, #12]
 8002716:	2b00      	cmp	r3, #0
 8002718:	d02d      	beq.n	8002776 <HID_Device_USBTask+0x192>
 800271a:	7cfb      	ldrb	r3, [r7, #19]
 800271c:	2b00      	cmp	r3, #0
 800271e:	d105      	bne.n	800272c <HID_Device_USBTask+0x148>
 8002720:	7ffb      	ldrb	r3, [r7, #31]
 8002722:	2b00      	cmp	r3, #0
 8002724:	d102      	bne.n	800272c <HID_Device_USBTask+0x148>
 8002726:	7cbb      	ldrb	r3, [r7, #18]
 8002728:	2b00      	cmp	r3, #0
 800272a:	d024      	beq.n	8002776 <HID_Device_USBTask+0x192>
		{
			HIDInterfaceInfo->State.IdleMSRemaining = HIDInterfaceInfo->State.IdleCount;
 800272c:	687b      	ldr	r3, [r7, #4]
 800272e:	8a9a      	ldrh	r2, [r3, #20]
 8002730:	687b      	ldr	r3, [r7, #4]
 8002732:	82da      	strh	r2, [r3, #22]

			Endpoint_SelectEndpoint(HIDInterfaceInfo->Config.ReportINEndpoint.Address);
 8002734:	687b      	ldr	r3, [r7, #4]
 8002736:	789b      	ldrb	r3, [r3, #2]
 8002738:	743b      	strb	r3, [r7, #16]
		device.CurrentEndpoint = Address & ENDPOINT_EPNUM_MASK;
 800273a:	7c3b      	ldrb	r3, [r7, #16]
 800273c:	f003 030f 	and.w	r3, r3, #15
 8002740:	b2da      	uxtb	r2, r3
 8002742:	4b16      	ldr	r3, [pc, #88]	; (800279c <HID_Device_USBTask+0x1b8>)
 8002744:	f883 213c 	strb.w	r2, [r3, #316]	; 0x13c
		device.CurrentDirection = (Address & ENDPOINT_DIR_MASK);
 8002748:	7c3b      	ldrb	r3, [r7, #16]
 800274a:	f023 037f 	bic.w	r3, r3, #127	; 0x7f
 800274e:	b2da      	uxtb	r2, r3
 8002750:	4b12      	ldr	r3, [pc, #72]	; (800279c <HID_Device_USBTask+0x1b8>)
 8002752:	f883 213d 	strb.w	r2, [r3, #317]	; 0x13d
	}
 8002756:	bf00      	nop

			if (ReportID)
 8002758:	7bfb      	ldrb	r3, [r7, #15]
 800275a:	2b00      	cmp	r3, #0
 800275c:	d003      	beq.n	8002766 <HID_Device_USBTask+0x182>
			  Endpoint_Write_8(ReportID);
 800275e:	7bfb      	ldrb	r3, [r7, #15]
 8002760:	4618      	mov	r0, r3
 8002762:	f000 fa07 	bl	8002b74 <Endpoint_Write_8>

			Endpoint_Write_Stream_LE(ReportINData, ReportINSize, NULL);
 8002766:	89bb      	ldrh	r3, [r7, #12]
 8002768:	2200      	movs	r2, #0
 800276a:	4619      	mov	r1, r3
 800276c:	6978      	ldr	r0, [r7, #20]
 800276e:	f000 fb85 	bl	8002e7c <Endpoint_Write_Stream_LE>

			Endpoint_ClearIN();
 8002772:	f000 f955 	bl	8002a20 <Endpoint_ClearIN>
 8002776:	4b09      	ldr	r3, [pc, #36]	; (800279c <HID_Device_USBTask+0x1b8>)
 8002778:	681b      	ldr	r3, [r3, #0]
 800277a:	6b9b      	ldr	r3, [r3, #56]	; 0x38
 800277c:	4798      	blx	r3
 800277e:	4603      	mov	r3, r0
 8002780:	461a      	mov	r2, r3
		}

		HIDInterfaceInfo->State.PrevFrameNum = USB_Device_GetFrameNumber();
 8002782:	687b      	ldr	r3, [r7, #4]
 8002784:	825a      	strh	r2, [r3, #18]
 8002786:	46b5      	mov	sp, r6
 8002788:	e002      	b.n	8002790 <HID_Device_USBTask+0x1ac>
	  return;
 800278a:	bf00      	nop
 800278c:	e000      	b.n	8002790 <HID_Device_USBTask+0x1ac>
		return;
 800278e:	bf00      	nop
	}
}
 8002790:	3724      	adds	r7, #36	; 0x24
 8002792:	46bd      	mov	sp, r7
 8002794:	e8bd 83f0 	ldmia.w	sp!, {r4, r5, r6, r7, r8, r9, pc}
 8002798:	20000a88 	.word	0x20000a88
 800279c:	200004f8 	.word	0x200004f8

080027a0 <thumb2_memcpy>:
   stack to improve its performance.  It copies 4 bytes at a time and
   unrolls the loop to perform 4 of these copies per loop iteration.
*/
__attribute__((naked)) void thumb2_memcpy(void* pDest, const void* pSource, size_t length)
{
    __asm (
 80027a0:	0913      	lsrs	r3, r2, #4
 80027a2:	d011      	beq.n	80027c8 <thumb2_memcpy+0x28>
 80027a4:	f851 cb04 	ldr.w	ip, [r1], #4
 80027a8:	f840 cb04 	str.w	ip, [r0], #4
 80027ac:	f851 cb04 	ldr.w	ip, [r1], #4
 80027b0:	f840 cb04 	str.w	ip, [r0], #4
 80027b4:	f851 cb04 	ldr.w	ip, [r1], #4
 80027b8:	f840 cb04 	str.w	ip, [r0], #4
 80027bc:	f851 cb04 	ldr.w	ip, [r1], #4
 80027c0:	f840 cb04 	str.w	ip, [r0], #4
 80027c4:	3b01      	subs	r3, #1
 80027c6:	d1ed      	bne.n	80027a4 <thumb2_memcpy+0x4>
 80027c8:	f012 030f 	ands.w	r3, r2, #15
 80027cc:	d005      	beq.n	80027da <thumb2_memcpy+0x3a>
 80027ce:	f811 cb01 	ldrb.w	ip, [r1], #1
 80027d2:	f800 cb01 	strb.w	ip, [r0], #1
 80027d6:	3b01      	subs	r3, #1
 80027d8:	d1f9      	bne.n	80027ce <thumb2_memcpy+0x2e>
 80027da:	4770      	bx	lr
        "    bne     3$\n"

        // Return to caller.
        "4$: bx      lr\n"
    );
}
 80027dc:	bf00      	nop
	...

080027e0 <__NVIC_EnableIRQ>:
{
 80027e0:	b480      	push	{r7}
 80027e2:	b083      	sub	sp, #12
 80027e4:	af00      	add	r7, sp, #0
 80027e6:	4603      	mov	r3, r0
 80027e8:	71fb      	strb	r3, [r7, #7]
  if ((int32_t)(IRQn) >= 0)
 80027ea:	f997 3007 	ldrsb.w	r3, [r7, #7]
 80027ee:	2b00      	cmp	r3, #0
 80027f0:	db0b      	blt.n	800280a <__NVIC_EnableIRQ+0x2a>
    NVIC->ISER[(((uint32_t)(int32_t)IRQn) >> 5UL)] = (uint32_t)(1UL << (((uint32_t)(int32_t)IRQn) & 0x1FUL));
 80027f2:	79fb      	ldrb	r3, [r7, #7]
 80027f4:	f003 021f 	and.w	r2, r3, #31
 80027f8:	4907      	ldr	r1, [pc, #28]	; (8002818 <__NVIC_EnableIRQ+0x38>)
 80027fa:	f997 3007 	ldrsb.w	r3, [r7, #7]
 80027fe:	095b      	lsrs	r3, r3, #5
 8002800:	2001      	movs	r0, #1
 8002802:	fa00 f202 	lsl.w	r2, r0, r2
 8002806:	f841 2023 	str.w	r2, [r1, r3, lsl #2]
}
 800280a:	bf00      	nop
 800280c:	370c      	adds	r7, #12
 800280e:	46bd      	mov	sp, r7
 8002810:	f85d 7b04 	ldr.w	r7, [sp], #4
 8002814:	4770      	bx	lr
 8002816:	bf00      	nop
 8002818:	e000e100 	.word	0xe000e100

0800281c <__NVIC_DisableIRQ>:
{
 800281c:	b480      	push	{r7}
 800281e:	b083      	sub	sp, #12
 8002820:	af00      	add	r7, sp, #0
 8002822:	4603      	mov	r3, r0
 8002824:	71fb      	strb	r3, [r7, #7]
  if ((int32_t)(IRQn) >= 0)
 8002826:	f997 3007 	ldrsb.w	r3, [r7, #7]
 800282a:	2b00      	cmp	r3, #0
 800282c:	db12      	blt.n	8002854 <__NVIC_DisableIRQ+0x38>
    NVIC->ICER[(((uint32_t)(int32_t)IRQn) >> 5UL)] = (uint32_t)(1UL << (((uint32_t)(int32_t)IRQn) & 0x1FUL));
 800282e:	79fb      	ldrb	r3, [r7, #7]
 8002830:	f003 021f 	and.w	r2, r3, #31
 8002834:	490a      	ldr	r1, [pc, #40]	; (8002860 <__NVIC_DisableIRQ+0x44>)
 8002836:	f997 3007 	ldrsb.w	r3, [r7, #7]
 800283a:	095b      	lsrs	r3, r3, #5
 800283c:	2001      	movs	r0, #1
 800283e:	fa00 f202 	lsl.w	r2, r0, r2
 8002842:	3320      	adds	r3, #32
 8002844:	f841 2023 	str.w	r2, [r1, r3, lsl #2]
  \details Acts as a special kind of Data Memory Barrier.
           It completes when all explicit memory accesses before this instruction complete.
 */
__attribute__((always_inline)) __STATIC_INLINE void __DSB(void)
{
  __ASM volatile ("dsb 0xF":::"memory");
 8002848:	f3bf 8f4f 	dsb	sy
}
 800284c:	bf00      	nop
  __ASM volatile ("isb 0xF":::"memory");
 800284e:	f3bf 8f6f 	isb	sy
}
 8002852:	bf00      	nop
}
 8002854:	bf00      	nop
 8002856:	370c      	adds	r7, #12
 8002858:	46bd      	mov	sp, r7
 800285a:	f85d 7b04 	ldr.w	r7, [sp], #4
 800285e:	4770      	bx	lr
 8002860:	e000e100 	.word	0xe000e100

08002864 <Endpoint_WaitUntilReady>:
#define USB_STREAM_TIMEOUT_MS 100

extern volatile uint8_t zlp_flag;

uint8_t Endpoint_WaitUntilReady(void)
{
 8002864:	b580      	push	{r7, lr}
 8002866:	b086      	sub	sp, #24
 8002868:	af00      	add	r7, sp, #0
	#if (USB_STREAM_TIMEOUT_MS < 0xFF)
	uint8_t  TimeoutMSRem = USB_STREAM_TIMEOUT_MS;
 800286a:	2364      	movs	r3, #100	; 0x64
 800286c:	75fb      	strb	r3, [r7, #23]
			 *  \return Current USB frame number from the USB controller.
			 */
    
            static inline uint16_t USB_Device_GetFrameNumber(void) ATTR_ALWAYS_INLINE;
            static inline uint16_t USB_Device_GetFrameNumber(void) {
                return device.Driver->GetFrameNumber();
 800286e:	4b44      	ldr	r3, [pc, #272]	; (8002980 <Endpoint_WaitUntilReady+0x11c>)
 8002870:	681b      	ldr	r3, [r3, #0]
 8002872:	6b9b      	ldr	r3, [r3, #56]	; 0x38
 8002874:	4798      	blx	r3
 8002876:	4603      	mov	r3, r0
	#else
	uint16_t TimeoutMSRem = USB_STREAM_TIMEOUT_MS;
	#endif

	uint16_t PreviousFrameNumber = USB_Device_GetFrameNumber();
 8002878:	82bb      	strh	r3, [r7, #20]
	 *  \return The currently selected endpoint's direction, as a \c ENDPOINT_DIR_* mask.
	 */
	static inline uint8_t Endpoint_GetEndpointDirection(void) ATTR_WARN_UNUSED_RESULT ATTR_ALWAYS_INLINE;
	static inline uint8_t Endpoint_GetEndpointDirection(void)
	{
		USBD_Endpoint_t *ep = &device.Endpoints[device.CurrentEndpoint];
 800287a:	4b41      	ldr	r3, [pc, #260]	; (8002980 <Endpoint_WaitUntilReady+0x11c>)
 800287c:	f893 313c 	ldrb.w	r3, [r3, #316]	; 0x13c
 8002880:	461a      	mov	r2, r3
 8002882:	232c      	movs	r3, #44	; 0x2c
 8002884:	fb02 f303 	mul.w	r3, r2, r3
 8002888:	4a3d      	ldr	r2, [pc, #244]	; (8002980 <Endpoint_WaitUntilReady+0x11c>)
 800288a:	4413      	add	r3, r2
 800288c:	3304      	adds	r3, #4
 800288e:	60fb      	str	r3, [r7, #12]
		return ep->Address & ENDPOINT_DIR_MASK;
 8002890:	68fb      	ldr	r3, [r7, #12]
 8002892:	781b      	ldrb	r3, [r3, #0]
 8002894:	f023 037f 	bic.w	r3, r3, #127	; 0x7f
 8002898:	b2db      	uxtb	r3, r3

	for (;;)
	{
		if (Endpoint_GetEndpointDirection() == ENDPOINT_DIR_IN)
 800289a:	2b80      	cmp	r3, #128	; 0x80
 800289c:	d122      	bne.n	80028e4 <Endpoint_WaitUntilReady+0x80>
		USBD_Endpoint_t *ep = &device.Endpoints[device.CurrentEndpoint];
 800289e:	4b38      	ldr	r3, [pc, #224]	; (8002980 <Endpoint_WaitUntilReady+0x11c>)
 80028a0:	f893 313c 	ldrb.w	r3, [r3, #316]	; 0x13c
 80028a4:	461a      	mov	r2, r3
 80028a6:	232c      	movs	r3, #44	; 0x2c
 80028a8:	fb02 f303 	mul.w	r3, r2, r3
 80028ac:	4a34      	ldr	r2, [pc, #208]	; (8002980 <Endpoint_WaitUntilReady+0x11c>)
 80028ae:	4413      	add	r3, r2
 80028b0:	3304      	adds	r3, #4
 80028b2:	60bb      	str	r3, [r7, #8]
		return ep->InInUse == 0 && ep->IsEnabled;
 80028b4:	68bb      	ldr	r3, [r7, #8]
 80028b6:	685b      	ldr	r3, [r3, #4]
 80028b8:	f3c3 1300 	ubfx	r3, r3, #4, #1
 80028bc:	b2db      	uxtb	r3, r3
 80028be:	2b00      	cmp	r3, #0
 80028c0:	d108      	bne.n	80028d4 <Endpoint_WaitUntilReady+0x70>
 80028c2:	68bb      	ldr	r3, [r7, #8]
 80028c4:	791b      	ldrb	r3, [r3, #4]
 80028c6:	f003 0302 	and.w	r3, r3, #2
 80028ca:	b2db      	uxtb	r3, r3
 80028cc:	2b00      	cmp	r3, #0
 80028ce:	d001      	beq.n	80028d4 <Endpoint_WaitUntilReady+0x70>
 80028d0:	2301      	movs	r3, #1
 80028d2:	e000      	b.n	80028d6 <Endpoint_WaitUntilReady+0x72>
 80028d4:	2300      	movs	r3, #0
 80028d6:	f003 0301 	and.w	r3, r3, #1
 80028da:	b2db      	uxtb	r3, r3
		{
			if (Endpoint_IsINReady())
 80028dc:	2b00      	cmp	r3, #0
 80028de:	d01a      	beq.n	8002916 <Endpoint_WaitUntilReady+0xb2>
			  return ENDPOINT_READYWAIT_NoError;
 80028e0:	2300      	movs	r3, #0
 80028e2:	e048      	b.n	8002976 <Endpoint_WaitUntilReady+0x112>
		USBD_Endpoint_t *ep = &device.Endpoints[device.CurrentEndpoint];
 80028e4:	4b26      	ldr	r3, [pc, #152]	; (8002980 <Endpoint_WaitUntilReady+0x11c>)
 80028e6:	f893 313c 	ldrb.w	r3, [r3, #316]	; 0x13c
 80028ea:	461a      	mov	r2, r3
 80028ec:	232c      	movs	r3, #44	; 0x2c
 80028ee:	fb02 f303 	mul.w	r3, r2, r3
 80028f2:	4a23      	ldr	r2, [pc, #140]	; (8002980 <Endpoint_WaitUntilReady+0x11c>)
 80028f4:	4413      	add	r3, r2
 80028f6:	3304      	adds	r3, #4
 80028f8:	607b      	str	r3, [r7, #4]
		return ep->IsOutRecieved;
 80028fa:	687b      	ldr	r3, [r7, #4]
 80028fc:	685b      	ldr	r3, [r3, #4]
 80028fe:	f3c3 1340 	ubfx	r3, r3, #5, #1
 8002902:	b2db      	uxtb	r3, r3
 8002904:	2b00      	cmp	r3, #0
 8002906:	bf14      	ite	ne
 8002908:	2301      	movne	r3, #1
 800290a:	2300      	moveq	r3, #0
 800290c:	b2db      	uxtb	r3, r3
		}
		else
		{
			if (Endpoint_IsOUTReceived())
 800290e:	2b00      	cmp	r3, #0
 8002910:	d001      	beq.n	8002916 <Endpoint_WaitUntilReady+0xb2>
			  return ENDPOINT_READYWAIT_NoError;
 8002912:	2300      	movs	r3, #0
 8002914:	e02f      	b.n	8002976 <Endpoint_WaitUntilReady+0x112>
		}

		uint8_t USB_DeviceState_LCL = USB_DeviceState;
 8002916:	4b1b      	ldr	r3, [pc, #108]	; (8002984 <Endpoint_WaitUntilReady+0x120>)
 8002918:	781b      	ldrb	r3, [r3, #0]
 800291a:	74fb      	strb	r3, [r7, #19]

		if (USB_DeviceState_LCL == DEVICE_STATE_Unattached)
 800291c:	7cfb      	ldrb	r3, [r7, #19]
 800291e:	2b00      	cmp	r3, #0
 8002920:	d101      	bne.n	8002926 <Endpoint_WaitUntilReady+0xc2>
		  return ENDPOINT_READYWAIT_DeviceDisconnected;
 8002922:	2302      	movs	r3, #2
 8002924:	e027      	b.n	8002976 <Endpoint_WaitUntilReady+0x112>
		else if (USB_DeviceState_LCL == DEVICE_STATE_Suspended)
 8002926:	7cfb      	ldrb	r3, [r7, #19]
 8002928:	2b05      	cmp	r3, #5
 800292a:	d101      	bne.n	8002930 <Endpoint_WaitUntilReady+0xcc>
		  return ENDPOINT_READYWAIT_BusSuspended;
 800292c:	2303      	movs	r3, #3
 800292e:	e022      	b.n	8002976 <Endpoint_WaitUntilReady+0x112>
	 *  \return Boolean \c true if the currently selected endpoint is stalled, \c false otherwise.
	 */
	static inline bool Endpoint_IsStalled(void) ATTR_WARN_UNUSED_RESULT ATTR_ALWAYS_INLINE;
	static inline bool Endpoint_IsStalled(void)
	{
		return device.Endpoints[device.CurrentEndpoint].IsHalted == 1 ? true : false;
 8002930:	4b13      	ldr	r3, [pc, #76]	; (8002980 <Endpoint_WaitUntilReady+0x11c>)
 8002932:	f893 313c 	ldrb.w	r3, [r3, #316]	; 0x13c
 8002936:	4619      	mov	r1, r3
 8002938:	4a11      	ldr	r2, [pc, #68]	; (8002980 <Endpoint_WaitUntilReady+0x11c>)
 800293a:	232c      	movs	r3, #44	; 0x2c
 800293c:	fb01 f303 	mul.w	r3, r1, r3
 8002940:	4413      	add	r3, r2
 8002942:	7a1b      	ldrb	r3, [r3, #8]
 8002944:	f3c3 0380 	ubfx	r3, r3, #2, #1
 8002948:	b2db      	uxtb	r3, r3
		else if (Endpoint_IsStalled())
 800294a:	2b00      	cmp	r3, #0
 800294c:	d001      	beq.n	8002952 <Endpoint_WaitUntilReady+0xee>
		  return ENDPOINT_READYWAIT_EndpointStalled;
 800294e:	2301      	movs	r3, #1
 8002950:	e011      	b.n	8002976 <Endpoint_WaitUntilReady+0x112>
 8002952:	4b0b      	ldr	r3, [pc, #44]	; (8002980 <Endpoint_WaitUntilReady+0x11c>)
 8002954:	681b      	ldr	r3, [r3, #0]
 8002956:	6b9b      	ldr	r3, [r3, #56]	; 0x38
 8002958:	4798      	blx	r3
 800295a:	4603      	mov	r3, r0

		uint16_t CurrentFrameNumber = USB_Device_GetFrameNumber();
 800295c:	823b      	strh	r3, [r7, #16]

		if (CurrentFrameNumber != PreviousFrameNumber)
 800295e:	8a3a      	ldrh	r2, [r7, #16]
 8002960:	8abb      	ldrh	r3, [r7, #20]
 8002962:	429a      	cmp	r2, r3
 8002964:	d089      	beq.n	800287a <Endpoint_WaitUntilReady+0x16>
		{
			PreviousFrameNumber = CurrentFrameNumber;
 8002966:	8a3b      	ldrh	r3, [r7, #16]
 8002968:	82bb      	strh	r3, [r7, #20]

			if (!(TimeoutMSRem--))
 800296a:	7dfb      	ldrb	r3, [r7, #23]
 800296c:	1e5a      	subs	r2, r3, #1
 800296e:	75fa      	strb	r2, [r7, #23]
 8002970:	2b00      	cmp	r3, #0
 8002972:	d182      	bne.n	800287a <Endpoint_WaitUntilReady+0x16>
			  return ENDPOINT_READYWAIT_Timeout;
 8002974:	2304      	movs	r3, #4
		}
	}
}
 8002976:	4618      	mov	r0, r3
 8002978:	3718      	adds	r7, #24
 800297a:	46bd      	mov	sp, r7
 800297c:	bd80      	pop	{r7, pc}
 800297e:	bf00      	nop
 8002980:	200004f8 	.word	0x200004f8
 8002984:	20000a88 	.word	0x20000a88

08002988 <Endpoint_ClearOUT>:

void Endpoint_ClearOUT(void) {
 8002988:	b580      	push	{r7, lr}
 800298a:	b082      	sub	sp, #8
 800298c:	af00      	add	r7, sp, #0
	USBD_Endpoint_t *ep = &device.Endpoints[device.CurrentEndpoint];
 800298e:	4b23      	ldr	r3, [pc, #140]	; (8002a1c <Endpoint_ClearOUT+0x94>)
 8002990:	f893 313c 	ldrb.w	r3, [r3, #316]	; 0x13c
 8002994:	461a      	mov	r2, r3
 8002996:	232c      	movs	r3, #44	; 0x2c
 8002998:	fb02 f303 	mul.w	r3, r2, r3
 800299c:	4a1f      	ldr	r2, [pc, #124]	; (8002a1c <Endpoint_ClearOUT+0x94>)
 800299e:	4413      	add	r3, r2
 80029a0:	3304      	adds	r3, #4
 80029a2:	607b      	str	r3, [r7, #4]
	/* if we have data left which isn't read yet, we leave this routine to not override it */
	if (ep->IsEnabled == 0)
 80029a4:	687b      	ldr	r3, [r7, #4]
 80029a6:	791b      	ldrb	r3, [r3, #4]
 80029a8:	f003 0302 	and.w	r3, r3, #2
 80029ac:	b2db      	uxtb	r3, r3
 80029ae:	2b00      	cmp	r3, #0
 80029b0:	d02f      	beq.n	8002a12 <Endpoint_ClearOUT+0x8a>
		return;
	/* First Check whether we have data in the driver */
	ep->OutBytesAvailable = device.Driver->EndpointRead(ep->Address,ep->OutBuffer,ep->OutBufferLength);
 80029b2:	4b1a      	ldr	r3, [pc, #104]	; (8002a1c <Endpoint_ClearOUT+0x94>)
 80029b4:	681b      	ldr	r3, [r3, #0]
 80029b6:	6adb      	ldr	r3, [r3, #44]	; 0x2c
 80029b8:	687a      	ldr	r2, [r7, #4]
 80029ba:	7810      	ldrb	r0, [r2, #0]
 80029bc:	687a      	ldr	r2, [r7, #4]
 80029be:	6911      	ldr	r1, [r2, #16]
 80029c0:	687a      	ldr	r2, [r7, #4]
 80029c2:	6952      	ldr	r2, [r2, #20]
 80029c4:	4798      	blx	r3
 80029c6:	4603      	mov	r3, r0
 80029c8:	461a      	mov	r2, r3
 80029ca:	687b      	ldr	r3, [r7, #4]
 80029cc:	609a      	str	r2, [r3, #8]
	ep->OutOffset = 0;
 80029ce:	687b      	ldr	r3, [r7, #4]
 80029d0:	2200      	movs	r2, #0
 80029d2:	60da      	str	r2, [r3, #12]
	/* If we didn't request new data and all data has been read, request new */
	if (!ep->OutInUse && !ep->OutBytesAvailable) {
 80029d4:	687b      	ldr	r3, [r7, #4]
 80029d6:	685b      	ldr	r3, [r3, #4]
 80029d8:	f3c3 03c0 	ubfx	r3, r3, #3, #1
 80029dc:	b2db      	uxtb	r3, r3
 80029de:	2b00      	cmp	r3, #0
 80029e0:	d118      	bne.n	8002a14 <Endpoint_ClearOUT+0x8c>
 80029e2:	687b      	ldr	r3, [r7, #4]
 80029e4:	689b      	ldr	r3, [r3, #8]
 80029e6:	2b00      	cmp	r3, #0
 80029e8:	d114      	bne.n	8002a14 <Endpoint_ClearOUT+0x8c>
		ep->OutInUse = true;
 80029ea:	687a      	ldr	r2, [r7, #4]
 80029ec:	8893      	ldrh	r3, [r2, #4]
 80029ee:	f043 0308 	orr.w	r3, r3, #8
 80029f2:	8093      	strh	r3, [r2, #4]
		ep->IsOutRecieved = 0;
 80029f4:	687a      	ldr	r2, [r7, #4]
 80029f6:	8893      	ldrh	r3, [r2, #4]
 80029f8:	f36f 1345 	bfc	r3, #5, #1
 80029fc:	8093      	strh	r3, [r2, #4]
		device.Driver->EndpointReadStart(ep->Address,
 80029fe:	4b07      	ldr	r3, [pc, #28]	; (8002a1c <Endpoint_ClearOUT+0x94>)
 8002a00:	681b      	ldr	r3, [r3, #0]
 8002a02:	6a9b      	ldr	r3, [r3, #40]	; 0x28
 8002a04:	687a      	ldr	r2, [r7, #4]
 8002a06:	7810      	ldrb	r0, [r2, #0]
 8002a08:	687a      	ldr	r2, [r7, #4]
 8002a0a:	6952      	ldr	r2, [r2, #20]
 8002a0c:	4611      	mov	r1, r2
 8002a0e:	4798      	blx	r3
 8002a10:	e000      	b.n	8002a14 <Endpoint_ClearOUT+0x8c>
		return;
 8002a12:	bf00      	nop
				ep->OutBufferLength);
	}
}
 8002a14:	3708      	adds	r7, #8
 8002a16:	46bd      	mov	sp, r7
 8002a18:	bd80      	pop	{r7, pc}
 8002a1a:	bf00      	nop
 8002a1c:	200004f8 	.word	0x200004f8

08002a20 <Endpoint_ClearIN>:

void Endpoint_ClearIN(void)
{
 8002a20:	b580      	push	{r7, lr}
 8002a22:	b082      	sub	sp, #8
 8002a24:	af00      	add	r7, sp, #0
	USBD_Endpoint_t *ep = &device.Endpoints[device.CurrentEndpoint];
 8002a26:	4b38      	ldr	r3, [pc, #224]	; (8002b08 <Endpoint_ClearIN+0xe8>)
 8002a28:	f893 313c 	ldrb.w	r3, [r3, #316]	; 0x13c
 8002a2c:	461a      	mov	r2, r3
 8002a2e:	232c      	movs	r3, #44	; 0x2c
 8002a30:	fb02 f303 	mul.w	r3, r2, r3
 8002a34:	4a34      	ldr	r2, [pc, #208]	; (8002b08 <Endpoint_ClearIN+0xe8>)
 8002a36:	4413      	add	r3, r2
 8002a38:	3304      	adds	r3, #4
 8002a3a:	607b      	str	r3, [r7, #4]
	int32_t data_count;
	/* don't clear if in use or not enabled */
	if (ep->InInUse == 1 || ep->IsEnabled == 0)
 8002a3c:	687b      	ldr	r3, [r7, #4]
 8002a3e:	685b      	ldr	r3, [r3, #4]
 8002a40:	f3c3 1300 	ubfx	r3, r3, #4, #1
 8002a44:	b2db      	uxtb	r3, r3
 8002a46:	2b01      	cmp	r3, #1
 8002a48:	d059      	beq.n	8002afe <Endpoint_ClearIN+0xde>
 8002a4a:	687b      	ldr	r3, [r7, #4]
 8002a4c:	791b      	ldrb	r3, [r3, #4]
 8002a4e:	f003 0302 	and.w	r3, r3, #2
 8002a52:	b2db      	uxtb	r3, r3
 8002a54:	2b00      	cmp	r3, #0
 8002a56:	d052      	beq.n	8002afe <Endpoint_ClearIN+0xde>
		return;
	ep->InInUse = true;
 8002a58:	687a      	ldr	r2, [r7, #4]
 8002a5a:	8893      	ldrh	r3, [r2, #4]
 8002a5c:	f043 0310 	orr.w	r3, r3, #16
 8002a60:	8093      	strh	r3, [r2, #4]
	/* store transfer information to loop over, if underlying is smaller */
	ep->InDataBuffer = ep->InBuffer;
 8002a62:	687b      	ldr	r3, [r7, #4]
 8002a64:	69da      	ldr	r2, [r3, #28]
 8002a66:	687b      	ldr	r3, [r7, #4]
 8002a68:	629a      	str	r2, [r3, #40]	; 0x28
	ep->InDataLeft = ep->InBytesAvailable;
 8002a6a:	687b      	ldr	r3, [r7, #4]
 8002a6c:	699a      	ldr	r2, [r3, #24]
 8002a6e:	687b      	ldr	r3, [r7, #4]
 8002a70:	625a      	str	r2, [r3, #36]	; 0x24
	ep->InBytesAvailable = 0;
 8002a72:	687b      	ldr	r3, [r7, #4]
 8002a74:	2200      	movs	r2, #0
 8002a76:	619a      	str	r2, [r3, #24]
	/* make next 3 operations atomic. Do not get interrupted.*/
	NVIC_DisableIRQ(USB0_0_IRQn);
 8002a78:	206b      	movs	r0, #107	; 0x6b
 8002a7a:	f7ff fecf 	bl	800281c <__NVIC_DisableIRQ>
	data_count = device.Driver->EndpointWrite(ep->Address,
 8002a7e:	4b22      	ldr	r3, [pc, #136]	; (8002b08 <Endpoint_ClearIN+0xe8>)
 8002a80:	681b      	ldr	r3, [r3, #0]
 8002a82:	6b1b      	ldr	r3, [r3, #48]	; 0x30
 8002a84:	687a      	ldr	r2, [r7, #4]
 8002a86:	7810      	ldrb	r0, [r2, #0]
			ep->InDataBuffer,ep->InDataLeft);
 8002a88:	687a      	ldr	r2, [r7, #4]
 8002a8a:	6a91      	ldr	r1, [r2, #40]	; 0x28
	data_count = device.Driver->EndpointWrite(ep->Address,
 8002a8c:	687a      	ldr	r2, [r7, #4]
 8002a8e:	6a52      	ldr	r2, [r2, #36]	; 0x24
 8002a90:	4798      	blx	r3
 8002a92:	6038      	str	r0, [r7, #0]
	ep->InDataBuffer += data_count;
 8002a94:	687b      	ldr	r3, [r7, #4]
 8002a96:	6a9a      	ldr	r2, [r3, #40]	; 0x28
 8002a98:	683b      	ldr	r3, [r7, #0]
 8002a9a:	441a      	add	r2, r3
 8002a9c:	687b      	ldr	r3, [r7, #4]
 8002a9e:	629a      	str	r2, [r3, #40]	; 0x28
	ep->InDataLeft -= data_count;
 8002aa0:	687b      	ldr	r3, [r7, #4]
 8002aa2:	6a5a      	ldr	r2, [r3, #36]	; 0x24
 8002aa4:	683b      	ldr	r3, [r7, #0]
 8002aa6:	1ad2      	subs	r2, r2, r3
 8002aa8:	687b      	ldr	r3, [r7, #4]
 8002aaa:	625a      	str	r2, [r3, #36]	; 0x24
	NVIC_EnableIRQ(USB0_0_IRQn);
 8002aac:	206b      	movs	r0, #107	; 0x6b
 8002aae:	f7ff fe97 	bl	80027e0 <__NVIC_EnableIRQ>
	if((zlp_flag == true) && (ep->Number != 0))
 8002ab2:	4b16      	ldr	r3, [pc, #88]	; (8002b0c <Endpoint_ClearIN+0xec>)
 8002ab4:	781b      	ldrb	r3, [r3, #0]
 8002ab6:	b2db      	uxtb	r3, r3
 8002ab8:	2b01      	cmp	r3, #1
 8002aba:	d121      	bne.n	8002b00 <Endpoint_ClearIN+0xe0>
 8002abc:	687b      	ldr	r3, [r7, #4]
 8002abe:	781b      	ldrb	r3, [r3, #0]
 8002ac0:	f003 030f 	and.w	r3, r3, #15
 8002ac4:	b2db      	uxtb	r3, r3
 8002ac6:	2b00      	cmp	r3, #0
 8002ac8:	d01a      	beq.n	8002b00 <Endpoint_ClearIN+0xe0>
	{
		/*Send a ZLP from here*/
	  while(ep->InInUse)
 8002aca:	bf00      	nop
 8002acc:	687b      	ldr	r3, [r7, #4]
 8002ace:	685b      	ldr	r3, [r3, #4]
 8002ad0:	f3c3 1300 	ubfx	r3, r3, #4, #1
 8002ad4:	b2db      	uxtb	r3, r3
 8002ad6:	2b00      	cmp	r3, #0
 8002ad8:	d1f8      	bne.n	8002acc <Endpoint_ClearIN+0xac>
	  {
		;
	  }
	  ep->InInUse = true;
 8002ada:	687a      	ldr	r2, [r7, #4]
 8002adc:	8893      	ldrh	r3, [r2, #4]
 8002ade:	f043 0310 	orr.w	r3, r3, #16
 8002ae2:	8093      	strh	r3, [r2, #4]
	  device.Driver->EndpointWrite(ep->Address,
 8002ae4:	4b08      	ldr	r3, [pc, #32]	; (8002b08 <Endpoint_ClearIN+0xe8>)
 8002ae6:	681b      	ldr	r3, [r3, #0]
 8002ae8:	6b1b      	ldr	r3, [r3, #48]	; 0x30
 8002aea:	687a      	ldr	r2, [r7, #4]
 8002aec:	7810      	ldrb	r0, [r2, #0]
	  			ep->InDataBuffer,0);
 8002aee:	687a      	ldr	r2, [r7, #4]
 8002af0:	6a91      	ldr	r1, [r2, #40]	; 0x28
	  device.Driver->EndpointWrite(ep->Address,
 8002af2:	2200      	movs	r2, #0
 8002af4:	4798      	blx	r3
	  zlp_flag = false;
 8002af6:	4b05      	ldr	r3, [pc, #20]	; (8002b0c <Endpoint_ClearIN+0xec>)
 8002af8:	2200      	movs	r2, #0
 8002afa:	701a      	strb	r2, [r3, #0]
 8002afc:	e000      	b.n	8002b00 <Endpoint_ClearIN+0xe0>
		return;
 8002afe:	bf00      	nop
	}
}
 8002b00:	3708      	adds	r7, #8
 8002b02:	46bd      	mov	sp, r7
 8002b04:	bd80      	pop	{r7, pc}
 8002b06:	bf00      	nop
 8002b08:	200004f8 	.word	0x200004f8
 8002b0c:	200004f4 	.word	0x200004f4

08002b10 <Endpoint_IsReadWriteAllowed>:

bool Endpoint_IsReadWriteAllowed(void) {
 8002b10:	b480      	push	{r7}
 8002b12:	b083      	sub	sp, #12
 8002b14:	af00      	add	r7, sp, #0
	USBD_Endpoint_t *EndPoint = &device.Endpoints[device.CurrentEndpoint];
 8002b16:	4b16      	ldr	r3, [pc, #88]	; (8002b70 <Endpoint_IsReadWriteAllowed+0x60>)
 8002b18:	f893 313c 	ldrb.w	r3, [r3, #316]	; 0x13c
 8002b1c:	461a      	mov	r2, r3
 8002b1e:	232c      	movs	r3, #44	; 0x2c
 8002b20:	fb02 f303 	mul.w	r3, r2, r3
 8002b24:	4a12      	ldr	r2, [pc, #72]	; (8002b70 <Endpoint_IsReadWriteAllowed+0x60>)
 8002b26:	4413      	add	r3, r2
 8002b28:	3304      	adds	r3, #4
 8002b2a:	603b      	str	r3, [r7, #0]
	bool Retval = false;
 8002b2c:	2300      	movs	r3, #0
 8002b2e:	71fb      	strb	r3, [r7, #7]

	if(EndPoint->Direction)
 8002b30:	683b      	ldr	r3, [r7, #0]
 8002b32:	781b      	ldrb	r3, [r3, #0]
 8002b34:	f023 037f 	bic.w	r3, r3, #127	; 0x7f
 8002b38:	b2db      	uxtb	r3, r3
 8002b3a:	2b00      	cmp	r3, #0
 8002b3c:	d009      	beq.n	8002b52 <Endpoint_IsReadWriteAllowed+0x42>
	{
		Retval = (EndPoint->InBytesAvailable < EndPoint->InBufferLength) ? true : false;
 8002b3e:	683b      	ldr	r3, [r7, #0]
 8002b40:	699a      	ldr	r2, [r3, #24]
 8002b42:	683b      	ldr	r3, [r7, #0]
 8002b44:	6a1b      	ldr	r3, [r3, #32]
 8002b46:	429a      	cmp	r2, r3
 8002b48:	bf34      	ite	cc
 8002b4a:	2301      	movcc	r3, #1
 8002b4c:	2300      	movcs	r3, #0
 8002b4e:	71fb      	strb	r3, [r7, #7]
 8002b50:	e006      	b.n	8002b60 <Endpoint_IsReadWriteAllowed+0x50>
	}
	else
	{
		Retval = (EndPoint->OutBytesAvailable > 0) ? true : false;
 8002b52:	683b      	ldr	r3, [r7, #0]
 8002b54:	689b      	ldr	r3, [r3, #8]
 8002b56:	2b00      	cmp	r3, #0
 8002b58:	bf14      	ite	ne
 8002b5a:	2301      	movne	r3, #1
 8002b5c:	2300      	moveq	r3, #0
 8002b5e:	71fb      	strb	r3, [r7, #7]
	}
	return Retval;
 8002b60:	79fb      	ldrb	r3, [r7, #7]
}
 8002b62:	4618      	mov	r0, r3
 8002b64:	370c      	adds	r7, #12
 8002b66:	46bd      	mov	sp, r7
 8002b68:	f85d 7b04 	ldr.w	r7, [sp], #4
 8002b6c:	4770      	bx	lr
 8002b6e:	bf00      	nop
 8002b70:	200004f8 	.word	0x200004f8

08002b74 <Endpoint_Write_8>:

void Endpoint_Write_8(const uint8_t Data) {
 8002b74:	b480      	push	{r7}
 8002b76:	b085      	sub	sp, #20
 8002b78:	af00      	add	r7, sp, #0
 8002b7a:	4603      	mov	r3, r0
 8002b7c:	71fb      	strb	r3, [r7, #7]
	USBD_Endpoint_t *EndPoint = &device.Endpoints[device.CurrentEndpoint];
 8002b7e:	4b17      	ldr	r3, [pc, #92]	; (8002bdc <Endpoint_Write_8+0x68>)
 8002b80:	f893 313c 	ldrb.w	r3, [r3, #316]	; 0x13c
 8002b84:	461a      	mov	r2, r3
 8002b86:	232c      	movs	r3, #44	; 0x2c
 8002b88:	fb02 f303 	mul.w	r3, r2, r3
 8002b8c:	4a13      	ldr	r2, [pc, #76]	; (8002bdc <Endpoint_Write_8+0x68>)
 8002b8e:	4413      	add	r3, r2
 8002b90:	3304      	adds	r3, #4
 8002b92:	60bb      	str	r3, [r7, #8]
	bool Success = false;
 8002b94:	2300      	movs	r3, #0
 8002b96:	73fb      	strb	r3, [r7, #15]

	 do
	  {
	    if(EndPoint->InBytesAvailable < EndPoint->InBufferLength)
 8002b98:	68bb      	ldr	r3, [r7, #8]
 8002b9a:	699a      	ldr	r2, [r3, #24]
 8002b9c:	68bb      	ldr	r3, [r7, #8]
 8002b9e:	6a1b      	ldr	r3, [r3, #32]
 8002ba0:	429a      	cmp	r2, r3
 8002ba2:	d20d      	bcs.n	8002bc0 <Endpoint_Write_8+0x4c>
	    {
	      EndPoint->InBuffer[EndPoint->InBytesAvailable] = Data;
 8002ba4:	68bb      	ldr	r3, [r7, #8]
 8002ba6:	69da      	ldr	r2, [r3, #28]
 8002ba8:	68bb      	ldr	r3, [r7, #8]
 8002baa:	699b      	ldr	r3, [r3, #24]
 8002bac:	4413      	add	r3, r2
 8002bae:	79fa      	ldrb	r2, [r7, #7]
 8002bb0:	701a      	strb	r2, [r3, #0]
	      EndPoint->InBytesAvailable++;
 8002bb2:	68bb      	ldr	r3, [r7, #8]
 8002bb4:	699b      	ldr	r3, [r3, #24]
 8002bb6:	1c5a      	adds	r2, r3, #1
 8002bb8:	68bb      	ldr	r3, [r7, #8]
 8002bba:	619a      	str	r2, [r3, #24]

	      Success = true;
 8002bbc:	2301      	movs	r3, #1
 8002bbe:	73fb      	strb	r3, [r7, #15]
	    }
	  }while(!Success);
 8002bc0:	7bfb      	ldrb	r3, [r7, #15]
 8002bc2:	f083 0301 	eor.w	r3, r3, #1
 8002bc6:	b2db      	uxtb	r3, r3
 8002bc8:	2b00      	cmp	r3, #0
 8002bca:	d1e5      	bne.n	8002b98 <Endpoint_Write_8+0x24>
}
 8002bcc:	bf00      	nop
 8002bce:	bf00      	nop
 8002bd0:	3714      	adds	r7, #20
 8002bd2:	46bd      	mov	sp, r7
 8002bd4:	f85d 7b04 	ldr.w	r7, [sp], #4
 8002bd8:	4770      	bx	lr
 8002bda:	bf00      	nop
 8002bdc:	200004f8 	.word	0x200004f8

08002be0 <Endpoint_Read_8>:

uint8_t Endpoint_Read_8(void) {
 8002be0:	b480      	push	{r7}
 8002be2:	b083      	sub	sp, #12
 8002be4:	af00      	add	r7, sp, #0
	USBD_Endpoint_t *EndPoint = &device.Endpoints[device.CurrentEndpoint];
 8002be6:	4b19      	ldr	r3, [pc, #100]	; (8002c4c <Endpoint_Read_8+0x6c>)
 8002be8:	f893 313c 	ldrb.w	r3, [r3, #316]	; 0x13c
 8002bec:	461a      	mov	r2, r3
 8002bee:	232c      	movs	r3, #44	; 0x2c
 8002bf0:	fb02 f303 	mul.w	r3, r2, r3
 8002bf4:	4a15      	ldr	r2, [pc, #84]	; (8002c4c <Endpoint_Read_8+0x6c>)
 8002bf6:	4413      	add	r3, r2
 8002bf8:	3304      	adds	r3, #4
 8002bfa:	603b      	str	r3, [r7, #0]
	bool Success = false;
 8002bfc:	2300      	movs	r3, #0
 8002bfe:	71fb      	strb	r3, [r7, #7]
	uint8_t data = 0;
 8002c00:	2300      	movs	r3, #0
 8002c02:	71bb      	strb	r3, [r7, #6]
	 do
	  {
		if(EndPoint->OutBytesAvailable > 0)
 8002c04:	683b      	ldr	r3, [r7, #0]
 8002c06:	689b      	ldr	r3, [r3, #8]
 8002c08:	2b00      	cmp	r3, #0
 8002c0a:	d012      	beq.n	8002c32 <Endpoint_Read_8+0x52>
		{
          data = EndPoint->OutBuffer[EndPoint->OutOffset];
 8002c0c:	683b      	ldr	r3, [r7, #0]
 8002c0e:	691a      	ldr	r2, [r3, #16]
 8002c10:	683b      	ldr	r3, [r7, #0]
 8002c12:	68db      	ldr	r3, [r3, #12]
 8002c14:	4413      	add	r3, r2
 8002c16:	781b      	ldrb	r3, [r3, #0]
 8002c18:	71bb      	strb	r3, [r7, #6]
          EndPoint->OutOffset++;
 8002c1a:	683b      	ldr	r3, [r7, #0]
 8002c1c:	68db      	ldr	r3, [r3, #12]
 8002c1e:	1c5a      	adds	r2, r3, #1
 8002c20:	683b      	ldr	r3, [r7, #0]
 8002c22:	60da      	str	r2, [r3, #12]
          EndPoint->OutBytesAvailable--;
 8002c24:	683b      	ldr	r3, [r7, #0]
 8002c26:	689b      	ldr	r3, [r3, #8]
 8002c28:	1e5a      	subs	r2, r3, #1
 8002c2a:	683b      	ldr	r3, [r7, #0]
 8002c2c:	609a      	str	r2, [r3, #8]
		  Success = true;
 8002c2e:	2301      	movs	r3, #1
 8002c30:	71fb      	strb	r3, [r7, #7]
		}
	  }while(!Success);
 8002c32:	79fb      	ldrb	r3, [r7, #7]
 8002c34:	f083 0301 	eor.w	r3, r3, #1
 8002c38:	b2db      	uxtb	r3, r3
 8002c3a:	2b00      	cmp	r3, #0
 8002c3c:	d1e2      	bne.n	8002c04 <Endpoint_Read_8+0x24>
	 return data;
 8002c3e:	79bb      	ldrb	r3, [r7, #6]
}
 8002c40:	4618      	mov	r0, r3
 8002c42:	370c      	adds	r7, #12
 8002c44:	46bd      	mov	sp, r7
 8002c46:	f85d 7b04 	ldr.w	r7, [sp], #4
 8002c4a:	4770      	bx	lr
 8002c4c:	200004f8 	.word	0x200004f8

08002c50 <Endpoint_Write_32_LE>:

void Endpoint_Write_32_LE(const uint32_t Data) {
 8002c50:	b480      	push	{r7}
 8002c52:	b085      	sub	sp, #20
 8002c54:	af00      	add	r7, sp, #0
 8002c56:	6078      	str	r0, [r7, #4]
	USBD_Endpoint_t *EndPoint = &device.Endpoints[device.CurrentEndpoint];
 8002c58:	4b17      	ldr	r3, [pc, #92]	; (8002cb8 <Endpoint_Write_32_LE+0x68>)
 8002c5a:	f893 313c 	ldrb.w	r3, [r3, #316]	; 0x13c
 8002c5e:	461a      	mov	r2, r3
 8002c60:	232c      	movs	r3, #44	; 0x2c
 8002c62:	fb02 f303 	mul.w	r3, r2, r3
 8002c66:	4a14      	ldr	r2, [pc, #80]	; (8002cb8 <Endpoint_Write_32_LE+0x68>)
 8002c68:	4413      	add	r3, r2
 8002c6a:	3304      	adds	r3, #4
 8002c6c:	60bb      	str	r3, [r7, #8]
	bool Success = false;
 8002c6e:	2300      	movs	r3, #0
 8002c70:	73fb      	strb	r3, [r7, #15]

	do {
		if(EndPoint->InBytesAvailable < (EndPoint->InBufferLength - 3)) {
 8002c72:	68bb      	ldr	r3, [r7, #8]
 8002c74:	699a      	ldr	r2, [r3, #24]
 8002c76:	68bb      	ldr	r3, [r7, #8]
 8002c78:	6a1b      	ldr	r3, [r3, #32]
 8002c7a:	3b03      	subs	r3, #3
 8002c7c:	429a      	cmp	r2, r3
 8002c7e:	d20d      	bcs.n	8002c9c <Endpoint_Write_32_LE+0x4c>
			*(uint32_t*)(EndPoint->InBuffer + EndPoint->InBytesAvailable) = Data;
 8002c80:	68bb      	ldr	r3, [r7, #8]
 8002c82:	69da      	ldr	r2, [r3, #28]
 8002c84:	68bb      	ldr	r3, [r7, #8]
 8002c86:	699b      	ldr	r3, [r3, #24]
 8002c88:	4413      	add	r3, r2
 8002c8a:	687a      	ldr	r2, [r7, #4]
 8002c8c:	601a      	str	r2, [r3, #0]
			EndPoint->InBytesAvailable+=4;
 8002c8e:	68bb      	ldr	r3, [r7, #8]
 8002c90:	699b      	ldr	r3, [r3, #24]
 8002c92:	1d1a      	adds	r2, r3, #4
 8002c94:	68bb      	ldr	r3, [r7, #8]
 8002c96:	619a      	str	r2, [r3, #24]

			Success = true;
 8002c98:	2301      	movs	r3, #1
 8002c9a:	73fb      	strb	r3, [r7, #15]
		}
	}while(!Success);
 8002c9c:	7bfb      	ldrb	r3, [r7, #15]
 8002c9e:	f083 0301 	eor.w	r3, r3, #1
 8002ca2:	b2db      	uxtb	r3, r3
 8002ca4:	2b00      	cmp	r3, #0
 8002ca6:	d1e4      	bne.n	8002c72 <Endpoint_Write_32_LE+0x22>
}
 8002ca8:	bf00      	nop
 8002caa:	bf00      	nop
 8002cac:	3714      	adds	r7, #20
 8002cae:	46bd      	mov	sp, r7
 8002cb0:	f85d 7b04 	ldr.w	r7, [sp], #4
 8002cb4:	4770      	bx	lr
 8002cb6:	bf00      	nop
 8002cb8:	200004f8 	.word	0x200004f8

08002cbc <Endpoint_Read_32_LE>:

uint32_t Endpoint_Read_32_LE(void) {
 8002cbc:	b480      	push	{r7}
 8002cbe:	b085      	sub	sp, #20
 8002cc0:	af00      	add	r7, sp, #0
	USBD_Endpoint_t *EndPoint = &device.Endpoints[device.CurrentEndpoint];
 8002cc2:	4b19      	ldr	r3, [pc, #100]	; (8002d28 <Endpoint_Read_32_LE+0x6c>)
 8002cc4:	f893 313c 	ldrb.w	r3, [r3, #316]	; 0x13c
 8002cc8:	461a      	mov	r2, r3
 8002cca:	232c      	movs	r3, #44	; 0x2c
 8002ccc:	fb02 f303 	mul.w	r3, r2, r3
 8002cd0:	4a15      	ldr	r2, [pc, #84]	; (8002d28 <Endpoint_Read_32_LE+0x6c>)
 8002cd2:	4413      	add	r3, r2
 8002cd4:	3304      	adds	r3, #4
 8002cd6:	607b      	str	r3, [r7, #4]
	bool Success = false;
 8002cd8:	2300      	movs	r3, #0
 8002cda:	73fb      	strb	r3, [r7, #15]
	uint32_t data = 0;
 8002cdc:	2300      	movs	r3, #0
 8002cde:	60bb      	str	r3, [r7, #8]

	do {
		if(EndPoint->OutBytesAvailable > 3) {
 8002ce0:	687b      	ldr	r3, [r7, #4]
 8002ce2:	689b      	ldr	r3, [r3, #8]
 8002ce4:	2b03      	cmp	r3, #3
 8002ce6:	d912      	bls.n	8002d0e <Endpoint_Read_32_LE+0x52>
			data = *(uint32_t*)(EndPoint->OutBuffer + EndPoint->OutOffset);
 8002ce8:	687b      	ldr	r3, [r7, #4]
 8002cea:	691a      	ldr	r2, [r3, #16]
 8002cec:	687b      	ldr	r3, [r7, #4]
 8002cee:	68db      	ldr	r3, [r3, #12]
 8002cf0:	4413      	add	r3, r2
 8002cf2:	681b      	ldr	r3, [r3, #0]
 8002cf4:	60bb      	str	r3, [r7, #8]
			EndPoint->OutOffset+=4;
 8002cf6:	687b      	ldr	r3, [r7, #4]
 8002cf8:	68db      	ldr	r3, [r3, #12]
 8002cfa:	1d1a      	adds	r2, r3, #4
 8002cfc:	687b      	ldr	r3, [r7, #4]
 8002cfe:	60da      	str	r2, [r3, #12]
			EndPoint->OutBytesAvailable-=4;
 8002d00:	687b      	ldr	r3, [r7, #4]
 8002d02:	689b      	ldr	r3, [r3, #8]
 8002d04:	1f1a      	subs	r2, r3, #4
 8002d06:	687b      	ldr	r3, [r7, #4]
 8002d08:	609a      	str	r2, [r3, #8]

			Success = true;
 8002d0a:	2301      	movs	r3, #1
 8002d0c:	73fb      	strb	r3, [r7, #15]
		}
	} while(!Success);
 8002d0e:	7bfb      	ldrb	r3, [r7, #15]
 8002d10:	f083 0301 	eor.w	r3, r3, #1
 8002d14:	b2db      	uxtb	r3, r3
 8002d16:	2b00      	cmp	r3, #0
 8002d18:	d1e2      	bne.n	8002ce0 <Endpoint_Read_32_LE+0x24>
	return data;
 8002d1a:	68bb      	ldr	r3, [r7, #8]
}
 8002d1c:	4618      	mov	r0, r3
 8002d1e:	3714      	adds	r7, #20
 8002d20:	46bd      	mov	sp, r7
 8002d22:	f85d 7b04 	ldr.w	r7, [sp], #4
 8002d26:	4770      	bx	lr
 8002d28:	200004f8 	.word	0x200004f8

08002d2c <Endpoint_ConfigureEndpointTable>:

bool Endpoint_ConfigureEndpointTable(const USB_Endpoint_Table_t* const Table,
			                                     const uint8_t Entries) {
 8002d2c:	b590      	push	{r4, r7, lr}
 8002d2e:	b085      	sub	sp, #20
 8002d30:	af00      	add	r7, sp, #0
 8002d32:	6078      	str	r0, [r7, #4]
 8002d34:	460b      	mov	r3, r1
 8002d36:	70fb      	strb	r3, [r7, #3]
	uint8_t i;
	uint8_t Number;
	for (i=0;i<Entries;i++) {
 8002d38:	2300      	movs	r3, #0
 8002d3a:	73fb      	strb	r3, [r7, #15]
 8002d3c:	e092      	b.n	8002e64 <Endpoint_ConfigureEndpointTable+0x138>
		Number = Table[i].Address & ENDPOINT_EPNUM_MASK;
 8002d3e:	7bfa      	ldrb	r2, [r7, #15]
 8002d40:	4613      	mov	r3, r2
 8002d42:	005b      	lsls	r3, r3, #1
 8002d44:	4413      	add	r3, r2
 8002d46:	005b      	lsls	r3, r3, #1
 8002d48:	461a      	mov	r2, r3
 8002d4a:	687b      	ldr	r3, [r7, #4]
 8002d4c:	4413      	add	r3, r2
 8002d4e:	781b      	ldrb	r3, [r3, #0]
 8002d50:	f003 030f 	and.w	r3, r3, #15
 8002d54:	73bb      	strb	r3, [r7, #14]
		/* Configure endpoint in device controller driver */
		if (device.Driver->EndpointConfigure(Table[i].Address, (XMC_USBD_ENDPOINT_TYPE_t)Table[i].Type, Table[i].Size) != XMC_USBD_STATUS_OK)
 8002d56:	4b48      	ldr	r3, [pc, #288]	; (8002e78 <Endpoint_ConfigureEndpointTable+0x14c>)
 8002d58:	681b      	ldr	r3, [r3, #0]
 8002d5a:	69dc      	ldr	r4, [r3, #28]
 8002d5c:	7bfa      	ldrb	r2, [r7, #15]
 8002d5e:	4613      	mov	r3, r2
 8002d60:	005b      	lsls	r3, r3, #1
 8002d62:	4413      	add	r3, r2
 8002d64:	005b      	lsls	r3, r3, #1
 8002d66:	461a      	mov	r2, r3
 8002d68:	687b      	ldr	r3, [r7, #4]
 8002d6a:	4413      	add	r3, r2
 8002d6c:	7818      	ldrb	r0, [r3, #0]
 8002d6e:	7bfa      	ldrb	r2, [r7, #15]
 8002d70:	4613      	mov	r3, r2
 8002d72:	005b      	lsls	r3, r3, #1
 8002d74:	4413      	add	r3, r2
 8002d76:	005b      	lsls	r3, r3, #1
 8002d78:	461a      	mov	r2, r3
 8002d7a:	687b      	ldr	r3, [r7, #4]
 8002d7c:	4413      	add	r3, r2
 8002d7e:	7919      	ldrb	r1, [r3, #4]
 8002d80:	7bfa      	ldrb	r2, [r7, #15]
 8002d82:	4613      	mov	r3, r2
 8002d84:	005b      	lsls	r3, r3, #1
 8002d86:	4413      	add	r3, r2
 8002d88:	005b      	lsls	r3, r3, #1
 8002d8a:	461a      	mov	r2, r3
 8002d8c:	687b      	ldr	r3, [r7, #4]
 8002d8e:	4413      	add	r3, r2
 8002d90:	885b      	ldrh	r3, [r3, #2]
 8002d92:	461a      	mov	r2, r3
 8002d94:	47a0      	blx	r4
 8002d96:	4603      	mov	r3, r0
 8002d98:	2b00      	cmp	r3, #0
 8002d9a:	d001      	beq.n	8002da0 <Endpoint_ConfigureEndpointTable+0x74>
			return false;
 8002d9c:	2300      	movs	r3, #0
 8002d9e:	e067      	b.n	8002e70 <Endpoint_ConfigureEndpointTable+0x144>
		/* Set device core values */
		device.Endpoints[Number].Address = Table[i].Address;
 8002da0:	7bfa      	ldrb	r2, [r7, #15]
 8002da2:	4613      	mov	r3, r2
 8002da4:	005b      	lsls	r3, r3, #1
 8002da6:	4413      	add	r3, r2
 8002da8:	005b      	lsls	r3, r3, #1
 8002daa:	461a      	mov	r2, r3
 8002dac:	687b      	ldr	r3, [r7, #4]
 8002dae:	441a      	add	r2, r3
 8002db0:	7bbb      	ldrb	r3, [r7, #14]
 8002db2:	7810      	ldrb	r0, [r2, #0]
 8002db4:	4a30      	ldr	r2, [pc, #192]	; (8002e78 <Endpoint_ConfigureEndpointTable+0x14c>)
 8002db6:	212c      	movs	r1, #44	; 0x2c
 8002db8:	fb01 f303 	mul.w	r3, r1, r3
 8002dbc:	4413      	add	r3, r2
 8002dbe:	3304      	adds	r3, #4
 8002dc0:	4602      	mov	r2, r0
 8002dc2:	701a      	strb	r2, [r3, #0]
		device.Endpoints[Number].MaxPacketSize = Table[i].Size;
 8002dc4:	7bfa      	ldrb	r2, [r7, #15]
 8002dc6:	4613      	mov	r3, r2
 8002dc8:	005b      	lsls	r3, r3, #1
 8002dca:	4413      	add	r3, r2
 8002dcc:	005b      	lsls	r3, r3, #1
 8002dce:	461a      	mov	r2, r3
 8002dd0:	687b      	ldr	r3, [r7, #4]
 8002dd2:	4413      	add	r3, r2
 8002dd4:	885a      	ldrh	r2, [r3, #2]
 8002dd6:	7bbb      	ldrb	r3, [r7, #14]
 8002dd8:	f002 027f 	and.w	r2, r2, #127	; 0x7f
 8002ddc:	b2d1      	uxtb	r1, r2
 8002dde:	4a26      	ldr	r2, [pc, #152]	; (8002e78 <Endpoint_ConfigureEndpointTable+0x14c>)
 8002de0:	202c      	movs	r0, #44	; 0x2c
 8002de2:	fb00 f303 	mul.w	r3, r0, r3
 8002de6:	441a      	add	r2, r3
 8002de8:	8913      	ldrh	r3, [r2, #8]
 8002dea:	f361 138c 	bfi	r3, r1, #6, #7
 8002dee:	8113      	strh	r3, [r2, #8]
		device.Endpoints[Number].IsConfigured = 1;
 8002df0:	7bbb      	ldrb	r3, [r7, #14]
 8002df2:	4a21      	ldr	r2, [pc, #132]	; (8002e78 <Endpoint_ConfigureEndpointTable+0x14c>)
 8002df4:	212c      	movs	r1, #44	; 0x2c
 8002df6:	fb01 f303 	mul.w	r3, r1, r3
 8002dfa:	441a      	add	r2, r3
 8002dfc:	7a13      	ldrb	r3, [r2, #8]
 8002dfe:	f043 0301 	orr.w	r3, r3, #1
 8002e02:	7213      	strb	r3, [r2, #8]
		device.Endpoints[Number].IsEnabled = 1;
 8002e04:	7bbb      	ldrb	r3, [r7, #14]
 8002e06:	4a1c      	ldr	r2, [pc, #112]	; (8002e78 <Endpoint_ConfigureEndpointTable+0x14c>)
 8002e08:	212c      	movs	r1, #44	; 0x2c
 8002e0a:	fb01 f303 	mul.w	r3, r1, r3
 8002e0e:	441a      	add	r2, r3
 8002e10:	7a13      	ldrb	r3, [r2, #8]
 8002e12:	f043 0302 	orr.w	r3, r3, #2
 8002e16:	7213      	strb	r3, [r2, #8]
		/* Start read for out endpoints */
		if (!(Table[i].Address & ENDPOINT_DIR_MASK))
 8002e18:	7bfa      	ldrb	r2, [r7, #15]
 8002e1a:	4613      	mov	r3, r2
 8002e1c:	005b      	lsls	r3, r3, #1
 8002e1e:	4413      	add	r3, r2
 8002e20:	005b      	lsls	r3, r3, #1
 8002e22:	461a      	mov	r2, r3
 8002e24:	687b      	ldr	r3, [r7, #4]
 8002e26:	4413      	add	r3, r2
 8002e28:	781b      	ldrb	r3, [r3, #0]
 8002e2a:	b25b      	sxtb	r3, r3
 8002e2c:	2b00      	cmp	r3, #0
 8002e2e:	db16      	blt.n	8002e5e <Endpoint_ConfigureEndpointTable+0x132>
			device.Driver->EndpointReadStart(Table[i].Address,
 8002e30:	4b11      	ldr	r3, [pc, #68]	; (8002e78 <Endpoint_ConfigureEndpointTable+0x14c>)
 8002e32:	681b      	ldr	r3, [r3, #0]
 8002e34:	6a9c      	ldr	r4, [r3, #40]	; 0x28
 8002e36:	7bfa      	ldrb	r2, [r7, #15]
 8002e38:	4613      	mov	r3, r2
 8002e3a:	005b      	lsls	r3, r3, #1
 8002e3c:	4413      	add	r3, r2
 8002e3e:	005b      	lsls	r3, r3, #1
 8002e40:	461a      	mov	r2, r3
 8002e42:	687b      	ldr	r3, [r7, #4]
 8002e44:	4413      	add	r3, r2
 8002e46:	781a      	ldrb	r2, [r3, #0]
 8002e48:	7bbb      	ldrb	r3, [r7, #14]
 8002e4a:	490b      	ldr	r1, [pc, #44]	; (8002e78 <Endpoint_ConfigureEndpointTable+0x14c>)
 8002e4c:	202c      	movs	r0, #44	; 0x2c
 8002e4e:	fb00 f303 	mul.w	r3, r0, r3
 8002e52:	440b      	add	r3, r1
 8002e54:	3318      	adds	r3, #24
 8002e56:	681b      	ldr	r3, [r3, #0]
 8002e58:	4619      	mov	r1, r3
 8002e5a:	4610      	mov	r0, r2
 8002e5c:	47a0      	blx	r4
	for (i=0;i<Entries;i++) {
 8002e5e:	7bfb      	ldrb	r3, [r7, #15]
 8002e60:	3301      	adds	r3, #1
 8002e62:	73fb      	strb	r3, [r7, #15]
 8002e64:	7bfa      	ldrb	r2, [r7, #15]
 8002e66:	78fb      	ldrb	r3, [r7, #3]
 8002e68:	429a      	cmp	r2, r3
 8002e6a:	f4ff af68 	bcc.w	8002d3e <Endpoint_ConfigureEndpointTable+0x12>
					device.Endpoints[Number].OutBufferLength);
	}
	return true;
 8002e6e:	2301      	movs	r3, #1
}
 8002e70:	4618      	mov	r0, r3
 8002e72:	3714      	adds	r7, #20
 8002e74:	46bd      	mov	sp, r7
 8002e76:	bd90      	pop	{r4, r7, pc}
 8002e78:	200004f8 	.word	0x200004f8

08002e7c <Endpoint_Write_Stream_LE>:

#if defined(USB_CAN_BE_DEVICE)

#include "EndpointStream_XMC4000.h"

uint8_t Endpoint_Write_Stream_LE (const void *const Buffer, uint16_t Length, uint16_t *const BytesProcessed)  {
 8002e7c:	b580      	push	{r7, lr}
 8002e7e:	b088      	sub	sp, #32
 8002e80:	af00      	add	r7, sp, #0
 8002e82:	60f8      	str	r0, [r7, #12]
 8002e84:	460b      	mov	r3, r1
 8002e86:	607a      	str	r2, [r7, #4]
 8002e88:	817b      	strh	r3, [r7, #10]
	USBD_Endpoint_t* ep = &device.Endpoints[device.CurrentEndpoint];
 8002e8a:	4b3f      	ldr	r3, [pc, #252]	; (8002f88 <Endpoint_Write_Stream_LE+0x10c>)
 8002e8c:	f893 313c 	ldrb.w	r3, [r3, #316]	; 0x13c
 8002e90:	461a      	mov	r2, r3
 8002e92:	232c      	movs	r3, #44	; 0x2c
 8002e94:	fb02 f303 	mul.w	r3, r2, r3
 8002e98:	4a3b      	ldr	r2, [pc, #236]	; (8002f88 <Endpoint_Write_Stream_LE+0x10c>)
 8002e9a:	4413      	add	r3, r2
 8002e9c:	3304      	adds	r3, #4
 8002e9e:	61bb      	str	r3, [r7, #24]
	uint16_t Bytes = 0;
 8002ea0:	2300      	movs	r3, #0
 8002ea2:	82fb      	strh	r3, [r7, #22]
	uint16_t BytesTransfered = 0;
 8002ea4:	2300      	movs	r3, #0
 8002ea6:	83fb      	strh	r3, [r7, #30]
	uint8_t ErrorCode;
	uint16_t prev_length = 0;
 8002ea8:	2300      	movs	r3, #0
 8002eaa:	83bb      	strh	r3, [r7, #28]
	if (BytesProcessed!=NULL) {
 8002eac:	687b      	ldr	r3, [r7, #4]
 8002eae:	2b00      	cmp	r3, #0
 8002eb0:	d052      	beq.n	8002f58 <Endpoint_Write_Stream_LE+0xdc>
		Length -= *BytesProcessed;
 8002eb2:	687b      	ldr	r3, [r7, #4]
 8002eb4:	881b      	ldrh	r3, [r3, #0]
 8002eb6:	897a      	ldrh	r2, [r7, #10]
 8002eb8:	1ad3      	subs	r3, r2, r3
 8002eba:	817b      	strh	r3, [r7, #10]
		BytesTransfered = *BytesProcessed;
 8002ebc:	687b      	ldr	r3, [r7, #4]
 8002ebe:	881b      	ldrh	r3, [r3, #0]
 8002ec0:	83fb      	strh	r3, [r7, #30]
	}

	while (Length) {
 8002ec2:	e049      	b.n	8002f58 <Endpoint_Write_Stream_LE+0xdc>
		if (ep->InInUse)
 8002ec4:	69bb      	ldr	r3, [r7, #24]
 8002ec6:	685b      	ldr	r3, [r3, #4]
 8002ec8:	f3c3 1300 	ubfx	r3, r3, #4, #1
 8002ecc:	b2db      	uxtb	r3, r3
 8002ece:	2b00      	cmp	r3, #0
 8002ed0:	d000      	beq.n	8002ed4 <Endpoint_Write_Stream_LE+0x58>
			continue;
 8002ed2:	e041      	b.n	8002f58 <Endpoint_Write_Stream_LE+0xdc>
		if (Endpoint_IsReadWriteAllowed()) {
 8002ed4:	f7ff fe1c 	bl	8002b10 <Endpoint_IsReadWriteAllowed>
 8002ed8:	4603      	mov	r3, r0
 8002eda:	2b00      	cmp	r3, #0
 8002edc:	d029      	beq.n	8002f32 <Endpoint_Write_Stream_LE+0xb6>
			Bytes = ep->InBufferLength - ep->InBytesAvailable  > Length ? Length : ep->InBufferLength - ep->InBytesAvailable;
 8002ede:	69bb      	ldr	r3, [r7, #24]
 8002ee0:	6a1a      	ldr	r2, [r3, #32]
 8002ee2:	69bb      	ldr	r3, [r7, #24]
 8002ee4:	699b      	ldr	r3, [r3, #24]
 8002ee6:	1ad2      	subs	r2, r2, r3
 8002ee8:	897b      	ldrh	r3, [r7, #10]
 8002eea:	4293      	cmp	r3, r2
 8002eec:	bf28      	it	cs
 8002eee:	4613      	movcs	r3, r2
 8002ef0:	82fb      	strh	r3, [r7, #22]
			MEMCPY((void *)((uint32_t)ep->InBuffer + (uint32_t)ep->InBytesAvailable), (void *)((uint32_t)Buffer + (uint32_t)BytesTransfered), Bytes);
 8002ef2:	69bb      	ldr	r3, [r7, #24]
 8002ef4:	69db      	ldr	r3, [r3, #28]
 8002ef6:	461a      	mov	r2, r3
 8002ef8:	69bb      	ldr	r3, [r7, #24]
 8002efa:	699b      	ldr	r3, [r3, #24]
 8002efc:	4413      	add	r3, r2
 8002efe:	4618      	mov	r0, r3
 8002f00:	8bfa      	ldrh	r2, [r7, #30]
 8002f02:	68fb      	ldr	r3, [r7, #12]
 8002f04:	4413      	add	r3, r2
 8002f06:	4619      	mov	r1, r3
 8002f08:	8afb      	ldrh	r3, [r7, #22]
 8002f0a:	461a      	mov	r2, r3
 8002f0c:	f7ff fc48 	bl	80027a0 <thumb2_memcpy>
			ep->InBytesAvailable += Bytes;
 8002f10:	69bb      	ldr	r3, [r7, #24]
 8002f12:	699a      	ldr	r2, [r3, #24]
 8002f14:	8afb      	ldrh	r3, [r7, #22]
 8002f16:	441a      	add	r2, r3
 8002f18:	69bb      	ldr	r3, [r7, #24]
 8002f1a:	619a      	str	r2, [r3, #24]
			BytesTransfered += Bytes;
 8002f1c:	8bfa      	ldrh	r2, [r7, #30]
 8002f1e:	8afb      	ldrh	r3, [r7, #22]
 8002f20:	4413      	add	r3, r2
 8002f22:	83fb      	strh	r3, [r7, #30]
			prev_length = Length;
 8002f24:	897b      	ldrh	r3, [r7, #10]
 8002f26:	83bb      	strh	r3, [r7, #28]
			Length -= Bytes;
 8002f28:	897a      	ldrh	r2, [r7, #10]
 8002f2a:	8afb      	ldrh	r3, [r7, #22]
 8002f2c:	1ad3      	subs	r3, r2, r3
 8002f2e:	817b      	strh	r3, [r7, #10]
 8002f30:	e012      	b.n	8002f58 <Endpoint_Write_Stream_LE+0xdc>
		}
		else {
			Endpoint_ClearIN();
 8002f32:	f7ff fd75 	bl	8002a20 <Endpoint_ClearIN>
			if (BytesProcessed!=NULL) {
 8002f36:	687b      	ldr	r3, [r7, #4]
 8002f38:	2b00      	cmp	r3, #0
 8002f3a:	d004      	beq.n	8002f46 <Endpoint_Write_Stream_LE+0xca>
				*BytesProcessed = BytesTransfered;
 8002f3c:	687b      	ldr	r3, [r7, #4]
 8002f3e:	8bfa      	ldrh	r2, [r7, #30]
 8002f40:	801a      	strh	r2, [r3, #0]
				return ENDPOINT_RWSTREAM_IncompleteTransfer;
 8002f42:	2305      	movs	r3, #5
 8002f44:	e01b      	b.n	8002f7e <Endpoint_Write_Stream_LE+0x102>
			}

			if ((ErrorCode = Endpoint_WaitUntilReady()) != 0) {
 8002f46:	f7ff fc8d 	bl	8002864 <Endpoint_WaitUntilReady>
 8002f4a:	4603      	mov	r3, r0
 8002f4c:	757b      	strb	r3, [r7, #21]
 8002f4e:	7d7b      	ldrb	r3, [r7, #21]
 8002f50:	2b00      	cmp	r3, #0
 8002f52:	d001      	beq.n	8002f58 <Endpoint_Write_Stream_LE+0xdc>
				return ErrorCode;
 8002f54:	7d7b      	ldrb	r3, [r7, #21]
 8002f56:	e012      	b.n	8002f7e <Endpoint_Write_Stream_LE+0x102>
	while (Length) {
 8002f58:	897b      	ldrh	r3, [r7, #10]
 8002f5a:	2b00      	cmp	r3, #0
 8002f5c:	d1b2      	bne.n	8002ec4 <Endpoint_Write_Stream_LE+0x48>


		}
	}
	
	if((Length == 0) && (prev_length == ep->MaxPacketSize))
 8002f5e:	897b      	ldrh	r3, [r7, #10]
 8002f60:	2b00      	cmp	r3, #0
 8002f62:	d10b      	bne.n	8002f7c <Endpoint_Write_Stream_LE+0x100>
 8002f64:	69bb      	ldr	r3, [r7, #24]
 8002f66:	889b      	ldrh	r3, [r3, #4]
 8002f68:	f3c3 1386 	ubfx	r3, r3, #6, #7
 8002f6c:	b2db      	uxtb	r3, r3
 8002f6e:	b29b      	uxth	r3, r3
 8002f70:	8bba      	ldrh	r2, [r7, #28]
 8002f72:	429a      	cmp	r2, r3
 8002f74:	d102      	bne.n	8002f7c <Endpoint_Write_Stream_LE+0x100>
	{
	   zlp_flag = true;
 8002f76:	4b05      	ldr	r3, [pc, #20]	; (8002f8c <Endpoint_Write_Stream_LE+0x110>)
 8002f78:	2201      	movs	r2, #1
 8002f7a:	701a      	strb	r2, [r3, #0]
	}
	return ENDPOINT_RWSTREAM_NoError;
 8002f7c:	2300      	movs	r3, #0
}
 8002f7e:	4618      	mov	r0, r3
 8002f80:	3720      	adds	r7, #32
 8002f82:	46bd      	mov	sp, r7
 8002f84:	bd80      	pop	{r7, pc}
 8002f86:	bf00      	nop
 8002f88:	200004f8 	.word	0x200004f8
 8002f8c:	200004f4 	.word	0x200004f4

08002f90 <SwapCopy>:

void SwapCopy(void *const Dest, const void *const Src,uint32_t Length) {
 8002f90:	b480      	push	{r7}
 8002f92:	b087      	sub	sp, #28
 8002f94:	af00      	add	r7, sp, #0
 8002f96:	60f8      	str	r0, [r7, #12]
 8002f98:	60b9      	str	r1, [r7, #8]
 8002f9a:	607a      	str	r2, [r7, #4]
	uint32_t i = 0;
 8002f9c:	2300      	movs	r3, #0
 8002f9e:	617b      	str	r3, [r7, #20]
	while(i<Length) {
 8002fa0:	e00e      	b.n	8002fc0 <SwapCopy+0x30>
		*(uint8_t*)((uint32_t)Dest + (Length - 1 - i)) = *(uint8_t*)((uint32_t)Src + i);
 8002fa2:	68ba      	ldr	r2, [r7, #8]
 8002fa4:	697b      	ldr	r3, [r7, #20]
 8002fa6:	4413      	add	r3, r2
 8002fa8:	4619      	mov	r1, r3
 8002faa:	687a      	ldr	r2, [r7, #4]
 8002fac:	697b      	ldr	r3, [r7, #20]
 8002fae:	1ad2      	subs	r2, r2, r3
 8002fb0:	68fb      	ldr	r3, [r7, #12]
 8002fb2:	4413      	add	r3, r2
 8002fb4:	3b01      	subs	r3, #1
 8002fb6:	780a      	ldrb	r2, [r1, #0]
 8002fb8:	701a      	strb	r2, [r3, #0]
		i++;
 8002fba:	697b      	ldr	r3, [r7, #20]
 8002fbc:	3301      	adds	r3, #1
 8002fbe:	617b      	str	r3, [r7, #20]
	while(i<Length) {
 8002fc0:	697a      	ldr	r2, [r7, #20]
 8002fc2:	687b      	ldr	r3, [r7, #4]
 8002fc4:	429a      	cmp	r2, r3
 8002fc6:	d3ec      	bcc.n	8002fa2 <SwapCopy+0x12>
	}
}
 8002fc8:	bf00      	nop
 8002fca:	bf00      	nop
 8002fcc:	371c      	adds	r7, #28
 8002fce:	46bd      	mov	sp, r7
 8002fd0:	f85d 7b04 	ldr.w	r7, [sp], #4
 8002fd4:	4770      	bx	lr
	...

08002fd8 <Endpoint_Write_Stream_BE>:
uint8_t	Endpoint_Write_Stream_BE (const void *const Buffer, uint16_t Length, uint16_t *const BytesProcessed) {
 8002fd8:	b580      	push	{r7, lr}
 8002fda:	b088      	sub	sp, #32
 8002fdc:	af00      	add	r7, sp, #0
 8002fde:	60f8      	str	r0, [r7, #12]
 8002fe0:	460b      	mov	r3, r1
 8002fe2:	607a      	str	r2, [r7, #4]
 8002fe4:	817b      	strh	r3, [r7, #10]
	USBD_Endpoint_t* ep = &device.Endpoints[device.CurrentEndpoint];
 8002fe6:	4b35      	ldr	r3, [pc, #212]	; (80030bc <Endpoint_Write_Stream_BE+0xe4>)
 8002fe8:	f893 313c 	ldrb.w	r3, [r3, #316]	; 0x13c
 8002fec:	461a      	mov	r2, r3
 8002fee:	232c      	movs	r3, #44	; 0x2c
 8002ff0:	fb02 f303 	mul.w	r3, r2, r3
 8002ff4:	4a31      	ldr	r2, [pc, #196]	; (80030bc <Endpoint_Write_Stream_BE+0xe4>)
 8002ff6:	4413      	add	r3, r2
 8002ff8:	3304      	adds	r3, #4
 8002ffa:	61bb      	str	r3, [r7, #24]
	uint16_t Bytes = 0;
 8002ffc:	2300      	movs	r3, #0
 8002ffe:	82fb      	strh	r3, [r7, #22]
	uint16_t BytesTransfered = 0;
 8003000:	2300      	movs	r3, #0
 8003002:	83fb      	strh	r3, [r7, #30]
	uint8_t ErrorCode;

	if (BytesProcessed!=NULL) {
 8003004:	687b      	ldr	r3, [r7, #4]
 8003006:	2b00      	cmp	r3, #0
 8003008:	d050      	beq.n	80030ac <Endpoint_Write_Stream_BE+0xd4>
		Length -= *BytesProcessed;
 800300a:	687b      	ldr	r3, [r7, #4]
 800300c:	881b      	ldrh	r3, [r3, #0]
 800300e:	897a      	ldrh	r2, [r7, #10]
 8003010:	1ad3      	subs	r3, r2, r3
 8003012:	817b      	strh	r3, [r7, #10]
		BytesTransfered = *BytesProcessed;
 8003014:	687b      	ldr	r3, [r7, #4]
 8003016:	881b      	ldrh	r3, [r3, #0]
 8003018:	83fb      	strh	r3, [r7, #30]
	}

	while (Length) {
 800301a:	e047      	b.n	80030ac <Endpoint_Write_Stream_BE+0xd4>
		if (ep->InInUse)
 800301c:	69bb      	ldr	r3, [r7, #24]
 800301e:	685b      	ldr	r3, [r3, #4]
 8003020:	f3c3 1300 	ubfx	r3, r3, #4, #1
 8003024:	b2db      	uxtb	r3, r3
 8003026:	2b00      	cmp	r3, #0
 8003028:	d000      	beq.n	800302c <Endpoint_Write_Stream_BE+0x54>
			continue;
 800302a:	e03f      	b.n	80030ac <Endpoint_Write_Stream_BE+0xd4>
		if (Endpoint_IsReadWriteAllowed()) {
 800302c:	f7ff fd70 	bl	8002b10 <Endpoint_IsReadWriteAllowed>
 8003030:	4603      	mov	r3, r0
 8003032:	2b00      	cmp	r3, #0
 8003034:	d027      	beq.n	8003086 <Endpoint_Write_Stream_BE+0xae>
			Bytes = ep->InBufferLength - ep->InBytesAvailable  > Length ? Length : ep->InBufferLength - ep->InBytesAvailable;
 8003036:	69bb      	ldr	r3, [r7, #24]
 8003038:	6a1a      	ldr	r2, [r3, #32]
 800303a:	69bb      	ldr	r3, [r7, #24]
 800303c:	699b      	ldr	r3, [r3, #24]
 800303e:	1ad2      	subs	r2, r2, r3
 8003040:	897b      	ldrh	r3, [r7, #10]
 8003042:	4293      	cmp	r3, r2
 8003044:	bf28      	it	cs
 8003046:	4613      	movcs	r3, r2
 8003048:	82fb      	strh	r3, [r7, #22]
			SwapCopy((void *)((uint32_t)ep->InBuffer + (uint32_t)ep->InBytesAvailable),(void *)((uint32_t)Buffer + (uint32_t)BytesTransfered), Bytes);
 800304a:	69bb      	ldr	r3, [r7, #24]
 800304c:	69db      	ldr	r3, [r3, #28]
 800304e:	461a      	mov	r2, r3
 8003050:	69bb      	ldr	r3, [r7, #24]
 8003052:	699b      	ldr	r3, [r3, #24]
 8003054:	4413      	add	r3, r2
 8003056:	4618      	mov	r0, r3
 8003058:	8bfa      	ldrh	r2, [r7, #30]
 800305a:	68fb      	ldr	r3, [r7, #12]
 800305c:	4413      	add	r3, r2
 800305e:	4619      	mov	r1, r3
 8003060:	8afb      	ldrh	r3, [r7, #22]
 8003062:	461a      	mov	r2, r3
 8003064:	f7ff ff94 	bl	8002f90 <SwapCopy>
			ep->InBytesAvailable += Bytes;
 8003068:	69bb      	ldr	r3, [r7, #24]
 800306a:	699a      	ldr	r2, [r3, #24]
 800306c:	8afb      	ldrh	r3, [r7, #22]
 800306e:	441a      	add	r2, r3
 8003070:	69bb      	ldr	r3, [r7, #24]
 8003072:	619a      	str	r2, [r3, #24]
			BytesTransfered += Bytes;
 8003074:	8bfa      	ldrh	r2, [r7, #30]
 8003076:	8afb      	ldrh	r3, [r7, #22]
 8003078:	4413      	add	r3, r2
 800307a:	83fb      	strh	r3, [r7, #30]
			Length -= Bytes;
 800307c:	897a      	ldrh	r2, [r7, #10]
 800307e:	8afb      	ldrh	r3, [r7, #22]
 8003080:	1ad3      	subs	r3, r2, r3
 8003082:	817b      	strh	r3, [r7, #10]
 8003084:	e012      	b.n	80030ac <Endpoint_Write_Stream_BE+0xd4>
		}
		else {
			Endpoint_ClearIN();
 8003086:	f7ff fccb 	bl	8002a20 <Endpoint_ClearIN>
			if (BytesProcessed!=NULL) {
 800308a:	687b      	ldr	r3, [r7, #4]
 800308c:	2b00      	cmp	r3, #0
 800308e:	d004      	beq.n	800309a <Endpoint_Write_Stream_BE+0xc2>
				*BytesProcessed = BytesTransfered;
 8003090:	687b      	ldr	r3, [r7, #4]
 8003092:	8bfa      	ldrh	r2, [r7, #30]
 8003094:	801a      	strh	r2, [r3, #0]
				return ENDPOINT_RWSTREAM_IncompleteTransfer;
 8003096:	2305      	movs	r3, #5
 8003098:	e00c      	b.n	80030b4 <Endpoint_Write_Stream_BE+0xdc>
			}

			if ((ErrorCode = Endpoint_WaitUntilReady()) != 0) {
 800309a:	f7ff fbe3 	bl	8002864 <Endpoint_WaitUntilReady>
 800309e:	4603      	mov	r3, r0
 80030a0:	757b      	strb	r3, [r7, #21]
 80030a2:	7d7b      	ldrb	r3, [r7, #21]
 80030a4:	2b00      	cmp	r3, #0
 80030a6:	d001      	beq.n	80030ac <Endpoint_Write_Stream_BE+0xd4>
				return ErrorCode;
 80030a8:	7d7b      	ldrb	r3, [r7, #21]
 80030aa:	e003      	b.n	80030b4 <Endpoint_Write_Stream_BE+0xdc>
	while (Length) {
 80030ac:	897b      	ldrh	r3, [r7, #10]
 80030ae:	2b00      	cmp	r3, #0
 80030b0:	d1b4      	bne.n	800301c <Endpoint_Write_Stream_BE+0x44>
			}


		}
	}
	return ENDPOINT_RWSTREAM_NoError;
 80030b2:	2300      	movs	r3, #0
}
 80030b4:	4618      	mov	r0, r3
 80030b6:	3720      	adds	r7, #32
 80030b8:	46bd      	mov	sp, r7
 80030ba:	bd80      	pop	{r7, pc}
 80030bc:	200004f8 	.word	0x200004f8

080030c0 <Endpoint_Read_Stream_LE>:

uint8_t	Endpoint_Read_Stream_LE (void *const Buffer, uint16_t Length, uint16_t *const BytesProcessed) {
 80030c0:	b580      	push	{r7, lr}
 80030c2:	b088      	sub	sp, #32
 80030c4:	af00      	add	r7, sp, #0
 80030c6:	60f8      	str	r0, [r7, #12]
 80030c8:	460b      	mov	r3, r1
 80030ca:	607a      	str	r2, [r7, #4]
 80030cc:	817b      	strh	r3, [r7, #10]
	USBD_Endpoint_t* ep = &device.Endpoints[device.CurrentEndpoint];
 80030ce:	4b37      	ldr	r3, [pc, #220]	; (80031ac <Endpoint_Read_Stream_LE+0xec>)
 80030d0:	f893 313c 	ldrb.w	r3, [r3, #316]	; 0x13c
 80030d4:	461a      	mov	r2, r3
 80030d6:	232c      	movs	r3, #44	; 0x2c
 80030d8:	fb02 f303 	mul.w	r3, r2, r3
 80030dc:	4a33      	ldr	r2, [pc, #204]	; (80031ac <Endpoint_Read_Stream_LE+0xec>)
 80030de:	4413      	add	r3, r2
 80030e0:	3304      	adds	r3, #4
 80030e2:	61bb      	str	r3, [r7, #24]
	uint16_t Bytes = 0;
 80030e4:	2300      	movs	r3, #0
 80030e6:	82fb      	strh	r3, [r7, #22]
	uint16_t BytesTransfered = 0;
 80030e8:	2300      	movs	r3, #0
 80030ea:	83fb      	strh	r3, [r7, #30]
	uint8_t ErrorCode;

	if (BytesProcessed!=NULL) {
 80030ec:	687b      	ldr	r3, [r7, #4]
 80030ee:	2b00      	cmp	r3, #0
 80030f0:	d053      	beq.n	800319a <Endpoint_Read_Stream_LE+0xda>
		Length -= *BytesProcessed;
 80030f2:	687b      	ldr	r3, [r7, #4]
 80030f4:	881b      	ldrh	r3, [r3, #0]
 80030f6:	897a      	ldrh	r2, [r7, #10]
 80030f8:	1ad3      	subs	r3, r2, r3
 80030fa:	817b      	strh	r3, [r7, #10]
		BytesTransfered = *BytesProcessed;
 80030fc:	687b      	ldr	r3, [r7, #4]
 80030fe:	881b      	ldrh	r3, [r3, #0]
 8003100:	83fb      	strh	r3, [r7, #30]
	}

	while (Length) {
 8003102:	e04a      	b.n	800319a <Endpoint_Read_Stream_LE+0xda>
		if (ep->OutInUse)
 8003104:	69bb      	ldr	r3, [r7, #24]
 8003106:	685b      	ldr	r3, [r3, #4]
 8003108:	f3c3 03c0 	ubfx	r3, r3, #3, #1
 800310c:	b2db      	uxtb	r3, r3
 800310e:	2b00      	cmp	r3, #0
 8003110:	d000      	beq.n	8003114 <Endpoint_Read_Stream_LE+0x54>
			continue;
 8003112:	e042      	b.n	800319a <Endpoint_Read_Stream_LE+0xda>
		if (Endpoint_IsReadWriteAllowed()) {
 8003114:	f7ff fcfc 	bl	8002b10 <Endpoint_IsReadWriteAllowed>
 8003118:	4603      	mov	r3, r0
 800311a:	2b00      	cmp	r3, #0
 800311c:	d02a      	beq.n	8003174 <Endpoint_Read_Stream_LE+0xb4>
			Bytes = ep->OutBytesAvailable  > Length ? Length : ep->OutBytesAvailable;
 800311e:	69bb      	ldr	r3, [r7, #24]
 8003120:	689a      	ldr	r2, [r3, #8]
 8003122:	897b      	ldrh	r3, [r7, #10]
 8003124:	4293      	cmp	r3, r2
 8003126:	bf28      	it	cs
 8003128:	4613      	movcs	r3, r2
 800312a:	82fb      	strh	r3, [r7, #22]
			MEMCPY((void *)((uint32_t)Buffer + (uint32_t)BytesTransfered), (void *)((uint32_t)ep->OutBuffer + (uint32_t)ep->OutOffset), Bytes);
 800312c:	8bfa      	ldrh	r2, [r7, #30]
 800312e:	68fb      	ldr	r3, [r7, #12]
 8003130:	4413      	add	r3, r2
 8003132:	4618      	mov	r0, r3
 8003134:	69bb      	ldr	r3, [r7, #24]
 8003136:	691b      	ldr	r3, [r3, #16]
 8003138:	461a      	mov	r2, r3
 800313a:	69bb      	ldr	r3, [r7, #24]
 800313c:	68db      	ldr	r3, [r3, #12]
 800313e:	4413      	add	r3, r2
 8003140:	4619      	mov	r1, r3
 8003142:	8afb      	ldrh	r3, [r7, #22]
 8003144:	461a      	mov	r2, r3
 8003146:	f7ff fb2b 	bl	80027a0 <thumb2_memcpy>
			ep->OutBytesAvailable -= Bytes;
 800314a:	69bb      	ldr	r3, [r7, #24]
 800314c:	689a      	ldr	r2, [r3, #8]
 800314e:	8afb      	ldrh	r3, [r7, #22]
 8003150:	1ad2      	subs	r2, r2, r3
 8003152:	69bb      	ldr	r3, [r7, #24]
 8003154:	609a      	str	r2, [r3, #8]
			ep->OutOffset += Bytes;
 8003156:	69bb      	ldr	r3, [r7, #24]
 8003158:	68da      	ldr	r2, [r3, #12]
 800315a:	8afb      	ldrh	r3, [r7, #22]
 800315c:	441a      	add	r2, r3
 800315e:	69bb      	ldr	r3, [r7, #24]
 8003160:	60da      	str	r2, [r3, #12]
			BytesTransfered += Bytes;
 8003162:	8bfa      	ldrh	r2, [r7, #30]
 8003164:	8afb      	ldrh	r3, [r7, #22]
 8003166:	4413      	add	r3, r2
 8003168:	83fb      	strh	r3, [r7, #30]
			Length -= Bytes;
 800316a:	897a      	ldrh	r2, [r7, #10]
 800316c:	8afb      	ldrh	r3, [r7, #22]
 800316e:	1ad3      	subs	r3, r2, r3
 8003170:	817b      	strh	r3, [r7, #10]
 8003172:	e012      	b.n	800319a <Endpoint_Read_Stream_LE+0xda>
		}
		else {
			Endpoint_ClearOUT();
 8003174:	f7ff fc08 	bl	8002988 <Endpoint_ClearOUT>
			if (BytesProcessed!=NULL) {
 8003178:	687b      	ldr	r3, [r7, #4]
 800317a:	2b00      	cmp	r3, #0
 800317c:	d004      	beq.n	8003188 <Endpoint_Read_Stream_LE+0xc8>
				*BytesProcessed = BytesTransfered;
 800317e:	687b      	ldr	r3, [r7, #4]
 8003180:	8bfa      	ldrh	r2, [r7, #30]
 8003182:	801a      	strh	r2, [r3, #0]
				return ENDPOINT_RWSTREAM_IncompleteTransfer;
 8003184:	2305      	movs	r3, #5
 8003186:	e00c      	b.n	80031a2 <Endpoint_Read_Stream_LE+0xe2>
			}

			if ((ErrorCode = Endpoint_WaitUntilReady()) != 0) {
 8003188:	f7ff fb6c 	bl	8002864 <Endpoint_WaitUntilReady>
 800318c:	4603      	mov	r3, r0
 800318e:	757b      	strb	r3, [r7, #21]
 8003190:	7d7b      	ldrb	r3, [r7, #21]
 8003192:	2b00      	cmp	r3, #0
 8003194:	d001      	beq.n	800319a <Endpoint_Read_Stream_LE+0xda>
				return ErrorCode;
 8003196:	7d7b      	ldrb	r3, [r7, #21]
 8003198:	e003      	b.n	80031a2 <Endpoint_Read_Stream_LE+0xe2>
	while (Length) {
 800319a:	897b      	ldrh	r3, [r7, #10]
 800319c:	2b00      	cmp	r3, #0
 800319e:	d1b1      	bne.n	8003104 <Endpoint_Read_Stream_LE+0x44>
			}

		}
	}
	return ENDPOINT_RWSTREAM_NoError;
 80031a0:	2300      	movs	r3, #0
}
 80031a2:	4618      	mov	r0, r3
 80031a4:	3720      	adds	r7, #32
 80031a6:	46bd      	mov	sp, r7
 80031a8:	bd80      	pop	{r7, pc}
 80031aa:	bf00      	nop
 80031ac:	200004f8 	.word	0x200004f8

080031b0 <Endpoint_Read_Stream_BE>:

uint8_t	Endpoint_Read_Stream_BE (void *const Buffer, uint16_t Length, uint16_t *const BytesProcessed) {
 80031b0:	b580      	push	{r7, lr}
 80031b2:	b088      	sub	sp, #32
 80031b4:	af00      	add	r7, sp, #0
 80031b6:	60f8      	str	r0, [r7, #12]
 80031b8:	460b      	mov	r3, r1
 80031ba:	607a      	str	r2, [r7, #4]
 80031bc:	817b      	strh	r3, [r7, #10]
	USBD_Endpoint_t* ep = &device.Endpoints[device.CurrentEndpoint];
 80031be:	4b37      	ldr	r3, [pc, #220]	; (800329c <Endpoint_Read_Stream_BE+0xec>)
 80031c0:	f893 313c 	ldrb.w	r3, [r3, #316]	; 0x13c
 80031c4:	461a      	mov	r2, r3
 80031c6:	232c      	movs	r3, #44	; 0x2c
 80031c8:	fb02 f303 	mul.w	r3, r2, r3
 80031cc:	4a33      	ldr	r2, [pc, #204]	; (800329c <Endpoint_Read_Stream_BE+0xec>)
 80031ce:	4413      	add	r3, r2
 80031d0:	3304      	adds	r3, #4
 80031d2:	61bb      	str	r3, [r7, #24]
	uint16_t Bytes = 0;
 80031d4:	2300      	movs	r3, #0
 80031d6:	82fb      	strh	r3, [r7, #22]
	uint16_t BytesTransfered = 0;
 80031d8:	2300      	movs	r3, #0
 80031da:	83fb      	strh	r3, [r7, #30]
	uint8_t ErrorCode;

	if (BytesProcessed!=NULL) {
 80031dc:	687b      	ldr	r3, [r7, #4]
 80031de:	2b00      	cmp	r3, #0
 80031e0:	d053      	beq.n	800328a <Endpoint_Read_Stream_BE+0xda>
		Length -= *BytesProcessed;
 80031e2:	687b      	ldr	r3, [r7, #4]
 80031e4:	881b      	ldrh	r3, [r3, #0]
 80031e6:	897a      	ldrh	r2, [r7, #10]
 80031e8:	1ad3      	subs	r3, r2, r3
 80031ea:	817b      	strh	r3, [r7, #10]
		BytesTransfered = *BytesProcessed;
 80031ec:	687b      	ldr	r3, [r7, #4]
 80031ee:	881b      	ldrh	r3, [r3, #0]
 80031f0:	83fb      	strh	r3, [r7, #30]
	}

	while (Length) {
 80031f2:	e04a      	b.n	800328a <Endpoint_Read_Stream_BE+0xda>
		if (ep->InInUse)
 80031f4:	69bb      	ldr	r3, [r7, #24]
 80031f6:	685b      	ldr	r3, [r3, #4]
 80031f8:	f3c3 1300 	ubfx	r3, r3, #4, #1
 80031fc:	b2db      	uxtb	r3, r3
 80031fe:	2b00      	cmp	r3, #0
 8003200:	d000      	beq.n	8003204 <Endpoint_Read_Stream_BE+0x54>
			continue;
 8003202:	e042      	b.n	800328a <Endpoint_Read_Stream_BE+0xda>
		if (Endpoint_IsReadWriteAllowed()) {
 8003204:	f7ff fc84 	bl	8002b10 <Endpoint_IsReadWriteAllowed>
 8003208:	4603      	mov	r3, r0
 800320a:	2b00      	cmp	r3, #0
 800320c:	d02a      	beq.n	8003264 <Endpoint_Read_Stream_BE+0xb4>
			Bytes = ep->OutBytesAvailable  > Length ? Length : ep->OutBytesAvailable;
 800320e:	69bb      	ldr	r3, [r7, #24]
 8003210:	689a      	ldr	r2, [r3, #8]
 8003212:	897b      	ldrh	r3, [r7, #10]
 8003214:	4293      	cmp	r3, r2
 8003216:	bf28      	it	cs
 8003218:	4613      	movcs	r3, r2
 800321a:	82fb      	strh	r3, [r7, #22]
			SwapCopy((void *)((uint32_t)Buffer + (uint32_t)BytesTransfered), (void *)((uint32_t)ep->OutBuffer + (uint32_t)ep->OutOffset), Bytes);
 800321c:	8bfa      	ldrh	r2, [r7, #30]
 800321e:	68fb      	ldr	r3, [r7, #12]
 8003220:	4413      	add	r3, r2
 8003222:	4618      	mov	r0, r3
 8003224:	69bb      	ldr	r3, [r7, #24]
 8003226:	691b      	ldr	r3, [r3, #16]
 8003228:	461a      	mov	r2, r3
 800322a:	69bb      	ldr	r3, [r7, #24]
 800322c:	68db      	ldr	r3, [r3, #12]
 800322e:	4413      	add	r3, r2
 8003230:	4619      	mov	r1, r3
 8003232:	8afb      	ldrh	r3, [r7, #22]
 8003234:	461a      	mov	r2, r3
 8003236:	f7ff feab 	bl	8002f90 <SwapCopy>
			ep->OutBytesAvailable -= Bytes;
 800323a:	69bb      	ldr	r3, [r7, #24]
 800323c:	689a      	ldr	r2, [r3, #8]
 800323e:	8afb      	ldrh	r3, [r7, #22]
 8003240:	1ad2      	subs	r2, r2, r3
 8003242:	69bb      	ldr	r3, [r7, #24]
 8003244:	609a      	str	r2, [r3, #8]
			ep->OutOffset += Bytes;
 8003246:	69bb      	ldr	r3, [r7, #24]
 8003248:	68da      	ldr	r2, [r3, #12]
 800324a:	8afb      	ldrh	r3, [r7, #22]
 800324c:	441a      	add	r2, r3
 800324e:	69bb      	ldr	r3, [r7, #24]
 8003250:	60da      	str	r2, [r3, #12]
			BytesTransfered += Bytes;
 8003252:	8bfa      	ldrh	r2, [r7, #30]
 8003254:	8afb      	ldrh	r3, [r7, #22]
 8003256:	4413      	add	r3, r2
 8003258:	83fb      	strh	r3, [r7, #30]
			Length -= Bytes;
 800325a:	897a      	ldrh	r2, [r7, #10]
 800325c:	8afb      	ldrh	r3, [r7, #22]
 800325e:	1ad3      	subs	r3, r2, r3
 8003260:	817b      	strh	r3, [r7, #10]
 8003262:	e012      	b.n	800328a <Endpoint_Read_Stream_BE+0xda>
		}
		else {
			Endpoint_ClearOUT();
 8003264:	f7ff fb90 	bl	8002988 <Endpoint_ClearOUT>
			if (BytesProcessed!=NULL) {
 8003268:	687b      	ldr	r3, [r7, #4]
 800326a:	2b00      	cmp	r3, #0
 800326c:	d004      	beq.n	8003278 <Endpoint_Read_Stream_BE+0xc8>
				*BytesProcessed = BytesTransfered;
 800326e:	687b      	ldr	r3, [r7, #4]
 8003270:	8bfa      	ldrh	r2, [r7, #30]
 8003272:	801a      	strh	r2, [r3, #0]
				return ENDPOINT_RWSTREAM_IncompleteTransfer;
 8003274:	2305      	movs	r3, #5
 8003276:	e00c      	b.n	8003292 <Endpoint_Read_Stream_BE+0xe2>
			}

			if ((ErrorCode = Endpoint_WaitUntilReady()) != 0) {
 8003278:	f7ff faf4 	bl	8002864 <Endpoint_WaitUntilReady>
 800327c:	4603      	mov	r3, r0
 800327e:	757b      	strb	r3, [r7, #21]
 8003280:	7d7b      	ldrb	r3, [r7, #21]
 8003282:	2b00      	cmp	r3, #0
 8003284:	d001      	beq.n	800328a <Endpoint_Read_Stream_BE+0xda>
				return ErrorCode;
 8003286:	7d7b      	ldrb	r3, [r7, #21]
 8003288:	e003      	b.n	8003292 <Endpoint_Read_Stream_BE+0xe2>
	while (Length) {
 800328a:	897b      	ldrh	r3, [r7, #10]
 800328c:	2b00      	cmp	r3, #0
 800328e:	d1b1      	bne.n	80031f4 <Endpoint_Read_Stream_BE+0x44>
			}


		}
	}
	return ENDPOINT_RWSTREAM_NoError;
 8003290:	2300      	movs	r3, #0
}
 8003292:	4618      	mov	r0, r3
 8003294:	3720      	adds	r7, #32
 8003296:	46bd      	mov	sp, r7
 8003298:	bd80      	pop	{r7, pc}
 800329a:	bf00      	nop
 800329c:	200004f8 	.word	0x200004f8

080032a0 <Endpoint_Write_Control_Stream_LE>:

uint8_t	Endpoint_Write_Control_Stream_LE (const void *const Buffer, uint16_t Length) {
 80032a0:	b580      	push	{r7, lr}
 80032a2:	b084      	sub	sp, #16
 80032a4:	af00      	add	r7, sp, #0
 80032a6:	6078      	str	r0, [r7, #4]
 80032a8:	460b      	mov	r3, r1
 80032aa:	807b      	strh	r3, [r7, #2]
	USBD_Endpoint_t *EndPoint = &device.Endpoints[0];
 80032ac:	4b17      	ldr	r3, [pc, #92]	; (800330c <Endpoint_Write_Control_Stream_LE+0x6c>)
 80032ae:	60bb      	str	r3, [r7, #8]
	uint16_t Bytes;

	while (Length) {
 80032b0:	e024      	b.n	80032fc <Endpoint_Write_Control_Stream_LE+0x5c>
		if (!EndPoint->InInUse) {
 80032b2:	68bb      	ldr	r3, [r7, #8]
 80032b4:	685b      	ldr	r3, [r3, #4]
 80032b6:	f3c3 1300 	ubfx	r3, r3, #4, #1
 80032ba:	b2db      	uxtb	r3, r3
 80032bc:	2b00      	cmp	r3, #0
 80032be:	d11d      	bne.n	80032fc <Endpoint_Write_Control_Stream_LE+0x5c>
			if (EndPoint->InBufferLength > Length) {
 80032c0:	68bb      	ldr	r3, [r7, #8]
 80032c2:	6a1a      	ldr	r2, [r3, #32]
 80032c4:	887b      	ldrh	r3, [r7, #2]
 80032c6:	429a      	cmp	r2, r3
 80032c8:	d902      	bls.n	80032d0 <Endpoint_Write_Control_Stream_LE+0x30>
				Bytes = Length;
 80032ca:	887b      	ldrh	r3, [r7, #2]
 80032cc:	81fb      	strh	r3, [r7, #14]
 80032ce:	e002      	b.n	80032d6 <Endpoint_Write_Control_Stream_LE+0x36>
			} else {
				Bytes = EndPoint->InBufferLength;
 80032d0:	68bb      	ldr	r3, [r7, #8]
 80032d2:	6a1b      	ldr	r3, [r3, #32]
 80032d4:	81fb      	strh	r3, [r7, #14]
			}
			MEMCPY(EndPoint->InBuffer,Buffer,Bytes);
 80032d6:	68bb      	ldr	r3, [r7, #8]
 80032d8:	69db      	ldr	r3, [r3, #28]
 80032da:	89fa      	ldrh	r2, [r7, #14]
 80032dc:	6879      	ldr	r1, [r7, #4]
 80032de:	4618      	mov	r0, r3
 80032e0:	f7ff fa5e 	bl	80027a0 <thumb2_memcpy>
			EndPoint->InBytesAvailable += Bytes;
 80032e4:	68bb      	ldr	r3, [r7, #8]
 80032e6:	699a      	ldr	r2, [r3, #24]
 80032e8:	89fb      	ldrh	r3, [r7, #14]
 80032ea:	441a      	add	r2, r3
 80032ec:	68bb      	ldr	r3, [r7, #8]
 80032ee:	619a      	str	r2, [r3, #24]
			Length -= Bytes;
 80032f0:	887a      	ldrh	r2, [r7, #2]
 80032f2:	89fb      	ldrh	r3, [r7, #14]
 80032f4:	1ad3      	subs	r3, r2, r3
 80032f6:	807b      	strh	r3, [r7, #2]

			Endpoint_ClearIN();
 80032f8:	f7ff fb92 	bl	8002a20 <Endpoint_ClearIN>
	while (Length) {
 80032fc:	887b      	ldrh	r3, [r7, #2]
 80032fe:	2b00      	cmp	r3, #0
 8003300:	d1d7      	bne.n	80032b2 <Endpoint_Write_Control_Stream_LE+0x12>
		}
	}
	return ENDPOINT_RWCSTREAM_NoError;
 8003302:	2300      	movs	r3, #0
}
 8003304:	4618      	mov	r0, r3
 8003306:	3710      	adds	r7, #16
 8003308:	46bd      	mov	sp, r7
 800330a:	bd80      	pop	{r7, pc}
 800330c:	200004fc 	.word	0x200004fc

08003310 <Endpoint_Write_Control_Stream_BE>:

uint8_t	Endpoint_Write_Control_Stream_BE (const void *const Buffer, uint16_t Length) {
 8003310:	b580      	push	{r7, lr}
 8003312:	b082      	sub	sp, #8
 8003314:	af00      	add	r7, sp, #0
 8003316:	6078      	str	r0, [r7, #4]
 8003318:	460b      	mov	r3, r1
 800331a:	807b      	strh	r3, [r7, #2]
	return Endpoint_Write_Control_Stream_LE(Buffer,Length);
 800331c:	887b      	ldrh	r3, [r7, #2]
 800331e:	4619      	mov	r1, r3
 8003320:	6878      	ldr	r0, [r7, #4]
 8003322:	f7ff ffbd 	bl	80032a0 <Endpoint_Write_Control_Stream_LE>
 8003326:	4603      	mov	r3, r0
}
 8003328:	4618      	mov	r0, r3
 800332a:	3708      	adds	r7, #8
 800332c:	46bd      	mov	sp, r7
 800332e:	bd80      	pop	{r7, pc}

08003330 <Endpoint_Read_Control_Stream_LE>:

uint8_t	Endpoint_Read_Control_Stream_LE (void *const Buffer, uint16_t Length) {
 8003330:	b580      	push	{r7, lr}
 8003332:	b084      	sub	sp, #16
 8003334:	af00      	add	r7, sp, #0
 8003336:	6078      	str	r0, [r7, #4]
 8003338:	460b      	mov	r3, r1
 800333a:	807b      	strh	r3, [r7, #2]
	USBD_Endpoint_t *EndPoint = &device.Endpoints[0];
 800333c:	4b15      	ldr	r3, [pc, #84]	; (8003394 <Endpoint_Read_Control_Stream_LE+0x64>)
 800333e:	60fb      	str	r3, [r7, #12]
	uint16_t Bytes;

	while (Length) {
 8003340:	e020      	b.n	8003384 <Endpoint_Read_Control_Stream_LE+0x54>
		if (EndPoint->IsOutRecieved) {
 8003342:	68fb      	ldr	r3, [r7, #12]
 8003344:	685b      	ldr	r3, [r3, #4]
 8003346:	f3c3 1340 	ubfx	r3, r3, #5, #1
 800334a:	b2db      	uxtb	r3, r3
 800334c:	2b00      	cmp	r3, #0
 800334e:	d019      	beq.n	8003384 <Endpoint_Read_Control_Stream_LE+0x54>
			Bytes = EndPoint->OutBytesAvailable > Length
 8003350:	68fb      	ldr	r3, [r7, #12]
 8003352:	689a      	ldr	r2, [r3, #8]
 8003354:	887b      	ldrh	r3, [r7, #2]
					? Length : EndPoint->OutBytesAvailable;
 8003356:	4293      	cmp	r3, r2
 8003358:	bf28      	it	cs
 800335a:	4613      	movcs	r3, r2
			Bytes = EndPoint->OutBytesAvailable > Length
 800335c:	817b      	strh	r3, [r7, #10]
			MEMCPY(Buffer,EndPoint->OutBuffer,Bytes);
 800335e:	68fb      	ldr	r3, [r7, #12]
 8003360:	691b      	ldr	r3, [r3, #16]
 8003362:	897a      	ldrh	r2, [r7, #10]
 8003364:	4619      	mov	r1, r3
 8003366:	6878      	ldr	r0, [r7, #4]
 8003368:	f7ff fa1a 	bl	80027a0 <thumb2_memcpy>
			EndPoint->OutBytesAvailable -= Bytes;
 800336c:	68fb      	ldr	r3, [r7, #12]
 800336e:	689a      	ldr	r2, [r3, #8]
 8003370:	897b      	ldrh	r3, [r7, #10]
 8003372:	1ad2      	subs	r2, r2, r3
 8003374:	68fb      	ldr	r3, [r7, #12]
 8003376:	609a      	str	r2, [r3, #8]
			Length -= Bytes;
 8003378:	887a      	ldrh	r2, [r7, #2]
 800337a:	897b      	ldrh	r3, [r7, #10]
 800337c:	1ad3      	subs	r3, r2, r3
 800337e:	807b      	strh	r3, [r7, #2]

			Endpoint_ClearOUT();
 8003380:	f7ff fb02 	bl	8002988 <Endpoint_ClearOUT>
	while (Length) {
 8003384:	887b      	ldrh	r3, [r7, #2]
 8003386:	2b00      	cmp	r3, #0
 8003388:	d1db      	bne.n	8003342 <Endpoint_Read_Control_Stream_LE+0x12>
		}
	}
	return ENDPOINT_RWCSTREAM_NoError;
 800338a:	2300      	movs	r3, #0
}
 800338c:	4618      	mov	r0, r3
 800338e:	3710      	adds	r7, #16
 8003390:	46bd      	mov	sp, r7
 8003392:	bd80      	pop	{r7, pc}
 8003394:	200004fc 	.word	0x200004fc

08003398 <Endpoint_Read_Control_Stream_BE>:

uint8_t	Endpoint_Read_Control_Stream_BE (void *const Buffer, uint16_t Length) {
 8003398:	b580      	push	{r7, lr}
 800339a:	b082      	sub	sp, #8
 800339c:	af00      	add	r7, sp, #0
 800339e:	6078      	str	r0, [r7, #4]
 80033a0:	460b      	mov	r3, r1
 80033a2:	807b      	strh	r3, [r7, #2]
	return Endpoint_Read_Control_Stream_LE(Buffer,Length);
 80033a4:	887b      	ldrh	r3, [r7, #2]
 80033a6:	4619      	mov	r1, r3
 80033a8:	6878      	ldr	r0, [r7, #4]
 80033aa:	f7ff ffc1 	bl	8003330 <Endpoint_Read_Control_Stream_LE>
 80033ae:	4603      	mov	r3, r0
}
 80033b0:	4618      	mov	r0, r3
 80033b2:	3708      	adds	r7, #8
 80033b4:	46bd      	mov	sp, r7
 80033b6:	bd80      	pop	{r7, pc}

080033b8 <Endpoint_Null_Stream>:

uint8_t Endpoint_Null_Stream(uint16_t Length,
								 uint16_t* const BytesProcessed) {
 80033b8:	b580      	push	{r7, lr}
 80033ba:	b086      	sub	sp, #24
 80033bc:	af00      	add	r7, sp, #0
 80033be:	4603      	mov	r3, r0
 80033c0:	6039      	str	r1, [r7, #0]
 80033c2:	80fb      	strh	r3, [r7, #6]
	USBD_Endpoint_t* ep = &device.Endpoints[device.CurrentEndpoint];
 80033c4:	4b32      	ldr	r3, [pc, #200]	; (8003490 <Endpoint_Null_Stream+0xd8>)
 80033c6:	f893 313c 	ldrb.w	r3, [r3, #316]	; 0x13c
 80033ca:	461a      	mov	r2, r3
 80033cc:	232c      	movs	r3, #44	; 0x2c
 80033ce:	fb02 f303 	mul.w	r3, r2, r3
 80033d2:	4a2f      	ldr	r2, [pc, #188]	; (8003490 <Endpoint_Null_Stream+0xd8>)
 80033d4:	4413      	add	r3, r2
 80033d6:	3304      	adds	r3, #4
 80033d8:	613b      	str	r3, [r7, #16]
		uint16_t Bytes = 0;
 80033da:	2300      	movs	r3, #0
 80033dc:	81fb      	strh	r3, [r7, #14]
		uint16_t BytesTransfered = 0;
 80033de:	2300      	movs	r3, #0
 80033e0:	82fb      	strh	r3, [r7, #22]
		uint8_t ErrorCode;

		if (BytesProcessed!=NULL) {
 80033e2:	683b      	ldr	r3, [r7, #0]
 80033e4:	2b00      	cmp	r3, #0
 80033e6:	d04b      	beq.n	8003480 <Endpoint_Null_Stream+0xc8>
			Length -= *BytesProcessed;
 80033e8:	683b      	ldr	r3, [r7, #0]
 80033ea:	881b      	ldrh	r3, [r3, #0]
 80033ec:	88fa      	ldrh	r2, [r7, #6]
 80033ee:	1ad3      	subs	r3, r2, r3
 80033f0:	80fb      	strh	r3, [r7, #6]
			BytesTransfered = *BytesProcessed;
 80033f2:	683b      	ldr	r3, [r7, #0]
 80033f4:	881b      	ldrh	r3, [r3, #0]
 80033f6:	82fb      	strh	r3, [r7, #22]
		}

		while (Length) {
 80033f8:	e042      	b.n	8003480 <Endpoint_Null_Stream+0xc8>
			if (ep->InInUse)
 80033fa:	693b      	ldr	r3, [r7, #16]
 80033fc:	685b      	ldr	r3, [r3, #4]
 80033fe:	f3c3 1300 	ubfx	r3, r3, #4, #1
 8003402:	b2db      	uxtb	r3, r3
 8003404:	2b00      	cmp	r3, #0
 8003406:	d000      	beq.n	800340a <Endpoint_Null_Stream+0x52>
				continue;
 8003408:	e03a      	b.n	8003480 <Endpoint_Null_Stream+0xc8>
			if (Endpoint_IsReadWriteAllowed()) {
 800340a:	f7ff fb81 	bl	8002b10 <Endpoint_IsReadWriteAllowed>
 800340e:	4603      	mov	r3, r0
 8003410:	2b00      	cmp	r3, #0
 8003412:	d022      	beq.n	800345a <Endpoint_Null_Stream+0xa2>
				Bytes = ep->InBufferLength - ep->InBytesAvailable  > Length ? Length : ep->InBufferLength - ep->InBytesAvailable;
 8003414:	693b      	ldr	r3, [r7, #16]
 8003416:	6a1a      	ldr	r2, [r3, #32]
 8003418:	693b      	ldr	r3, [r7, #16]
 800341a:	699b      	ldr	r3, [r3, #24]
 800341c:	1ad2      	subs	r2, r2, r3
 800341e:	88fb      	ldrh	r3, [r7, #6]
 8003420:	4293      	cmp	r3, r2
 8003422:	bf28      	it	cs
 8003424:	4613      	movcs	r3, r2
 8003426:	81fb      	strh	r3, [r7, #14]
				memset(ep->InBuffer + ep->InBytesAvailable,0x0,Bytes);
 8003428:	693b      	ldr	r3, [r7, #16]
 800342a:	69da      	ldr	r2, [r3, #28]
 800342c:	693b      	ldr	r3, [r7, #16]
 800342e:	699b      	ldr	r3, [r3, #24]
 8003430:	4413      	add	r3, r2
 8003432:	89fa      	ldrh	r2, [r7, #14]
 8003434:	2100      	movs	r1, #0
 8003436:	4618      	mov	r0, r3
 8003438:	f002 ffb0 	bl	800639c <memset>
				ep->InBytesAvailable += Bytes;
 800343c:	693b      	ldr	r3, [r7, #16]
 800343e:	699a      	ldr	r2, [r3, #24]
 8003440:	89fb      	ldrh	r3, [r7, #14]
 8003442:	441a      	add	r2, r3
 8003444:	693b      	ldr	r3, [r7, #16]
 8003446:	619a      	str	r2, [r3, #24]
				BytesTransfered += Bytes;
 8003448:	8afa      	ldrh	r2, [r7, #22]
 800344a:	89fb      	ldrh	r3, [r7, #14]
 800344c:	4413      	add	r3, r2
 800344e:	82fb      	strh	r3, [r7, #22]
				Length -= Bytes;
 8003450:	88fa      	ldrh	r2, [r7, #6]
 8003452:	89fb      	ldrh	r3, [r7, #14]
 8003454:	1ad3      	subs	r3, r2, r3
 8003456:	80fb      	strh	r3, [r7, #6]
 8003458:	e012      	b.n	8003480 <Endpoint_Null_Stream+0xc8>
			}
			else {
				Endpoint_ClearIN();
 800345a:	f7ff fae1 	bl	8002a20 <Endpoint_ClearIN>
				if (BytesProcessed!=NULL) {
 800345e:	683b      	ldr	r3, [r7, #0]
 8003460:	2b00      	cmp	r3, #0
 8003462:	d004      	beq.n	800346e <Endpoint_Null_Stream+0xb6>
					*BytesProcessed = BytesTransfered;
 8003464:	683b      	ldr	r3, [r7, #0]
 8003466:	8afa      	ldrh	r2, [r7, #22]
 8003468:	801a      	strh	r2, [r3, #0]
					return ENDPOINT_RWSTREAM_IncompleteTransfer;
 800346a:	2305      	movs	r3, #5
 800346c:	e00c      	b.n	8003488 <Endpoint_Null_Stream+0xd0>
				}

				if ((ErrorCode = Endpoint_WaitUntilReady()) != 0) {
 800346e:	f7ff f9f9 	bl	8002864 <Endpoint_WaitUntilReady>
 8003472:	4603      	mov	r3, r0
 8003474:	737b      	strb	r3, [r7, #13]
 8003476:	7b7b      	ldrb	r3, [r7, #13]
 8003478:	2b00      	cmp	r3, #0
 800347a:	d001      	beq.n	8003480 <Endpoint_Null_Stream+0xc8>
					return ErrorCode;
 800347c:	7b7b      	ldrb	r3, [r7, #13]
 800347e:	e003      	b.n	8003488 <Endpoint_Null_Stream+0xd0>
		while (Length) {
 8003480:	88fb      	ldrh	r3, [r7, #6]
 8003482:	2b00      	cmp	r3, #0
 8003484:	d1b9      	bne.n	80033fa <Endpoint_Null_Stream+0x42>
				}


			}
		}
		return ENDPOINT_RWSTREAM_NoError;
 8003486:	2300      	movs	r3, #0
}
 8003488:	4618      	mov	r0, r3
 800348a:	3718      	adds	r7, #24
 800348c:	46bd      	mov	sp, r7
 800348e:	bd80      	pop	{r7, pc}
 8003490:	200004f8 	.word	0x200004f8

08003494 <USBD_HandleEP0_Stall>:
/**
 * \brief Handle protocol stall on EP0
 *
 * Stalls EP0 and then restarts a new transfer including setting state to \ref IDLE.
 */
void USBD_HandleEP0_Stall() {
 8003494:	b580      	push	{r7, lr}
 8003496:	af00      	add	r7, sp, #0
	/* When we stall ep0 as protocol stall, we go back into idle state and start a new read */
	device.Driver->EndpointStall(ENDPOINT_DIR_IN | 0,1);
 8003498:	4b08      	ldr	r3, [pc, #32]	; (80034bc <USBD_HandleEP0_Stall+0x28>)
 800349a:	681b      	ldr	r3, [r3, #0]
 800349c:	6a5b      	ldr	r3, [r3, #36]	; 0x24
 800349e:	2101      	movs	r1, #1
 80034a0:	2080      	movs	r0, #128	; 0x80
 80034a2:	4798      	blx	r3
	device.EP0_State = IDLE;
 80034a4:	4b05      	ldr	r3, [pc, #20]	; (80034bc <USBD_HandleEP0_Stall+0x28>)
 80034a6:	2201      	movs	r2, #1
 80034a8:	f883 213b 	strb.w	r2, [r3, #315]	; 0x13b
	device.Driver->EndpointReadStart(0,24);
 80034ac:	4b03      	ldr	r3, [pc, #12]	; (80034bc <USBD_HandleEP0_Stall+0x28>)
 80034ae:	681b      	ldr	r3, [r3, #0]
 80034b0:	6a9b      	ldr	r3, [r3, #40]	; 0x28
 80034b2:	2118      	movs	r1, #24
 80034b4:	2000      	movs	r0, #0
 80034b6:	4798      	blx	r3
}
 80034b8:	bf00      	nop
 80034ba:	bd80      	pop	{r7, pc}
 80034bc:	200004f8 	.word	0x200004f8

080034c0 <USB_Device_ProcessControlRequest>:
 * \ref EVENT_USB_Device_ControlRequest function. There the user has the chance to complete
 * some custom request or override the handling of this function. If the user has handled the
 * request, he has to call \ref Endpoint_ClearSETUP.
 *
 */
void USB_Device_ProcessControlRequest() {
 80034c0:	b580      	push	{r7, lr}
 80034c2:	b086      	sub	sp, #24
 80034c4:	af00      	add	r7, sp, #0
	uint32_t length = 0,ret;
 80034c6:	2300      	movs	r3, #0
 80034c8:	617b      	str	r3, [r7, #20]
	uint16_t status = 0;
 80034ca:	2300      	movs	r3, #0
 80034cc:	813b      	strh	r3, [r7, #8]
	void *buffer;
	uint8_t Value;
	uint16_t Index;

	Value = USB_ControlRequest.wValue & 0x00FF;
 80034ce:	4ba5      	ldr	r3, [pc, #660]	; (8003764 <USB_Device_ProcessControlRequest+0x2a4>)
 80034d0:	885b      	ldrh	r3, [r3, #2]
 80034d2:	b29b      	uxth	r3, r3
 80034d4:	74fb      	strb	r3, [r7, #19]

	/* Handling of descriptors */
	EVENT_USB_Device_ControlRequest();
 80034d6:	f7fd f8e7 	bl	80006a8 <EVENT_USB_Device_ControlRequest>
	if (!device.IsSetupRecieved)
 80034da:	4ba3      	ldr	r3, [pc, #652]	; (8003768 <USB_Device_ProcessControlRequest+0x2a8>)
 80034dc:	f893 313e 	ldrb.w	r3, [r3, #318]	; 0x13e
 80034e0:	f3c3 0340 	ubfx	r3, r3, #1, #1
 80034e4:	b2db      	uxtb	r3, r3
 80034e6:	2b00      	cmp	r3, #0
 80034e8:	f000 81fd 	beq.w	80038e6 <USB_Device_ProcessControlRequest+0x426>
		return;

	/* default request handling */
	switch (USB_ControlRequest.bRequest) {
 80034ec:	4b9d      	ldr	r3, [pc, #628]	; (8003764 <USB_Device_ProcessControlRequest+0x2a4>)
 80034ee:	785b      	ldrb	r3, [r3, #1]
 80034f0:	2b0c      	cmp	r3, #12
 80034f2:	f200 81e8 	bhi.w	80038c6 <USB_Device_ProcessControlRequest+0x406>
 80034f6:	a201      	add	r2, pc, #4	; (adr r2, 80034fc <USB_Device_ProcessControlRequest+0x3c>)
 80034f8:	f852 f023 	ldr.w	pc, [r2, r3, lsl #2]
 80034fc:	08003673 	.word	0x08003673
 8003500:	08003531 	.word	0x08003531
 8003504:	080038c7 	.word	0x080038c7
 8003508:	080037fd 	.word	0x080037fd
 800350c:	080038c7 	.word	0x080038c7
 8003510:	08003757 	.word	0x08003757
 8003514:	080035d7 	.word	0x080035d7
 8003518:	080037c3 	.word	0x080037c3
 800351c:	080035c7 	.word	0x080035c7
 8003520:	0800378b 	.word	0x0800378b
 8003524:	0800363b 	.word	0x0800363b
 8003528:	080037c9 	.word	0x080037c9
 800352c:	080038c1 	.word	0x080038c1
	case REQ_ClearFeature:
		if ((USB_ControlRequest.bmRequestType & 0x3) == REQREC_ENDPOINT) {
 8003530:	4b8c      	ldr	r3, [pc, #560]	; (8003764 <USB_Device_ProcessControlRequest+0x2a4>)
 8003532:	781b      	ldrb	r3, [r3, #0]
 8003534:	f003 0303 	and.w	r3, r3, #3
 8003538:	2b02      	cmp	r3, #2
 800353a:	d133      	bne.n	80035a4 <USB_Device_ProcessControlRequest+0xe4>
			Index = USB_ControlRequest.wIndex & ENDPOINT_EPNUM_MASK;
 800353c:	4b89      	ldr	r3, [pc, #548]	; (8003764 <USB_Device_ProcessControlRequest+0x2a4>)
 800353e:	889b      	ldrh	r3, [r3, #4]
 8003540:	b29b      	uxth	r3, r3
 8003542:	f003 030f 	and.w	r3, r3, #15
 8003546:	817b      	strh	r3, [r7, #10]
			if ((USB_DeviceState == DEVICE_STATE_Configured || USB_ControlRequest.wIndex==0)  &&
 8003548:	4b88      	ldr	r3, [pc, #544]	; (800376c <USB_Device_ProcessControlRequest+0x2ac>)
 800354a:	781b      	ldrb	r3, [r3, #0]
 800354c:	b2db      	uxtb	r3, r3
 800354e:	2b04      	cmp	r3, #4
 8003550:	d004      	beq.n	800355c <USB_Device_ProcessControlRequest+0x9c>
 8003552:	4b84      	ldr	r3, [pc, #528]	; (8003764 <USB_Device_ProcessControlRequest+0x2a4>)
 8003554:	889b      	ldrh	r3, [r3, #4]
 8003556:	b29b      	uxth	r3, r3
 8003558:	2b00      	cmp	r3, #0
 800355a:	d120      	bne.n	800359e <USB_Device_ProcessControlRequest+0xde>
					device.Endpoints[Index].IsConfigured==1) {
 800355c:	897b      	ldrh	r3, [r7, #10]
 800355e:	4a82      	ldr	r2, [pc, #520]	; (8003768 <USB_Device_ProcessControlRequest+0x2a8>)
 8003560:	212c      	movs	r1, #44	; 0x2c
 8003562:	fb01 f303 	mul.w	r3, r1, r3
 8003566:	4413      	add	r3, r2
 8003568:	7a1b      	ldrb	r3, [r3, #8]
 800356a:	f3c3 0300 	ubfx	r3, r3, #0, #1
 800356e:	b2db      	uxtb	r3, r3
			if ((USB_DeviceState == DEVICE_STATE_Configured || USB_ControlRequest.wIndex==0)  &&
 8003570:	2b01      	cmp	r3, #1
 8003572:	d114      	bne.n	800359e <USB_Device_ProcessControlRequest+0xde>
				device.Endpoints[Index].IsHalted = 0;
 8003574:	897b      	ldrh	r3, [r7, #10]
 8003576:	4a7c      	ldr	r2, [pc, #496]	; (8003768 <USB_Device_ProcessControlRequest+0x2a8>)
 8003578:	212c      	movs	r1, #44	; 0x2c
 800357a:	fb01 f303 	mul.w	r3, r1, r3
 800357e:	441a      	add	r2, r3
 8003580:	7a13      	ldrb	r3, [r2, #8]
 8003582:	f36f 0382 	bfc	r3, #2, #1
 8003586:	7213      	strb	r3, [r2, #8]
				device.Driver->EndpointStall(USB_ControlRequest.wIndex,0);
 8003588:	4b77      	ldr	r3, [pc, #476]	; (8003768 <USB_Device_ProcessControlRequest+0x2a8>)
 800358a:	681b      	ldr	r3, [r3, #0]
 800358c:	6a5b      	ldr	r3, [r3, #36]	; 0x24
 800358e:	4a75      	ldr	r2, [pc, #468]	; (8003764 <USB_Device_ProcessControlRequest+0x2a4>)
 8003590:	8892      	ldrh	r2, [r2, #4]
 8003592:	b292      	uxth	r2, r2
 8003594:	b2d2      	uxtb	r2, r2
 8003596:	2100      	movs	r1, #0
 8003598:	4610      	mov	r0, r2
 800359a:	4798      	blx	r3
			} else {
				USBD_HandleEP0_Stall();
			}
			break;
 800359c:	e19b      	b.n	80038d6 <USB_Device_ProcessControlRequest+0x416>
				USBD_HandleEP0_Stall();
 800359e:	f7ff ff79 	bl	8003494 <USBD_HandleEP0_Stall>
			break;
 80035a2:	e198      	b.n	80038d6 <USB_Device_ProcessControlRequest+0x416>
		}
		if ((USB_ControlRequest.bmRequestType & 0x3) == REQREC_DEVICE) {
 80035a4:	4b6f      	ldr	r3, [pc, #444]	; (8003764 <USB_Device_ProcessControlRequest+0x2a4>)
 80035a6:	781b      	ldrb	r3, [r3, #0]
 80035a8:	f003 0303 	and.w	r3, r3, #3
 80035ac:	2b00      	cmp	r3, #0
 80035ae:	d107      	bne.n	80035c0 <USB_Device_ProcessControlRequest+0x100>
			 device.RemoteWakeUp = 0;
 80035b0:	4a6d      	ldr	r2, [pc, #436]	; (8003768 <USB_Device_ProcessControlRequest+0x2a8>)
 80035b2:	f892 313e 	ldrb.w	r3, [r2, #318]	; 0x13e
 80035b6:	f36f 0382 	bfc	r3, #2, #1
 80035ba:	f882 313e 	strb.w	r3, [r2, #318]	; 0x13e
			 break;
 80035be:	e18a      	b.n	80038d6 <USB_Device_ProcessControlRequest+0x416>
		}
		USBD_HandleEP0_Stall();
 80035c0:	f7ff ff68 	bl	8003494 <USBD_HandleEP0_Stall>
		break;
 80035c4:	e187      	b.n	80038d6 <USB_Device_ProcessControlRequest+0x416>

	case REQ_GetConfiguration:
		device.Driver->EndpointWrite(0,&device.Configuration,1);
 80035c6:	4b68      	ldr	r3, [pc, #416]	; (8003768 <USB_Device_ProcessControlRequest+0x2a8>)
 80035c8:	681b      	ldr	r3, [r3, #0]
 80035ca:	6b1b      	ldr	r3, [r3, #48]	; 0x30
 80035cc:	2201      	movs	r2, #1
 80035ce:	4968      	ldr	r1, [pc, #416]	; (8003770 <USB_Device_ProcessControlRequest+0x2b0>)
 80035d0:	2000      	movs	r0, #0
 80035d2:	4798      	blx	r3
		break;
 80035d4:	e17f      	b.n	80038d6 <USB_Device_ProcessControlRequest+0x416>

	case REQ_GetDescriptor:
		length = CALLBACK_USB_GetDescriptor(USB_ControlRequest.wValue,USB_ControlRequest.wIndex,(void*)&buffer);
 80035d6:	4b63      	ldr	r3, [pc, #396]	; (8003764 <USB_Device_ProcessControlRequest+0x2a4>)
 80035d8:	885b      	ldrh	r3, [r3, #2]
 80035da:	b29b      	uxth	r3, r3
 80035dc:	4a61      	ldr	r2, [pc, #388]	; (8003764 <USB_Device_ProcessControlRequest+0x2a4>)
 80035de:	8892      	ldrh	r2, [r2, #4]
 80035e0:	b292      	uxth	r2, r2
 80035e2:	b2d1      	uxtb	r1, r2
 80035e4:	1d3a      	adds	r2, r7, #4
 80035e6:	4618      	mov	r0, r3
 80035e8:	f7fd f874 	bl	80006d4 <CALLBACK_USB_GetDescriptor>
 80035ec:	4603      	mov	r3, r0
 80035ee:	617b      	str	r3, [r7, #20]
		if (length==0)
 80035f0:	697b      	ldr	r3, [r7, #20]
 80035f2:	2b00      	cmp	r3, #0
 80035f4:	d102      	bne.n	80035fc <USB_Device_ProcessControlRequest+0x13c>
			USBD_HandleEP0_Stall();
 80035f6:	f7ff ff4d 	bl	8003494 <USBD_HandleEP0_Stall>
					length : USB_ControlRequest.wLength;
			ret = device.Driver->EndpointWrite(0,buffer,length);
			device.Endpoints[0].InDataLeft = length - ret;
			device.Endpoints[0].InDataBuffer = (uint8_t *)((uint32_t)buffer + ret);
		}
		break;
 80035fa:	e16c      	b.n	80038d6 <USB_Device_ProcessControlRequest+0x416>
			length = length < USB_ControlRequest.wLength ?
 80035fc:	4b59      	ldr	r3, [pc, #356]	; (8003764 <USB_Device_ProcessControlRequest+0x2a4>)
 80035fe:	88db      	ldrh	r3, [r3, #6]
 8003600:	b29b      	uxth	r3, r3
 8003602:	461a      	mov	r2, r3
 8003604:	697b      	ldr	r3, [r7, #20]
 8003606:	4293      	cmp	r3, r2
 8003608:	bf28      	it	cs
 800360a:	4613      	movcs	r3, r2
 800360c:	617b      	str	r3, [r7, #20]
			ret = device.Driver->EndpointWrite(0,buffer,length);
 800360e:	4b56      	ldr	r3, [pc, #344]	; (8003768 <USB_Device_ProcessControlRequest+0x2a8>)
 8003610:	681b      	ldr	r3, [r3, #0]
 8003612:	6b1b      	ldr	r3, [r3, #48]	; 0x30
 8003614:	6879      	ldr	r1, [r7, #4]
 8003616:	697a      	ldr	r2, [r7, #20]
 8003618:	2000      	movs	r0, #0
 800361a:	4798      	blx	r3
 800361c:	4603      	mov	r3, r0
 800361e:	60fb      	str	r3, [r7, #12]
			device.Endpoints[0].InDataLeft = length - ret;
 8003620:	697a      	ldr	r2, [r7, #20]
 8003622:	68fb      	ldr	r3, [r7, #12]
 8003624:	1ad3      	subs	r3, r2, r3
 8003626:	4a50      	ldr	r2, [pc, #320]	; (8003768 <USB_Device_ProcessControlRequest+0x2a8>)
 8003628:	6293      	str	r3, [r2, #40]	; 0x28
			device.Endpoints[0].InDataBuffer = (uint8_t *)((uint32_t)buffer + ret);
 800362a:	687b      	ldr	r3, [r7, #4]
 800362c:	461a      	mov	r2, r3
 800362e:	68fb      	ldr	r3, [r7, #12]
 8003630:	4413      	add	r3, r2
 8003632:	461a      	mov	r2, r3
 8003634:	4b4c      	ldr	r3, [pc, #304]	; (8003768 <USB_Device_ProcessControlRequest+0x2a8>)
 8003636:	62da      	str	r2, [r3, #44]	; 0x2c
		break;
 8003638:	e14d      	b.n	80038d6 <USB_Device_ProcessControlRequest+0x416>

	case REQ_GetInterface:
		if (USB_DeviceState == DEVICE_STATE_Configured) {
 800363a:	4b4c      	ldr	r3, [pc, #304]	; (800376c <USB_Device_ProcessControlRequest+0x2ac>)
 800363c:	781b      	ldrb	r3, [r3, #0]
 800363e:	b2db      	uxtb	r3, r3
 8003640:	2b04      	cmp	r3, #4
 8003642:	d10d      	bne.n	8003660 <USB_Device_ProcessControlRequest+0x1a0>
			device.Driver->EndpointWrite(0,&device.InterfaceSettings[USB_ControlRequest.wIndex],1);
 8003644:	4b48      	ldr	r3, [pc, #288]	; (8003768 <USB_Device_ProcessControlRequest+0x2a8>)
 8003646:	681b      	ldr	r3, [r3, #0]
 8003648:	6b1b      	ldr	r3, [r3, #48]	; 0x30
 800364a:	4a46      	ldr	r2, [pc, #280]	; (8003764 <USB_Device_ProcessControlRequest+0x2a4>)
 800364c:	8892      	ldrh	r2, [r2, #4]
 800364e:	b292      	uxth	r2, r2
 8003650:	f502 729c 	add.w	r2, r2, #312	; 0x138
 8003654:	4944      	ldr	r1, [pc, #272]	; (8003768 <USB_Device_ProcessControlRequest+0x2a8>)
 8003656:	4411      	add	r1, r2
 8003658:	2201      	movs	r2, #1
 800365a:	2000      	movs	r0, #0
 800365c:	4798      	blx	r3
			break;
 800365e:	e13a      	b.n	80038d6 <USB_Device_ProcessControlRequest+0x416>
		}
		if (USB_DeviceState == DEVICE_STATE_Addressed) {
 8003660:	4b42      	ldr	r3, [pc, #264]	; (800376c <USB_Device_ProcessControlRequest+0x2ac>)
 8003662:	781b      	ldrb	r3, [r3, #0]
 8003664:	b2db      	uxtb	r3, r3
 8003666:	2b03      	cmp	r3, #3
 8003668:	f040 8130 	bne.w	80038cc <USB_Device_ProcessControlRequest+0x40c>
			USBD_HandleEP0_Stall();
 800366c:	f7ff ff12 	bl	8003494 <USBD_HandleEP0_Stall>
			break;
 8003670:	e131      	b.n	80038d6 <USB_Device_ProcessControlRequest+0x416>
		}
		break;

	case REQ_GetStatus:
		if ((USB_ControlRequest.bmRequestType & 0x3) == REQREC_DEVICE) {
 8003672:	4b3c      	ldr	r3, [pc, #240]	; (8003764 <USB_Device_ProcessControlRequest+0x2a4>)
 8003674:	781b      	ldrb	r3, [r3, #0]
 8003676:	f003 0303 	and.w	r3, r3, #3
 800367a:	2b00      	cmp	r3, #0
 800367c:	d11b      	bne.n	80036b6 <USB_Device_ProcessControlRequest+0x1f6>
			status = device.RemoteWakeUp << 1 | device.SelfPowered;
 800367e:	4b3a      	ldr	r3, [pc, #232]	; (8003768 <USB_Device_ProcessControlRequest+0x2a8>)
 8003680:	f893 313e 	ldrb.w	r3, [r3, #318]	; 0x13e
 8003684:	f3c3 0380 	ubfx	r3, r3, #2, #1
 8003688:	b2db      	uxtb	r3, r3
 800368a:	005b      	lsls	r3, r3, #1
 800368c:	b21a      	sxth	r2, r3
 800368e:	4b36      	ldr	r3, [pc, #216]	; (8003768 <USB_Device_ProcessControlRequest+0x2a8>)
 8003690:	f893 313e 	ldrb.w	r3, [r3, #318]	; 0x13e
 8003694:	f3c3 03c0 	ubfx	r3, r3, #3, #1
 8003698:	b2db      	uxtb	r3, r3
 800369a:	b21b      	sxth	r3, r3
 800369c:	4313      	orrs	r3, r2
 800369e:	b21b      	sxth	r3, r3
 80036a0:	b29b      	uxth	r3, r3
 80036a2:	813b      	strh	r3, [r7, #8]
			device.Driver->EndpointWrite(0,(uint8_t*)&status,2);
 80036a4:	4b30      	ldr	r3, [pc, #192]	; (8003768 <USB_Device_ProcessControlRequest+0x2a8>)
 80036a6:	681b      	ldr	r3, [r3, #0]
 80036a8:	6b1b      	ldr	r3, [r3, #48]	; 0x30
 80036aa:	f107 0108 	add.w	r1, r7, #8
 80036ae:	2202      	movs	r2, #2
 80036b0:	2000      	movs	r0, #0
 80036b2:	4798      	blx	r3
			break;
 80036b4:	e10f      	b.n	80038d6 <USB_Device_ProcessControlRequest+0x416>
		}
		if ((USB_ControlRequest.bmRequestType & 0x3) == REQREC_INTERFACE && USB_DeviceState == DEVICE_STATE_Configured) {
 80036b6:	4b2b      	ldr	r3, [pc, #172]	; (8003764 <USB_Device_ProcessControlRequest+0x2a4>)
 80036b8:	781b      	ldrb	r3, [r3, #0]
 80036ba:	f003 0303 	and.w	r3, r3, #3
 80036be:	2b01      	cmp	r3, #1
 80036c0:	d10f      	bne.n	80036e2 <USB_Device_ProcessControlRequest+0x222>
 80036c2:	4b2a      	ldr	r3, [pc, #168]	; (800376c <USB_Device_ProcessControlRequest+0x2ac>)
 80036c4:	781b      	ldrb	r3, [r3, #0]
 80036c6:	b2db      	uxtb	r3, r3
 80036c8:	2b04      	cmp	r3, #4
 80036ca:	d10a      	bne.n	80036e2 <USB_Device_ProcessControlRequest+0x222>
			status = 0;
 80036cc:	2300      	movs	r3, #0
 80036ce:	813b      	strh	r3, [r7, #8]
			device.Driver->EndpointWrite(0,(uint8_t*)&status,2);
 80036d0:	4b25      	ldr	r3, [pc, #148]	; (8003768 <USB_Device_ProcessControlRequest+0x2a8>)
 80036d2:	681b      	ldr	r3, [r3, #0]
 80036d4:	6b1b      	ldr	r3, [r3, #48]	; 0x30
 80036d6:	f107 0108 	add.w	r1, r7, #8
 80036da:	2202      	movs	r2, #2
 80036dc:	2000      	movs	r0, #0
 80036de:	4798      	blx	r3
			break;
 80036e0:	e0f9      	b.n	80038d6 <USB_Device_ProcessControlRequest+0x416>
		}
		/* print endpoint status only when(or):
		 * - Device_Address_state and ep == 0
		 * - Device_configured_state and ep is configured
		 */
		if ((USB_ControlRequest.bmRequestType & 0x3) == REQREC_ENDPOINT) {
 80036e2:	4b20      	ldr	r3, [pc, #128]	; (8003764 <USB_Device_ProcessControlRequest+0x2a4>)
 80036e4:	781b      	ldrb	r3, [r3, #0]
 80036e6:	f003 0303 	and.w	r3, r3, #3
 80036ea:	2b02      	cmp	r3, #2
 80036ec:	d130      	bne.n	8003750 <USB_Device_ProcessControlRequest+0x290>
			Index = USB_ControlRequest.wIndex & 0xFF & ENDPOINT_EPNUM_MASK;
 80036ee:	4b1d      	ldr	r3, [pc, #116]	; (8003764 <USB_Device_ProcessControlRequest+0x2a4>)
 80036f0:	889b      	ldrh	r3, [r3, #4]
 80036f2:	b29b      	uxth	r3, r3
 80036f4:	f003 030f 	and.w	r3, r3, #15
 80036f8:	817b      	strh	r3, [r7, #10]
			if ((USB_DeviceState == DEVICE_STATE_Configured || USB_ControlRequest.wIndex==0) &&
 80036fa:	4b1c      	ldr	r3, [pc, #112]	; (800376c <USB_Device_ProcessControlRequest+0x2ac>)
 80036fc:	781b      	ldrb	r3, [r3, #0]
 80036fe:	b2db      	uxtb	r3, r3
 8003700:	2b04      	cmp	r3, #4
 8003702:	d004      	beq.n	800370e <USB_Device_ProcessControlRequest+0x24e>
 8003704:	4b17      	ldr	r3, [pc, #92]	; (8003764 <USB_Device_ProcessControlRequest+0x2a4>)
 8003706:	889b      	ldrh	r3, [r3, #4]
 8003708:	b29b      	uxth	r3, r3
 800370a:	2b00      	cmp	r3, #0
 800370c:	d120      	bne.n	8003750 <USB_Device_ProcessControlRequest+0x290>
					device.Endpoints[Index].IsConfigured==1) {
 800370e:	897b      	ldrh	r3, [r7, #10]
 8003710:	4a15      	ldr	r2, [pc, #84]	; (8003768 <USB_Device_ProcessControlRequest+0x2a8>)
 8003712:	212c      	movs	r1, #44	; 0x2c
 8003714:	fb01 f303 	mul.w	r3, r1, r3
 8003718:	4413      	add	r3, r2
 800371a:	7a1b      	ldrb	r3, [r3, #8]
 800371c:	f3c3 0300 	ubfx	r3, r3, #0, #1
 8003720:	b2db      	uxtb	r3, r3
			if ((USB_DeviceState == DEVICE_STATE_Configured || USB_ControlRequest.wIndex==0) &&
 8003722:	2b01      	cmp	r3, #1
 8003724:	d114      	bne.n	8003750 <USB_Device_ProcessControlRequest+0x290>
				status = device.Endpoints[Index].IsHalted;
 8003726:	897b      	ldrh	r3, [r7, #10]
 8003728:	4a0f      	ldr	r2, [pc, #60]	; (8003768 <USB_Device_ProcessControlRequest+0x2a8>)
 800372a:	212c      	movs	r1, #44	; 0x2c
 800372c:	fb01 f303 	mul.w	r3, r1, r3
 8003730:	4413      	add	r3, r2
 8003732:	7a1b      	ldrb	r3, [r3, #8]
 8003734:	f3c3 0380 	ubfx	r3, r3, #2, #1
 8003738:	b2db      	uxtb	r3, r3
 800373a:	b29b      	uxth	r3, r3
 800373c:	813b      	strh	r3, [r7, #8]
				device.Driver->EndpointWrite(0,(uint8_t*)&status,2);
 800373e:	4b0a      	ldr	r3, [pc, #40]	; (8003768 <USB_Device_ProcessControlRequest+0x2a8>)
 8003740:	681b      	ldr	r3, [r3, #0]
 8003742:	6b1b      	ldr	r3, [r3, #48]	; 0x30
 8003744:	f107 0108 	add.w	r1, r7, #8
 8003748:	2202      	movs	r2, #2
 800374a:	2000      	movs	r0, #0
 800374c:	4798      	blx	r3
				break;
 800374e:	e0c2      	b.n	80038d6 <USB_Device_ProcessControlRequest+0x416>
			}
		}
		/* default stall */
		USBD_HandleEP0_Stall();
 8003750:	f7ff fea0 	bl	8003494 <USBD_HandleEP0_Stall>
		break;
 8003754:	e0bf      	b.n	80038d6 <USB_Device_ProcessControlRequest+0x416>

	case REQ_SetAddress:
		if (Value == 0)
 8003756:	7cfb      	ldrb	r3, [r7, #19]
 8003758:	2b00      	cmp	r3, #0
 800375a:	d10b      	bne.n	8003774 <USB_Device_ProcessControlRequest+0x2b4>
			USB_DeviceState = DEVICE_STATE_Default;
 800375c:	4b03      	ldr	r3, [pc, #12]	; (800376c <USB_Device_ProcessControlRequest+0x2ac>)
 800375e:	2202      	movs	r2, #2
 8003760:	701a      	strb	r2, [r3, #0]
 8003762:	e00a      	b.n	800377a <USB_Device_ProcessControlRequest+0x2ba>
 8003764:	20000a80 	.word	0x20000a80
 8003768:	200004f8 	.word	0x200004f8
 800376c:	20000a88 	.word	0x20000a88
 8003770:	20000631 	.word	0x20000631
		else
			USB_DeviceState = DEVICE_STATE_Addressed;
 8003774:	4b5e      	ldr	r3, [pc, #376]	; (80038f0 <USB_Device_ProcessControlRequest+0x430>)
 8003776:	2203      	movs	r2, #3
 8003778:	701a      	strb	r2, [r3, #0]
		device.Driver->DeviceSetAddress(Value,XMC_USBD_SET_ADDRESS_STAGE_SETUP);
 800377a:	4b5e      	ldr	r3, [pc, #376]	; (80038f4 <USB_Device_ProcessControlRequest+0x434>)
 800377c:	681b      	ldr	r3, [r3, #0]
 800377e:	699b      	ldr	r3, [r3, #24]
 8003780:	7cfa      	ldrb	r2, [r7, #19]
 8003782:	2100      	movs	r1, #0
 8003784:	4610      	mov	r0, r2
 8003786:	4798      	blx	r3
		break;
 8003788:	e0a5      	b.n	80038d6 <USB_Device_ProcessControlRequest+0x416>

	case REQ_SetConfiguration:
		/* Regardless the state update the configuration to unconfigure endpoints */
		device.Configuration = Value;
 800378a:	4a5a      	ldr	r2, [pc, #360]	; (80038f4 <USB_Device_ProcessControlRequest+0x434>)
 800378c:	7cfb      	ldrb	r3, [r7, #19]
 800378e:	f882 3139 	strb.w	r3, [r2, #313]	; 0x139
		EVENT_USB_Device_ConfigurationChanged();
 8003792:	f7fc ff61 	bl	8000658 <EVENT_USB_Device_ConfigurationChanged>
		/* when config 0 is choosen, we are back in address state */
		if (Value == 0) {
 8003796:	7cfb      	ldrb	r3, [r7, #19]
 8003798:	2b00      	cmp	r3, #0
 800379a:	d103      	bne.n	80037a4 <USB_Device_ProcessControlRequest+0x2e4>
			USB_DeviceState = DEVICE_STATE_Addressed;
 800379c:	4b54      	ldr	r3, [pc, #336]	; (80038f0 <USB_Device_ProcessControlRequest+0x430>)
 800379e:	2203      	movs	r2, #3
 80037a0:	701a      	strb	r2, [r3, #0]
			break;
 80037a2:	e098      	b.n	80038d6 <USB_Device_ProcessControlRequest+0x416>
		}
		/* go ahead only with vailid config. (must be set in event) */
		if (device.IsConfigured == 1)
 80037a4:	4b53      	ldr	r3, [pc, #332]	; (80038f4 <USB_Device_ProcessControlRequest+0x434>)
 80037a6:	f893 313e 	ldrb.w	r3, [r3, #318]	; 0x13e
 80037aa:	f003 0301 	and.w	r3, r3, #1
 80037ae:	b2db      	uxtb	r3, r3
 80037b0:	2b00      	cmp	r3, #0
 80037b2:	d003      	beq.n	80037bc <USB_Device_ProcessControlRequest+0x2fc>
			USB_DeviceState = DEVICE_STATE_Configured;
 80037b4:	4b4e      	ldr	r3, [pc, #312]	; (80038f0 <USB_Device_ProcessControlRequest+0x430>)
 80037b6:	2204      	movs	r2, #4
 80037b8:	701a      	strb	r2, [r3, #0]
		else
			USBD_HandleEP0_Stall();
		break;
 80037ba:	e08c      	b.n	80038d6 <USB_Device_ProcessControlRequest+0x416>
			USBD_HandleEP0_Stall();
 80037bc:	f7ff fe6a 	bl	8003494 <USBD_HandleEP0_Stall>
		break;
 80037c0:	e089      	b.n	80038d6 <USB_Device_ProcessControlRequest+0x416>

	case REQ_SetDescriptor:
		/* Set Descriptor not supported, so stall */
		USBD_HandleEP0_Stall();
 80037c2:	f7ff fe67 	bl	8003494 <USBD_HandleEP0_Stall>
		break;
 80037c6:	e086      	b.n	80038d6 <USB_Device_ProcessControlRequest+0x416>

	case REQ_SetInterface:
		if (USB_DeviceState == DEVICE_STATE_Configured) {
 80037c8:	4b49      	ldr	r3, [pc, #292]	; (80038f0 <USB_Device_ProcessControlRequest+0x430>)
 80037ca:	781b      	ldrb	r3, [r3, #0]
 80037cc:	b2db      	uxtb	r3, r3
 80037ce:	2b04      	cmp	r3, #4
 80037d0:	d10c      	bne.n	80037ec <USB_Device_ProcessControlRequest+0x32c>
			/* TODO: Check if interface and altsetting exists and configuration is allowed, else stall */
			device.InterfaceSettings[USB_ControlRequest.wIndex] = USB_ControlRequest.wValue;
 80037d2:	4b49      	ldr	r3, [pc, #292]	; (80038f8 <USB_Device_ProcessControlRequest+0x438>)
 80037d4:	885b      	ldrh	r3, [r3, #2]
 80037d6:	b29a      	uxth	r2, r3
 80037d8:	4b47      	ldr	r3, [pc, #284]	; (80038f8 <USB_Device_ProcessControlRequest+0x438>)
 80037da:	889b      	ldrh	r3, [r3, #4]
 80037dc:	b29b      	uxth	r3, r3
 80037de:	4619      	mov	r1, r3
 80037e0:	b2d2      	uxtb	r2, r2
 80037e2:	4b44      	ldr	r3, [pc, #272]	; (80038f4 <USB_Device_ProcessControlRequest+0x434>)
 80037e4:	440b      	add	r3, r1
 80037e6:	f883 2138 	strb.w	r2, [r3, #312]	; 0x138
			break;
 80037ea:	e074      	b.n	80038d6 <USB_Device_ProcessControlRequest+0x416>
		}
		if (USB_DeviceState == DEVICE_STATE_Addressed) {
 80037ec:	4b40      	ldr	r3, [pc, #256]	; (80038f0 <USB_Device_ProcessControlRequest+0x430>)
 80037ee:	781b      	ldrb	r3, [r3, #0]
 80037f0:	b2db      	uxtb	r3, r3
 80037f2:	2b03      	cmp	r3, #3
 80037f4:	d16c      	bne.n	80038d0 <USB_Device_ProcessControlRequest+0x410>
			USBD_HandleEP0_Stall();
 80037f6:	f7ff fe4d 	bl	8003494 <USBD_HandleEP0_Stall>
			break;
 80037fa:	e06c      	b.n	80038d6 <USB_Device_ProcessControlRequest+0x416>
		}
		break;

	case REQ_SetFeature:
		/* we do not support test mode */
		if (Value == FEATURE_SEL_TestMode) {
 80037fc:	7cfb      	ldrb	r3, [r7, #19]
 80037fe:	2b02      	cmp	r3, #2
 8003800:	d102      	bne.n	8003808 <USB_Device_ProcessControlRequest+0x348>
			USBD_HandleEP0_Stall();
 8003802:	f7ff fe47 	bl	8003494 <USBD_HandleEP0_Stall>
			break;
 8003806:	e066      	b.n	80038d6 <USB_Device_ProcessControlRequest+0x416>
		}
		/* configured state */
		if (USB_DeviceState == DEVICE_STATE_Configured) {
 8003808:	4b39      	ldr	r3, [pc, #228]	; (80038f0 <USB_Device_ProcessControlRequest+0x430>)
 800380a:	781b      	ldrb	r3, [r3, #0]
 800380c:	b2db      	uxtb	r3, r3
 800380e:	2b04      	cmp	r3, #4
 8003810:	d137      	bne.n	8003882 <USB_Device_ProcessControlRequest+0x3c2>
			switch (Value) {
 8003812:	7cfb      	ldrb	r3, [r7, #19]
 8003814:	2b00      	cmp	r3, #0
 8003816:	d009      	beq.n	800382c <USB_Device_ProcessControlRequest+0x36c>
 8003818:	2b01      	cmp	r3, #1
 800381a:	d15b      	bne.n	80038d4 <USB_Device_ProcessControlRequest+0x414>
			case FEATURE_SEL_DeviceRemoteWakeup:
				device.RemoteWakeUp = 1;
 800381c:	4a35      	ldr	r2, [pc, #212]	; (80038f4 <USB_Device_ProcessControlRequest+0x434>)
 800381e:	f892 313e 	ldrb.w	r3, [r2, #318]	; 0x13e
 8003822:	f043 0304 	orr.w	r3, r3, #4
 8003826:	f882 313e 	strb.w	r3, [r2, #318]	; 0x13e
				break;
 800382a:	e029      	b.n	8003880 <USB_Device_ProcessControlRequest+0x3c0>
			case FEATURE_SEL_EndpointHalt:
				Index = USB_ControlRequest.wIndex & 0xFF & (uint8_t)XMC_USBD_ENDPOINT_NUMBER_MASK;
 800382c:	4b32      	ldr	r3, [pc, #200]	; (80038f8 <USB_Device_ProcessControlRequest+0x438>)
 800382e:	889b      	ldrh	r3, [r3, #4]
 8003830:	b29b      	uxth	r3, r3
 8003832:	f003 030f 	and.w	r3, r3, #15
 8003836:	817b      	strh	r3, [r7, #10]
				if (device.Endpoints[Index].IsConfigured == 0)
 8003838:	897b      	ldrh	r3, [r7, #10]
 800383a:	4a2e      	ldr	r2, [pc, #184]	; (80038f4 <USB_Device_ProcessControlRequest+0x434>)
 800383c:	212c      	movs	r1, #44	; 0x2c
 800383e:	fb01 f303 	mul.w	r3, r1, r3
 8003842:	4413      	add	r3, r2
 8003844:	7a1b      	ldrb	r3, [r3, #8]
 8003846:	f3c3 0300 	ubfx	r3, r3, #0, #1
 800384a:	b2db      	uxtb	r3, r3
 800384c:	2b00      	cmp	r3, #0
 800384e:	d102      	bne.n	8003856 <USB_Device_ProcessControlRequest+0x396>
					USBD_HandleEP0_Stall();
 8003850:	f7ff fe20 	bl	8003494 <USBD_HandleEP0_Stall>
				else {
					device.Endpoints[Index].IsHalted = 1;
					device.Driver->EndpointStall(USB_ControlRequest.wIndex,1);
				}
				break;
 8003854:	e013      	b.n	800387e <USB_Device_ProcessControlRequest+0x3be>
					device.Endpoints[Index].IsHalted = 1;
 8003856:	897b      	ldrh	r3, [r7, #10]
 8003858:	4a26      	ldr	r2, [pc, #152]	; (80038f4 <USB_Device_ProcessControlRequest+0x434>)
 800385a:	212c      	movs	r1, #44	; 0x2c
 800385c:	fb01 f303 	mul.w	r3, r1, r3
 8003860:	441a      	add	r2, r3
 8003862:	7a13      	ldrb	r3, [r2, #8]
 8003864:	f043 0304 	orr.w	r3, r3, #4
 8003868:	7213      	strb	r3, [r2, #8]
					device.Driver->EndpointStall(USB_ControlRequest.wIndex,1);
 800386a:	4b22      	ldr	r3, [pc, #136]	; (80038f4 <USB_Device_ProcessControlRequest+0x434>)
 800386c:	681b      	ldr	r3, [r3, #0]
 800386e:	6a5b      	ldr	r3, [r3, #36]	; 0x24
 8003870:	4a21      	ldr	r2, [pc, #132]	; (80038f8 <USB_Device_ProcessControlRequest+0x438>)
 8003872:	8892      	ldrh	r2, [r2, #4]
 8003874:	b292      	uxth	r2, r2
 8003876:	b2d2      	uxtb	r2, r2
 8003878:	2101      	movs	r1, #1
 800387a:	4610      	mov	r0, r2
 800387c:	4798      	blx	r3
				break;
 800387e:	bf00      	nop
			}
			break;
 8003880:	e028      	b.n	80038d4 <USB_Device_ProcessControlRequest+0x414>
		}
		/* when addressed, only ep0 can be halted */
		if (USB_DeviceState == DEVICE_STATE_Addressed) {
 8003882:	4b1b      	ldr	r3, [pc, #108]	; (80038f0 <USB_Device_ProcessControlRequest+0x430>)
 8003884:	781b      	ldrb	r3, [r3, #0]
 8003886:	b2db      	uxtb	r3, r3
 8003888:	2b03      	cmp	r3, #3
 800388a:	d116      	bne.n	80038ba <USB_Device_ProcessControlRequest+0x3fa>
			if (Value == FEATURE_SEL_EndpointHalt &&
 800388c:	7cfb      	ldrb	r3, [r7, #19]
 800388e:	2b00      	cmp	r3, #0
 8003890:	d113      	bne.n	80038ba <USB_Device_ProcessControlRequest+0x3fa>
					(USB_ControlRequest.bmRequestType & 0x3) == REQREC_ENDPOINT &&
 8003892:	4b19      	ldr	r3, [pc, #100]	; (80038f8 <USB_Device_ProcessControlRequest+0x438>)
 8003894:	781b      	ldrb	r3, [r3, #0]
 8003896:	f003 0303 	and.w	r3, r3, #3
			if (Value == FEATURE_SEL_EndpointHalt &&
 800389a:	2b02      	cmp	r3, #2
 800389c:	d10d      	bne.n	80038ba <USB_Device_ProcessControlRequest+0x3fa>
					(USB_ControlRequest.wIndex & 0x00FF) == 0x0) {
 800389e:	4b16      	ldr	r3, [pc, #88]	; (80038f8 <USB_Device_ProcessControlRequest+0x438>)
 80038a0:	889b      	ldrh	r3, [r3, #4]
 80038a2:	b29b      	uxth	r3, r3
 80038a4:	b2db      	uxtb	r3, r3
					(USB_ControlRequest.bmRequestType & 0x3) == REQREC_ENDPOINT &&
 80038a6:	2b00      	cmp	r3, #0
 80038a8:	d107      	bne.n	80038ba <USB_Device_ProcessControlRequest+0x3fa>
				device.Endpoints[0].IsHalted = 1;
 80038aa:	4a12      	ldr	r2, [pc, #72]	; (80038f4 <USB_Device_ProcessControlRequest+0x434>)
 80038ac:	7a13      	ldrb	r3, [r2, #8]
 80038ae:	f043 0304 	orr.w	r3, r3, #4
 80038b2:	7213      	strb	r3, [r2, #8]
				USBD_HandleEP0_Stall();
 80038b4:	f7ff fdee 	bl	8003494 <USBD_HandleEP0_Stall>
				break;
 80038b8:	e00d      	b.n	80038d6 <USB_Device_ProcessControlRequest+0x416>
			}
		}
		/* default behaviour is stall */
		USBD_HandleEP0_Stall();
 80038ba:	f7ff fdeb 	bl	8003494 <USBD_HandleEP0_Stall>
		break;
 80038be:	e00a      	b.n	80038d6 <USB_Device_ProcessControlRequest+0x416>

	case REQ_SynchFrame:
		/* Not yet supported */
		USBD_HandleEP0_Stall();
 80038c0:	f7ff fde8 	bl	8003494 <USBD_HandleEP0_Stall>
		break;
 80038c4:	e007      	b.n	80038d6 <USB_Device_ProcessControlRequest+0x416>

	default:
		USBD_HandleEP0_Stall();
 80038c6:	f7ff fde5 	bl	8003494 <USBD_HandleEP0_Stall>
 80038ca:	e004      	b.n	80038d6 <USB_Device_ProcessControlRequest+0x416>
		break;
 80038cc:	bf00      	nop
 80038ce:	e002      	b.n	80038d6 <USB_Device_ProcessControlRequest+0x416>
		break;
 80038d0:	bf00      	nop
 80038d2:	e000      	b.n	80038d6 <USB_Device_ProcessControlRequest+0x416>
			break;
 80038d4:	bf00      	nop
	}
	device.IsSetupRecieved = 0;
 80038d6:	4a07      	ldr	r2, [pc, #28]	; (80038f4 <USB_Device_ProcessControlRequest+0x434>)
 80038d8:	f892 313e 	ldrb.w	r3, [r2, #318]	; 0x13e
 80038dc:	f36f 0341 	bfc	r3, #1, #1
 80038e0:	f882 313e 	strb.w	r3, [r2, #318]	; 0x13e
 80038e4:	e000      	b.n	80038e8 <USB_Device_ProcessControlRequest+0x428>
		return;
 80038e6:	bf00      	nop
}
 80038e8:	3718      	adds	r7, #24
 80038ea:	46bd      	mov	sp, r7
 80038ec:	bd80      	pop	{r7, pc}
 80038ee:	bf00      	nop
 80038f0:	20000a88 	.word	0x20000a88
 80038f4:	200004f8 	.word	0x200004f8
 80038f8:	20000a80 	.word	0x20000a80

080038fc <USBD_HandleEP0_IN>:
 * \brief Handle complete IN transfer on EP0
 *
 * In \ref IN_DATA state it starts a receive and switches to \ref OUT_STATUS state.
 * In \ref IN_STATUS state its starts a new read of setup packets and switches to \ref IDLE.
 */
void USBD_HandleEP0_IN() {
 80038fc:	b580      	push	{r7, lr}
 80038fe:	af00      	add	r7, sp, #0
	if (device.EP0_State == IN_DATA) {
 8003900:	4b10      	ldr	r3, [pc, #64]	; (8003944 <USBD_HandleEP0_IN+0x48>)
 8003902:	f893 313b 	ldrb.w	r3, [r3, #315]	; 0x13b
 8003906:	2b02      	cmp	r3, #2
 8003908:	d109      	bne.n	800391e <USBD_HandleEP0_IN+0x22>
		/* Read zero length out data packet */
		device.Driver->EndpointReadStart(0,0);
 800390a:	4b0e      	ldr	r3, [pc, #56]	; (8003944 <USBD_HandleEP0_IN+0x48>)
 800390c:	681b      	ldr	r3, [r3, #0]
 800390e:	6a9b      	ldr	r3, [r3, #40]	; 0x28
 8003910:	2100      	movs	r1, #0
 8003912:	2000      	movs	r0, #0
 8003914:	4798      	blx	r3
		device.EP0_State = OUT_STATUS;
 8003916:	4b0b      	ldr	r3, [pc, #44]	; (8003944 <USBD_HandleEP0_IN+0x48>)
 8003918:	2205      	movs	r2, #5
 800391a:	f883 213b 	strb.w	r2, [r3, #315]	; 0x13b
	}
	if (device.EP0_State == IN_STATUS) {
 800391e:	4b09      	ldr	r3, [pc, #36]	; (8003944 <USBD_HandleEP0_IN+0x48>)
 8003920:	f893 313b 	ldrb.w	r3, [r3, #315]	; 0x13b
 8003924:	2b03      	cmp	r3, #3
 8003926:	d10b      	bne.n	8003940 <USBD_HandleEP0_IN+0x44>
		/* Request new setup packet */
		device.Driver->EndpointReadStart(device.Endpoints[0].Address,24);
 8003928:	4b06      	ldr	r3, [pc, #24]	; (8003944 <USBD_HandleEP0_IN+0x48>)
 800392a:	681b      	ldr	r3, [r3, #0]
 800392c:	6a9b      	ldr	r3, [r3, #40]	; 0x28
 800392e:	4a05      	ldr	r2, [pc, #20]	; (8003944 <USBD_HandleEP0_IN+0x48>)
 8003930:	7912      	ldrb	r2, [r2, #4]
 8003932:	2118      	movs	r1, #24
 8003934:	4610      	mov	r0, r2
 8003936:	4798      	blx	r3
		device.EP0_State = IDLE;
 8003938:	4b02      	ldr	r3, [pc, #8]	; (8003944 <USBD_HandleEP0_IN+0x48>)
 800393a:	2201      	movs	r2, #1
 800393c:	f883 213b 	strb.w	r2, [r3, #315]	; 0x13b
	}
}
 8003940:	bf00      	nop
 8003942:	bd80      	pop	{r7, pc}
 8003944:	200004f8 	.word	0x200004f8

08003948 <USBD_HandleEP0_OUT>:
 * \brief Handle complete OUT transfer on EP0
 *
 * Handles the OUT packet based on the state of endpoint 0. Starts a new read for new SETUP packets, when in \ref OUT_STATUS.
 * When endpoint 0 is in \ref OUT_DATA state, it handles the received data and starts a write transaction for \ref IN_STATUS.
 */
void USBD_HandleEP0_OUT() {
 8003948:	b580      	push	{r7, lr}
 800394a:	af00      	add	r7, sp, #0
	if (device.EP0_State == OUT_DATA) {
 800394c:	4b12      	ldr	r3, [pc, #72]	; (8003998 <USBD_HandleEP0_OUT+0x50>)
 800394e:	f893 313b 	ldrb.w	r3, [r3, #315]	; 0x13b
 8003952:	2b04      	cmp	r3, #4
 8003954:	d10c      	bne.n	8003970 <USBD_HandleEP0_OUT+0x28>
		/* Now we have the data for handling the request */
		USB_Device_ProcessControlRequest();
 8003956:	f7ff fdb3 	bl	80034c0 <USB_Device_ProcessControlRequest>
		/* Zero length packet for status stage */
		device.Driver->EndpointWrite(ENDPOINT_DIR_MASK & 0,0,0);
 800395a:	4b0f      	ldr	r3, [pc, #60]	; (8003998 <USBD_HandleEP0_OUT+0x50>)
 800395c:	681b      	ldr	r3, [r3, #0]
 800395e:	6b1b      	ldr	r3, [r3, #48]	; 0x30
 8003960:	2200      	movs	r2, #0
 8003962:	2100      	movs	r1, #0
 8003964:	2000      	movs	r0, #0
 8003966:	4798      	blx	r3
		device.EP0_State = IN_STATUS;
 8003968:	4b0b      	ldr	r3, [pc, #44]	; (8003998 <USBD_HandleEP0_OUT+0x50>)
 800396a:	2203      	movs	r2, #3
 800396c:	f883 213b 	strb.w	r2, [r3, #315]	; 0x13b
	}
	if (device.EP0_State == OUT_STATUS) {
 8003970:	4b09      	ldr	r3, [pc, #36]	; (8003998 <USBD_HandleEP0_OUT+0x50>)
 8003972:	f893 313b 	ldrb.w	r3, [r3, #315]	; 0x13b
 8003976:	2b05      	cmp	r3, #5
 8003978:	d10b      	bne.n	8003992 <USBD_HandleEP0_OUT+0x4a>
		/* Request new setup packet */
		device.Driver->EndpointReadStart(device.Endpoints[0].Address,24);
 800397a:	4b07      	ldr	r3, [pc, #28]	; (8003998 <USBD_HandleEP0_OUT+0x50>)
 800397c:	681b      	ldr	r3, [r3, #0]
 800397e:	6a9b      	ldr	r3, [r3, #40]	; 0x28
 8003980:	4a05      	ldr	r2, [pc, #20]	; (8003998 <USBD_HandleEP0_OUT+0x50>)
 8003982:	7912      	ldrb	r2, [r2, #4]
 8003984:	2118      	movs	r1, #24
 8003986:	4610      	mov	r0, r2
 8003988:	4798      	blx	r3
		device.EP0_State = IDLE;
 800398a:	4b03      	ldr	r3, [pc, #12]	; (8003998 <USBD_HandleEP0_OUT+0x50>)
 800398c:	2201      	movs	r2, #1
 800398e:	f883 213b 	strb.w	r2, [r3, #315]	; 0x13b
	}
}
 8003992:	bf00      	nop
 8003994:	bd80      	pop	{r7, pc}
 8003996:	bf00      	nop
 8003998:	200004f8 	.word	0x200004f8

0800399c <USBD_HandleEP0_SETUP>:
 * Handles the setup package an switches to correct state. If data is send from host to device it switches into \ref OUT_DATA state.
 * When the hosts sends all data within the setup package and \ref wLength equals zero, starts processing the request and sends a
 * in status reponse including the switch to \ref IN_STATUS.
 * When the host expects data from the device, the function processes the control request and switches to \ref IN_DATA state.
 */
void USBD_HandleEP0_SETUP() {
 800399c:	b580      	push	{r7, lr}
 800399e:	b082      	sub	sp, #8
 80039a0:	af00      	add	r7, sp, #0
	/* read setup package from ep0 */
	int32_t ret_val = device.Driver->EndpointRead(0,(void*)&USB_ControlRequest,8);
 80039a2:	4b21      	ldr	r3, [pc, #132]	; (8003a28 <USBD_HandleEP0_SETUP+0x8c>)
 80039a4:	681b      	ldr	r3, [r3, #0]
 80039a6:	6adb      	ldr	r3, [r3, #44]	; 0x2c
 80039a8:	2208      	movs	r2, #8
 80039aa:	4920      	ldr	r1, [pc, #128]	; (8003a2c <USBD_HandleEP0_SETUP+0x90>)
 80039ac:	2000      	movs	r0, #0
 80039ae:	4798      	blx	r3
 80039b0:	6078      	str	r0, [r7, #4]
#if NO_COPY_DRIVER
	MEMCPY(&USB_ControlRequest,device.Endpoints[0].OutBuffer,sizeof(USB_ControlRequest));
#endif
	device.IsSetupRecieved = true;
 80039b2:	4a1d      	ldr	r2, [pc, #116]	; (8003a28 <USBD_HandleEP0_SETUP+0x8c>)
 80039b4:	f892 313e 	ldrb.w	r3, [r2, #318]	; 0x13e
 80039b8:	f043 0302 	orr.w	r3, r3, #2
 80039bc:	f882 313e 	strb.w	r3, [r2, #318]	; 0x13e
	if (ret_val != 8 )
 80039c0:	687b      	ldr	r3, [r7, #4]
 80039c2:	2b08      	cmp	r3, #8
 80039c4:	d12c      	bne.n	8003a20 <USBD_HandleEP0_SETUP+0x84>
		return;

	/* preprocess */
	/* if length is zero we have only a in_status phase */
	if (USB_ControlRequest.wLength==0) {
 80039c6:	4b19      	ldr	r3, [pc, #100]	; (8003a2c <USBD_HandleEP0_SETUP+0x90>)
 80039c8:	88db      	ldrh	r3, [r3, #6]
 80039ca:	b29b      	uxth	r3, r3
 80039cc:	2b00      	cmp	r3, #0
 80039ce:	d10d      	bne.n	80039ec <USBD_HandleEP0_SETUP+0x50>
		device.EP0_State = IN_STATUS;
 80039d0:	4b15      	ldr	r3, [pc, #84]	; (8003a28 <USBD_HandleEP0_SETUP+0x8c>)
 80039d2:	2203      	movs	r2, #3
 80039d4:	f883 213b 	strb.w	r2, [r3, #315]	; 0x13b
		USB_Device_ProcessControlRequest();
 80039d8:	f7ff fd72 	bl	80034c0 <USB_Device_ProcessControlRequest>
		device.Driver->EndpointWrite(0,0,0);
 80039dc:	4b12      	ldr	r3, [pc, #72]	; (8003a28 <USBD_HandleEP0_SETUP+0x8c>)
 80039de:	681b      	ldr	r3, [r3, #0]
 80039e0:	6b1b      	ldr	r3, [r3, #48]	; 0x30
 80039e2:	2200      	movs	r2, #0
 80039e4:	2100      	movs	r1, #0
 80039e6:	2000      	movs	r0, #0
 80039e8:	4798      	blx	r3
 80039ea:	e01a      	b.n	8003a22 <USBD_HandleEP0_SETUP+0x86>
	} else {
		if (USB_ControlRequest.bmRequestType & CONTROL_REQTYPE_DIRECTION) {
 80039ec:	4b0f      	ldr	r3, [pc, #60]	; (8003a2c <USBD_HandleEP0_SETUP+0x90>)
 80039ee:	781b      	ldrb	r3, [r3, #0]
 80039f0:	b25b      	sxtb	r3, r3
 80039f2:	2b00      	cmp	r3, #0
 80039f4:	da06      	bge.n	8003a04 <USBD_HandleEP0_SETUP+0x68>
			device.EP0_State = IN_DATA;
 80039f6:	4b0c      	ldr	r3, [pc, #48]	; (8003a28 <USBD_HandleEP0_SETUP+0x8c>)
 80039f8:	2202      	movs	r2, #2
 80039fa:	f883 213b 	strb.w	r2, [r3, #315]	; 0x13b
			USB_Device_ProcessControlRequest();
 80039fe:	f7ff fd5f 	bl	80034c0 <USB_Device_ProcessControlRequest>
 8003a02:	e00e      	b.n	8003a22 <USBD_HandleEP0_SETUP+0x86>
		}
		else {
			device.EP0_State = OUT_DATA;
 8003a04:	4b08      	ldr	r3, [pc, #32]	; (8003a28 <USBD_HandleEP0_SETUP+0x8c>)
 8003a06:	2204      	movs	r2, #4
 8003a08:	f883 213b 	strb.w	r2, [r3, #315]	; 0x13b
			/* Do not process request here, first read data */
			device.Driver->EndpointReadStart(0,USB_ControlRequest.wLength);
 8003a0c:	4b06      	ldr	r3, [pc, #24]	; (8003a28 <USBD_HandleEP0_SETUP+0x8c>)
 8003a0e:	681b      	ldr	r3, [r3, #0]
 8003a10:	6a9b      	ldr	r3, [r3, #40]	; 0x28
 8003a12:	4a06      	ldr	r2, [pc, #24]	; (8003a2c <USBD_HandleEP0_SETUP+0x90>)
 8003a14:	88d2      	ldrh	r2, [r2, #6]
 8003a16:	b292      	uxth	r2, r2
 8003a18:	4611      	mov	r1, r2
 8003a1a:	2000      	movs	r0, #0
 8003a1c:	4798      	blx	r3
 8003a1e:	e000      	b.n	8003a22 <USBD_HandleEP0_SETUP+0x86>
		return;
 8003a20:	bf00      	nop
		}
	}
}
 8003a22:	3708      	adds	r7, #8
 8003a24:	46bd      	mov	sp, r7
 8003a26:	bd80      	pop	{r7, pc}
 8003a28:	200004f8 	.word	0x200004f8
 8003a2c:	20000a80 	.word	0x20000a80

08003a30 <USBD_SignalDeviceEventHandler>:
 * The device can have several events, where it notifies the application about.
 *
 * \note Not all events are available on all chip series. (Power Events are only supported on XMC4500)
 * \see USB_USBD_EVENT
 */
void USBD_SignalDeviceEventHandler(XMC_USBD_EVENT_t event) {
 8003a30:	b580      	push	{r7, lr}
 8003a32:	b084      	sub	sp, #16
 8003a34:	af00      	add	r7, sp, #0
 8003a36:	4603      	mov	r3, r0
 8003a38:	71fb      	strb	r3, [r7, #7]
	int i;
	switch (event) {
 8003a3a:	79fb      	ldrb	r3, [r7, #7]
 8003a3c:	2b09      	cmp	r3, #9
 8003a3e:	f200 80fd 	bhi.w	8003c3c <USBD_SignalDeviceEventHandler+0x20c>
 8003a42:	a201      	add	r2, pc, #4	; (adr r2, 8003a48 <USBD_SignalDeviceEventHandler+0x18>)
 8003a44:	f852 f023 	ldr.w	pc, [r2, r3, lsl #2]
 8003a48:	08003b9f 	.word	0x08003b9f
 8003a4c:	08003b8d 	.word	0x08003b8d
 8003a50:	08003b7b 	.word	0x08003b7b
 8003a54:	08003b81 	.word	0x08003b81
 8003a58:	08003a71 	.word	0x08003a71
 8003a5c:	08003c3d 	.word	0x08003c3d
 8003a60:	08003c25 	.word	0x08003c25
 8003a64:	08003c15 	.word	0x08003c15
 8003a68:	08003c3d 	.word	0x08003c3d
 8003a6c:	08003b75 	.word	0x08003b75
	case XMC_USBD_EVENT_RESET:
		USB_DeviceState = DEVICE_STATE_Default;
 8003a70:	4b74      	ldr	r3, [pc, #464]	; (8003c44 <USBD_SignalDeviceEventHandler+0x214>)
 8003a72:	2202      	movs	r2, #2
 8003a74:	701a      	strb	r2, [r3, #0]
		device.EP0_State = IDLE;
 8003a76:	4b74      	ldr	r3, [pc, #464]	; (8003c48 <USBD_SignalDeviceEventHandler+0x218>)
 8003a78:	2201      	movs	r2, #1
 8003a7a:	f883 213b 	strb.w	r2, [r3, #315]	; 0x13b
		device.RemoteWakeUp = 0;
 8003a7e:	4a72      	ldr	r2, [pc, #456]	; (8003c48 <USBD_SignalDeviceEventHandler+0x218>)
 8003a80:	f892 313e 	ldrb.w	r3, [r2, #318]	; 0x13e
 8003a84:	f36f 0382 	bfc	r3, #2, #1
 8003a88:	f882 313e 	strb.w	r3, [r2, #318]	; 0x13e
		/* Reset endpoints and configuration */
		for (i=0;i<(uint8_t)XMC_USBD_NUM_EPS; i++) {
 8003a8c:	2300      	movs	r3, #0
 8003a8e:	60fb      	str	r3, [r7, #12]
 8003a90:	e050      	b.n	8003b34 <USBD_SignalDeviceEventHandler+0x104>
			device.Endpoints[i].InInUse = 0;
 8003a92:	4a6d      	ldr	r2, [pc, #436]	; (8003c48 <USBD_SignalDeviceEventHandler+0x218>)
 8003a94:	68fb      	ldr	r3, [r7, #12]
 8003a96:	212c      	movs	r1, #44	; 0x2c
 8003a98:	fb01 f303 	mul.w	r3, r1, r3
 8003a9c:	441a      	add	r2, r3
 8003a9e:	8913      	ldrh	r3, [r2, #8]
 8003aa0:	f36f 1304 	bfc	r3, #4, #1
 8003aa4:	8113      	strh	r3, [r2, #8]
			device.Endpoints[i].OutInUse = 0;
 8003aa6:	4a68      	ldr	r2, [pc, #416]	; (8003c48 <USBD_SignalDeviceEventHandler+0x218>)
 8003aa8:	68fb      	ldr	r3, [r7, #12]
 8003aaa:	212c      	movs	r1, #44	; 0x2c
 8003aac:	fb01 f303 	mul.w	r3, r1, r3
 8003ab0:	441a      	add	r2, r3
 8003ab2:	8913      	ldrh	r3, [r2, #8]
 8003ab4:	f36f 03c3 	bfc	r3, #3, #1
 8003ab8:	8113      	strh	r3, [r2, #8]
			device.Endpoints[i].IsHalted = 0;
 8003aba:	4a63      	ldr	r2, [pc, #396]	; (8003c48 <USBD_SignalDeviceEventHandler+0x218>)
 8003abc:	68fb      	ldr	r3, [r7, #12]
 8003abe:	212c      	movs	r1, #44	; 0x2c
 8003ac0:	fb01 f303 	mul.w	r3, r1, r3
 8003ac4:	441a      	add	r2, r3
 8003ac6:	7a13      	ldrb	r3, [r2, #8]
 8003ac8:	f36f 0382 	bfc	r3, #2, #1
 8003acc:	7213      	strb	r3, [r2, #8]
			if (i!=0 && device.Endpoints[i].IsConfigured) {
 8003ace:	68fb      	ldr	r3, [r7, #12]
 8003ad0:	2b00      	cmp	r3, #0
 8003ad2:	d02c      	beq.n	8003b2e <USBD_SignalDeviceEventHandler+0xfe>
 8003ad4:	4a5c      	ldr	r2, [pc, #368]	; (8003c48 <USBD_SignalDeviceEventHandler+0x218>)
 8003ad6:	68fb      	ldr	r3, [r7, #12]
 8003ad8:	212c      	movs	r1, #44	; 0x2c
 8003ada:	fb01 f303 	mul.w	r3, r1, r3
 8003ade:	4413      	add	r3, r2
 8003ae0:	7a1b      	ldrb	r3, [r3, #8]
 8003ae2:	f3c3 0300 	ubfx	r3, r3, #0, #1
 8003ae6:	b2db      	uxtb	r3, r3
 8003ae8:	2b00      	cmp	r3, #0
 8003aea:	d020      	beq.n	8003b2e <USBD_SignalDeviceEventHandler+0xfe>
				device.Driver->EndpointUnconfigure(device.Endpoints[i].Address);
 8003aec:	4b56      	ldr	r3, [pc, #344]	; (8003c48 <USBD_SignalDeviceEventHandler+0x218>)
 8003aee:	681b      	ldr	r3, [r3, #0]
 8003af0:	6a1b      	ldr	r3, [r3, #32]
 8003af2:	4955      	ldr	r1, [pc, #340]	; (8003c48 <USBD_SignalDeviceEventHandler+0x218>)
 8003af4:	68fa      	ldr	r2, [r7, #12]
 8003af6:	202c      	movs	r0, #44	; 0x2c
 8003af8:	fb00 f202 	mul.w	r2, r0, r2
 8003afc:	440a      	add	r2, r1
 8003afe:	3204      	adds	r2, #4
 8003b00:	7812      	ldrb	r2, [r2, #0]
 8003b02:	4610      	mov	r0, r2
 8003b04:	4798      	blx	r3
				device.Endpoints[i].IsConfigured = 0;
 8003b06:	4a50      	ldr	r2, [pc, #320]	; (8003c48 <USBD_SignalDeviceEventHandler+0x218>)
 8003b08:	68fb      	ldr	r3, [r7, #12]
 8003b0a:	212c      	movs	r1, #44	; 0x2c
 8003b0c:	fb01 f303 	mul.w	r3, r1, r3
 8003b10:	441a      	add	r2, r3
 8003b12:	7a13      	ldrb	r3, [r2, #8]
 8003b14:	f36f 0300 	bfc	r3, #0, #1
 8003b18:	7213      	strb	r3, [r2, #8]
				device.Endpoints[i].IsEnabled = 0;
 8003b1a:	4a4b      	ldr	r2, [pc, #300]	; (8003c48 <USBD_SignalDeviceEventHandler+0x218>)
 8003b1c:	68fb      	ldr	r3, [r7, #12]
 8003b1e:	212c      	movs	r1, #44	; 0x2c
 8003b20:	fb01 f303 	mul.w	r3, r1, r3
 8003b24:	441a      	add	r2, r3
 8003b26:	7a13      	ldrb	r3, [r2, #8]
 8003b28:	f36f 0341 	bfc	r3, #1, #1
 8003b2c:	7213      	strb	r3, [r2, #8]
		for (i=0;i<(uint8_t)XMC_USBD_NUM_EPS; i++) {
 8003b2e:	68fb      	ldr	r3, [r7, #12]
 8003b30:	3301      	adds	r3, #1
 8003b32:	60fb      	str	r3, [r7, #12]
 8003b34:	68fb      	ldr	r3, [r7, #12]
 8003b36:	2b06      	cmp	r3, #6
 8003b38:	ddab      	ble.n	8003a92 <USBD_SignalDeviceEventHandler+0x62>
			}
		}
		device.Configuration = 0;
 8003b3a:	4b43      	ldr	r3, [pc, #268]	; (8003c48 <USBD_SignalDeviceEventHandler+0x218>)
 8003b3c:	2200      	movs	r2, #0
 8003b3e:	f883 2139 	strb.w	r2, [r3, #313]	; 0x139
		for (i=0;i<NUM_INTERFACES;i++) {
 8003b42:	2300      	movs	r3, #0
 8003b44:	60fb      	str	r3, [r7, #12]
 8003b46:	e009      	b.n	8003b5c <USBD_SignalDeviceEventHandler+0x12c>
			device.InterfaceSettings[i] = 0;
 8003b48:	4a3f      	ldr	r2, [pc, #252]	; (8003c48 <USBD_SignalDeviceEventHandler+0x218>)
 8003b4a:	68fb      	ldr	r3, [r7, #12]
 8003b4c:	4413      	add	r3, r2
 8003b4e:	f503 739c 	add.w	r3, r3, #312	; 0x138
 8003b52:	2200      	movs	r2, #0
 8003b54:	701a      	strb	r2, [r3, #0]
		for (i=0;i<NUM_INTERFACES;i++) {
 8003b56:	68fb      	ldr	r3, [r7, #12]
 8003b58:	3301      	adds	r3, #1
 8003b5a:	60fb      	str	r3, [r7, #12]
 8003b5c:	68fb      	ldr	r3, [r7, #12]
 8003b5e:	2b00      	cmp	r3, #0
 8003b60:	ddf2      	ble.n	8003b48 <USBD_SignalDeviceEventHandler+0x118>
		}
		device.Driver->EndpointReadStart(device.Endpoints[0].Address,24);
 8003b62:	4b39      	ldr	r3, [pc, #228]	; (8003c48 <USBD_SignalDeviceEventHandler+0x218>)
 8003b64:	681b      	ldr	r3, [r3, #0]
 8003b66:	6a9b      	ldr	r3, [r3, #40]	; 0x28
 8003b68:	4a37      	ldr	r2, [pc, #220]	; (8003c48 <USBD_SignalDeviceEventHandler+0x218>)
 8003b6a:	7912      	ldrb	r2, [r2, #4]
 8003b6c:	2118      	movs	r1, #24
 8003b6e:	4610      	mov	r0, r2
 8003b70:	4798      	blx	r3
		break;
 8003b72:	e064      	b.n	8003c3e <USBD_SignalDeviceEventHandler+0x20e>
	case XMC_USBD_EVENT_SOF:
		EVENT_USB_Device_StartOfFrame();
 8003b74:	f002 f8fc 	bl	8005d70 <USB_Event_Stub>
		break;
 8003b78:	e061      	b.n	8003c3e <USBD_SignalDeviceEventHandler+0x20e>
	case XMC_USBD_EVENT_CONNECT:
		EVENT_USB_Device_Connect();
 8003b7a:	f7fc fd4e 	bl	800061a <EVENT_USB_Device_Connect>
		break;
 8003b7e:	e05e      	b.n	8003c3e <USBD_SignalDeviceEventHandler+0x20e>
	case XMC_USBD_EVENT_DISCONNECT:
		USB_DeviceState = DEVICE_STATE_Powered;
 8003b80:	4b30      	ldr	r3, [pc, #192]	; (8003c44 <USBD_SignalDeviceEventHandler+0x214>)
 8003b82:	2201      	movs	r2, #1
 8003b84:	701a      	strb	r2, [r3, #0]
		EVENT_USB_Device_Disconnect();
 8003b86:	f002 f8f3 	bl	8005d70 <USB_Event_Stub>
		break;
 8003b8a:	e058      	b.n	8003c3e <USBD_SignalDeviceEventHandler+0x20e>
	case XMC_USBD_EVENT_POWER_OFF:
		 USB_DeviceState = DEVICE_STATE_Unattached;
 8003b8c:	4b2d      	ldr	r3, [pc, #180]	; (8003c44 <USBD_SignalDeviceEventHandler+0x214>)
 8003b8e:	2200      	movs	r2, #0
 8003b90:	701a      	strb	r2, [r3, #0]
		 device.Driver->EndpointUnconfigure(0);
 8003b92:	4b2d      	ldr	r3, [pc, #180]	; (8003c48 <USBD_SignalDeviceEventHandler+0x218>)
 8003b94:	681b      	ldr	r3, [r3, #0]
 8003b96:	6a1b      	ldr	r3, [r3, #32]
 8003b98:	2000      	movs	r0, #0
 8003b9a:	4798      	blx	r3
		 break;
 8003b9c:	e04f      	b.n	8003c3e <USBD_SignalDeviceEventHandler+0x20e>
    case XMC_USBD_EVENT_POWER_ON:
		 USB_DeviceState = DEVICE_STATE_Powered;
 8003b9e:	4b29      	ldr	r3, [pc, #164]	; (8003c44 <USBD_SignalDeviceEventHandler+0x214>)
 8003ba0:	2201      	movs	r2, #1
 8003ba2:	701a      	strb	r2, [r3, #0]
		 memset(&device,0x0,sizeof(USB_Device_t));
 8003ba4:	f44f 72a0 	mov.w	r2, #320	; 0x140
 8003ba8:	2100      	movs	r1, #0
 8003baa:	4827      	ldr	r0, [pc, #156]	; (8003c48 <USBD_SignalDeviceEventHandler+0x218>)
 8003bac:	f002 fbf6 	bl	800639c <memset>
		 device.Driver = &Driver_USBD0;
 8003bb0:	4b25      	ldr	r3, [pc, #148]	; (8003c48 <USBD_SignalDeviceEventHandler+0x218>)
 8003bb2:	4a26      	ldr	r2, [pc, #152]	; (8003c4c <USBD_SignalDeviceEventHandler+0x21c>)
 8003bb4:	601a      	str	r2, [r3, #0]
		 device.EP0_State = IDLE;
 8003bb6:	4b24      	ldr	r3, [pc, #144]	; (8003c48 <USBD_SignalDeviceEventHandler+0x218>)
 8003bb8:	2201      	movs	r2, #1
 8003bba:	f883 213b 	strb.w	r2, [r3, #315]	; 0x13b
		 device.Endpoints[0].InBuffer = endpoint0_in_buffer;
 8003bbe:	4b22      	ldr	r3, [pc, #136]	; (8003c48 <USBD_SignalDeviceEventHandler+0x218>)
 8003bc0:	4a23      	ldr	r2, [pc, #140]	; (8003c50 <USBD_SignalDeviceEventHandler+0x220>)
 8003bc2:	621a      	str	r2, [r3, #32]
		 device.Endpoints[0].InBufferLength = 256;
 8003bc4:	4b20      	ldr	r3, [pc, #128]	; (8003c48 <USBD_SignalDeviceEventHandler+0x218>)
 8003bc6:	f44f 7280 	mov.w	r2, #256	; 0x100
 8003bca:	625a      	str	r2, [r3, #36]	; 0x24
		 device.Endpoints[0].OutBuffer = endpoint0_out_buffer;
 8003bcc:	4b1e      	ldr	r3, [pc, #120]	; (8003c48 <USBD_SignalDeviceEventHandler+0x218>)
 8003bce:	4a21      	ldr	r2, [pc, #132]	; (8003c54 <USBD_SignalDeviceEventHandler+0x224>)
 8003bd0:	615a      	str	r2, [r3, #20]
		 device.Endpoints[0].OutBufferLength = 256;
 8003bd2:	4b1d      	ldr	r3, [pc, #116]	; (8003c48 <USBD_SignalDeviceEventHandler+0x218>)
 8003bd4:	f44f 7280 	mov.w	r2, #256	; 0x100
 8003bd8:	619a      	str	r2, [r3, #24]
		 device.Endpoints[0].Direction = 0;
 8003bda:	4a1b      	ldr	r2, [pc, #108]	; (8003c48 <USBD_SignalDeviceEventHandler+0x218>)
 8003bdc:	7913      	ldrb	r3, [r2, #4]
 8003bde:	f36f 13c7 	bfc	r3, #7, #1
 8003be2:	7113      	strb	r3, [r2, #4]
		 device.Endpoints[0].IsConfigured = 1;
 8003be4:	4a18      	ldr	r2, [pc, #96]	; (8003c48 <USBD_SignalDeviceEventHandler+0x218>)
 8003be6:	7a13      	ldrb	r3, [r2, #8]
 8003be8:	f043 0301 	orr.w	r3, r3, #1
 8003bec:	7213      	strb	r3, [r2, #8]
		 device.Endpoints[0].IsEnabled = 1;
 8003bee:	4a16      	ldr	r2, [pc, #88]	; (8003c48 <USBD_SignalDeviceEventHandler+0x218>)
 8003bf0:	7a13      	ldrb	r3, [r2, #8]
 8003bf2:	f043 0302 	orr.w	r3, r3, #2
 8003bf6:	7213      	strb	r3, [r2, #8]
		 device.Endpoints[0].MaxPacketSize = 64;
 8003bf8:	4a13      	ldr	r2, [pc, #76]	; (8003c48 <USBD_SignalDeviceEventHandler+0x218>)
 8003bfa:	8913      	ldrh	r3, [r2, #8]
 8003bfc:	2140      	movs	r1, #64	; 0x40
 8003bfe:	f361 138c 	bfi	r3, r1, #6, #7
 8003c02:	8113      	strh	r3, [r2, #8]

		  /* then configure endpoint 0 */
		 device.Driver->EndpointConfigure(0,XMC_USBD_ENDPOINT_TYPE_CONTROL,
 8003c04:	4b10      	ldr	r3, [pc, #64]	; (8003c48 <USBD_SignalDeviceEventHandler+0x218>)
 8003c06:	681b      	ldr	r3, [r3, #0]
 8003c08:	69db      	ldr	r3, [r3, #28]
 8003c0a:	2240      	movs	r2, #64	; 0x40
 8003c0c:	2100      	movs	r1, #0
 8003c0e:	2000      	movs	r0, #0
 8003c10:	4798      	blx	r3
					   (uint8_t)XMC_USBD_MAX_PACKET_SIZE);

		break;
 8003c12:	e014      	b.n	8003c3e <USBD_SignalDeviceEventHandler+0x20e>
	case XMC_USBD_EVENT_REMOTE_WAKEUP:
		break;
	case XMC_USBD_EVENT_RESUME:
		USB_DeviceState = device.PreSuspendDeviceState;
 8003c14:	4b0c      	ldr	r3, [pc, #48]	; (8003c48 <USBD_SignalDeviceEventHandler+0x218>)
 8003c16:	f893 213a 	ldrb.w	r2, [r3, #314]	; 0x13a
 8003c1a:	4b0a      	ldr	r3, [pc, #40]	; (8003c44 <USBD_SignalDeviceEventHandler+0x214>)
 8003c1c:	701a      	strb	r2, [r3, #0]
		EVENT_USB_Device_WakeUp();
 8003c1e:	f002 f8a7 	bl	8005d70 <USB_Event_Stub>
		break;
 8003c22:	e00c      	b.n	8003c3e <USBD_SignalDeviceEventHandler+0x20e>
	case XMC_USBD_EVENT_SUSPEND:
		device.PreSuspendDeviceState = USB_DeviceState;
 8003c24:	4b07      	ldr	r3, [pc, #28]	; (8003c44 <USBD_SignalDeviceEventHandler+0x214>)
 8003c26:	781b      	ldrb	r3, [r3, #0]
 8003c28:	b2da      	uxtb	r2, r3
 8003c2a:	4b07      	ldr	r3, [pc, #28]	; (8003c48 <USBD_SignalDeviceEventHandler+0x218>)
 8003c2c:	f883 213a 	strb.w	r2, [r3, #314]	; 0x13a
		USB_DeviceState = DEVICE_STATE_Suspended;
 8003c30:	4b04      	ldr	r3, [pc, #16]	; (8003c44 <USBD_SignalDeviceEventHandler+0x214>)
 8003c32:	2205      	movs	r2, #5
 8003c34:	701a      	strb	r2, [r3, #0]
		EVENT_USB_Device_Suspend();
 8003c36:	f002 f89b 	bl	8005d70 <USB_Event_Stub>
		break;
 8003c3a:	e000      	b.n	8003c3e <USBD_SignalDeviceEventHandler+0x20e>
	default:
		return;
 8003c3c:	bf00      	nop
	}
}
 8003c3e:	3710      	adds	r7, #16
 8003c40:	46bd      	mov	sp, r7
 8003c42:	bd80      	pop	{r7, pc}
 8003c44:	20000a88 	.word	0x20000a88
 8003c48:	200004f8 	.word	0x200004f8
 8003c4c:	08006574 	.word	0x08006574
 8003c50:	20000638 	.word	0x20000638
 8003c54:	20000738 	.word	0x20000738

08003c58 <USBD_SignalEndpointEvent_Handler>:
 *
 * \param[in] ep_addr Endpoint address
 * \param[in] ep_event Endpoint event type
 *
 */
void USBD_SignalEndpointEvent_Handler (uint8_t ep_addr, XMC_USBD_EP_EVENT_t ep_event) {
 8003c58:	b580      	push	{r7, lr}
 8003c5a:	b086      	sub	sp, #24
 8003c5c:	af00      	add	r7, sp, #0
 8003c5e:	4603      	mov	r3, r0
 8003c60:	460a      	mov	r2, r1
 8003c62:	71fb      	strb	r3, [r7, #7]
 8003c64:	4613      	mov	r3, r2
 8003c66:	71bb      	strb	r3, [r7, #6]
	USBD_Endpoint_t *ep =  &device.Endpoints[ep_addr & ENDPOINT_EPNUM_MASK];
 8003c68:	79fb      	ldrb	r3, [r7, #7]
 8003c6a:	f003 030f 	and.w	r3, r3, #15
 8003c6e:	222c      	movs	r2, #44	; 0x2c
 8003c70:	fb02 f303 	mul.w	r3, r2, r3
 8003c74:	4a5e      	ldr	r2, [pc, #376]	; (8003df0 <USBD_SignalEndpointEvent_Handler+0x198>)
 8003c76:	4413      	add	r3, r2
 8003c78:	3304      	adds	r3, #4
 8003c7a:	617b      	str	r3, [r7, #20]
	uint8_t temp_num,temp_dir;
	int32_t data_count;
	/* store CurrentEndpoint and direction for restore after handling */
	temp_num = device.CurrentEndpoint;
 8003c7c:	4b5c      	ldr	r3, [pc, #368]	; (8003df0 <USBD_SignalEndpointEvent_Handler+0x198>)
 8003c7e:	f893 313c 	ldrb.w	r3, [r3, #316]	; 0x13c
 8003c82:	74fb      	strb	r3, [r7, #19]
	temp_dir = device.CurrentDirection;
 8003c84:	4b5a      	ldr	r3, [pc, #360]	; (8003df0 <USBD_SignalEndpointEvent_Handler+0x198>)
 8003c86:	f893 313d 	ldrb.w	r3, [r3, #317]	; 0x13d
 8003c8a:	74bb      	strb	r3, [r7, #18]
	/* select the given endpoint */
	device.CurrentEndpoint = ep_addr & ENDPOINT_EPNUM_MASK;
 8003c8c:	79fb      	ldrb	r3, [r7, #7]
 8003c8e:	f003 030f 	and.w	r3, r3, #15
 8003c92:	b2da      	uxtb	r2, r3
 8003c94:	4b56      	ldr	r3, [pc, #344]	; (8003df0 <USBD_SignalEndpointEvent_Handler+0x198>)
 8003c96:	f883 213c 	strb.w	r2, [r3, #316]	; 0x13c
	device.CurrentDirection = ep_addr & ENDPOINT_DIR_MASK;
 8003c9a:	79fb      	ldrb	r3, [r7, #7]
 8003c9c:	f023 037f 	bic.w	r3, r3, #127	; 0x7f
 8003ca0:	b2da      	uxtb	r2, r3
 8003ca2:	4b53      	ldr	r3, [pc, #332]	; (8003df0 <USBD_SignalEndpointEvent_Handler+0x198>)
 8003ca4:	f883 213d 	strb.w	r2, [r3, #317]	; 0x13d
	/* choose what to do based on the event */
	switch (ep_event) {
 8003ca8:	79bb      	ldrb	r3, [r7, #6]
 8003caa:	2b02      	cmp	r3, #2
 8003cac:	d03f      	beq.n	8003d2e <USBD_SignalEndpointEvent_Handler+0xd6>
 8003cae:	2b02      	cmp	r3, #2
 8003cb0:	f300 8093 	bgt.w	8003dda <USBD_SignalEndpointEvent_Handler+0x182>
 8003cb4:	2b00      	cmp	r3, #0
 8003cb6:	d002      	beq.n	8003cbe <USBD_SignalEndpointEvent_Handler+0x66>
 8003cb8:	2b01      	cmp	r3, #1
 8003cba:	d00f      	beq.n	8003cdc <USBD_SignalEndpointEvent_Handler+0x84>
 8003cbc:	e08d      	b.n	8003dda <USBD_SignalEndpointEvent_Handler+0x182>
	case XMC_USBD_EP_EVENT_SETUP:
		ep->OutInUse = 0;
 8003cbe:	697a      	ldr	r2, [r7, #20]
 8003cc0:	8893      	ldrh	r3, [r2, #4]
 8003cc2:	f36f 03c3 	bfc	r3, #3, #1
 8003cc6:	8093      	strh	r3, [r2, #4]
		switch(device.CurrentEndpoint) {
 8003cc8:	4b49      	ldr	r3, [pc, #292]	; (8003df0 <USBD_SignalEndpointEvent_Handler+0x198>)
 8003cca:	f893 313c 	ldrb.w	r3, [r3, #316]	; 0x13c
 8003cce:	2b00      	cmp	r3, #0
 8003cd0:	d102      	bne.n	8003cd8 <USBD_SignalEndpointEvent_Handler+0x80>
		case 0:
			USBD_HandleEP0_SETUP();
 8003cd2:	f7ff fe63 	bl	800399c <USBD_HandleEP0_SETUP>
			break;
 8003cd6:	e000      	b.n	8003cda <USBD_SignalEndpointEvent_Handler+0x82>
		default:
			break;
 8003cd8:	bf00      	nop
		}
		break;
 8003cda:	e07e      	b.n	8003dda <USBD_SignalEndpointEvent_Handler+0x182>
	case XMC_USBD_EP_EVENT_OUT:
		ep->IsOutRecieved = 1;
 8003cdc:	697a      	ldr	r2, [r7, #20]
 8003cde:	8893      	ldrh	r3, [r2, #4]
 8003ce0:	f043 0320 	orr.w	r3, r3, #32
 8003ce4:	8093      	strh	r3, [r2, #4]
		if (ep->OutBytesAvailable == 0) {
 8003ce6:	697b      	ldr	r3, [r7, #20]
 8003ce8:	689b      	ldr	r3, [r3, #8]
 8003cea:	2b00      	cmp	r3, #0
 8003cec:	d110      	bne.n	8003d10 <USBD_SignalEndpointEvent_Handler+0xb8>
			ep->OutOffset = 0; /* clear offset, new data is there */
 8003cee:	697b      	ldr	r3, [r7, #20]
 8003cf0:	2200      	movs	r2, #0
 8003cf2:	60da      	str	r2, [r3, #12]
			ep->OutBytesAvailable = device.Driver->EndpointRead(ep->Address,ep->OutBuffer,ep->OutBufferLength);
 8003cf4:	4b3e      	ldr	r3, [pc, #248]	; (8003df0 <USBD_SignalEndpointEvent_Handler+0x198>)
 8003cf6:	681b      	ldr	r3, [r3, #0]
 8003cf8:	6adb      	ldr	r3, [r3, #44]	; 0x2c
 8003cfa:	697a      	ldr	r2, [r7, #20]
 8003cfc:	7810      	ldrb	r0, [r2, #0]
 8003cfe:	697a      	ldr	r2, [r7, #20]
 8003d00:	6911      	ldr	r1, [r2, #16]
 8003d02:	697a      	ldr	r2, [r7, #20]
 8003d04:	6952      	ldr	r2, [r2, #20]
 8003d06:	4798      	blx	r3
 8003d08:	4603      	mov	r3, r0
 8003d0a:	461a      	mov	r2, r3
 8003d0c:	697b      	ldr	r3, [r7, #20]
 8003d0e:	609a      	str	r2, [r3, #8]
		}
		ep->OutInUse = 0;
 8003d10:	697a      	ldr	r2, [r7, #20]
 8003d12:	8893      	ldrh	r3, [r2, #4]
 8003d14:	f36f 03c3 	bfc	r3, #3, #1
 8003d18:	8093      	strh	r3, [r2, #4]
		switch(device.CurrentEndpoint) {
 8003d1a:	4b35      	ldr	r3, [pc, #212]	; (8003df0 <USBD_SignalEndpointEvent_Handler+0x198>)
 8003d1c:	f893 313c 	ldrb.w	r3, [r3, #316]	; 0x13c
 8003d20:	2b00      	cmp	r3, #0
 8003d22:	d102      	bne.n	8003d2a <USBD_SignalEndpointEvent_Handler+0xd2>
		case 0:
			USBD_HandleEP0_OUT();
 8003d24:	f7ff fe10 	bl	8003948 <USBD_HandleEP0_OUT>
			break;
 8003d28:	e000      	b.n	8003d2c <USBD_SignalEndpointEvent_Handler+0xd4>
		default:
			break;
 8003d2a:	bf00      	nop
		}
		break;
 8003d2c:	e055      	b.n	8003dda <USBD_SignalEndpointEvent_Handler+0x182>
	case XMC_USBD_EP_EVENT_IN:
		/* loop write transfers */
		if (ep->InDataLeft> 0) {
 8003d2e:	697b      	ldr	r3, [r7, #20]
 8003d30:	6a5b      	ldr	r3, [r3, #36]	; 0x24
 8003d32:	2b00      	cmp	r3, #0
 8003d34:	d017      	beq.n	8003d66 <USBD_SignalEndpointEvent_Handler+0x10e>
			data_count = device.Driver->EndpointWrite(ep->Address,ep->InDataBuffer,ep->InDataLeft);
 8003d36:	4b2e      	ldr	r3, [pc, #184]	; (8003df0 <USBD_SignalEndpointEvent_Handler+0x198>)
 8003d38:	681b      	ldr	r3, [r3, #0]
 8003d3a:	6b1b      	ldr	r3, [r3, #48]	; 0x30
 8003d3c:	697a      	ldr	r2, [r7, #20]
 8003d3e:	7810      	ldrb	r0, [r2, #0]
 8003d40:	697a      	ldr	r2, [r7, #20]
 8003d42:	6a91      	ldr	r1, [r2, #40]	; 0x28
 8003d44:	697a      	ldr	r2, [r7, #20]
 8003d46:	6a52      	ldr	r2, [r2, #36]	; 0x24
 8003d48:	4798      	blx	r3
 8003d4a:	60f8      	str	r0, [r7, #12]
			ep->InDataLeft -= data_count;
 8003d4c:	697b      	ldr	r3, [r7, #20]
 8003d4e:	6a5a      	ldr	r2, [r3, #36]	; 0x24
 8003d50:	68fb      	ldr	r3, [r7, #12]
 8003d52:	1ad2      	subs	r2, r2, r3
 8003d54:	697b      	ldr	r3, [r7, #20]
 8003d56:	625a      	str	r2, [r3, #36]	; 0x24
			ep->InDataBuffer+= data_count;
 8003d58:	697b      	ldr	r3, [r7, #20]
 8003d5a:	6a9a      	ldr	r2, [r3, #40]	; 0x28
 8003d5c:	68fb      	ldr	r3, [r7, #12]
 8003d5e:	441a      	add	r2, r3
 8003d60:	697b      	ldr	r3, [r7, #20]
 8003d62:	629a      	str	r2, [r3, #40]	; 0x28
			return;
 8003d64:	e041      	b.n	8003dea <USBD_SignalEndpointEvent_Handler+0x192>
		} else if (ep->Number == 0 && ep->InBytesAvailable > 0 && ep->InBytesAvailable!=USB_ControlRequest.wLength && ep->InBytesAvailable % ep->MaxPacketSize == 0) {
 8003d66:	697b      	ldr	r3, [r7, #20]
 8003d68:	781b      	ldrb	r3, [r3, #0]
 8003d6a:	f003 030f 	and.w	r3, r3, #15
 8003d6e:	b2db      	uxtb	r3, r3
 8003d70:	2b00      	cmp	r3, #0
 8003d72:	d120      	bne.n	8003db6 <USBD_SignalEndpointEvent_Handler+0x15e>
 8003d74:	697b      	ldr	r3, [r7, #20]
 8003d76:	699b      	ldr	r3, [r3, #24]
 8003d78:	2b00      	cmp	r3, #0
 8003d7a:	d01c      	beq.n	8003db6 <USBD_SignalEndpointEvent_Handler+0x15e>
 8003d7c:	697b      	ldr	r3, [r7, #20]
 8003d7e:	699b      	ldr	r3, [r3, #24]
 8003d80:	4a1c      	ldr	r2, [pc, #112]	; (8003df4 <USBD_SignalEndpointEvent_Handler+0x19c>)
 8003d82:	88d2      	ldrh	r2, [r2, #6]
 8003d84:	b292      	uxth	r2, r2
 8003d86:	4293      	cmp	r3, r2
 8003d88:	d015      	beq.n	8003db6 <USBD_SignalEndpointEvent_Handler+0x15e>
 8003d8a:	697b      	ldr	r3, [r7, #20]
 8003d8c:	699b      	ldr	r3, [r3, #24]
 8003d8e:	697a      	ldr	r2, [r7, #20]
 8003d90:	8892      	ldrh	r2, [r2, #4]
 8003d92:	f3c2 1286 	ubfx	r2, r2, #6, #7
 8003d96:	b2d2      	uxtb	r2, r2
 8003d98:	fbb3 f1f2 	udiv	r1, r3, r2
 8003d9c:	fb01 f202 	mul.w	r2, r1, r2
 8003da0:	1a9b      	subs	r3, r3, r2
 8003da2:	2b00      	cmp	r3, #0
 8003da4:	d107      	bne.n	8003db6 <USBD_SignalEndpointEvent_Handler+0x15e>
			/* if the amount of data for endpoint 0 is exact the requested amount, then no zlp has to be send */
			device.Driver->EndpointWrite(ep->Address,0,0);
 8003da6:	4b12      	ldr	r3, [pc, #72]	; (8003df0 <USBD_SignalEndpointEvent_Handler+0x198>)
 8003da8:	681b      	ldr	r3, [r3, #0]
 8003daa:	6b1b      	ldr	r3, [r3, #48]	; 0x30
 8003dac:	697a      	ldr	r2, [r7, #20]
 8003dae:	7810      	ldrb	r0, [r2, #0]
 8003db0:	2200      	movs	r2, #0
 8003db2:	2100      	movs	r1, #0
 8003db4:	4798      	blx	r3
		}
		ep->InBytesAvailable = 0;
 8003db6:	697b      	ldr	r3, [r7, #20]
 8003db8:	2200      	movs	r2, #0
 8003dba:	619a      	str	r2, [r3, #24]
		ep->InInUse = 0;
 8003dbc:	697a      	ldr	r2, [r7, #20]
 8003dbe:	8893      	ldrh	r3, [r2, #4]
 8003dc0:	f36f 1304 	bfc	r3, #4, #1
 8003dc4:	8093      	strh	r3, [r2, #4]
		switch(device.CurrentEndpoint) {
 8003dc6:	4b0a      	ldr	r3, [pc, #40]	; (8003df0 <USBD_SignalEndpointEvent_Handler+0x198>)
 8003dc8:	f893 313c 	ldrb.w	r3, [r3, #316]	; 0x13c
 8003dcc:	2b00      	cmp	r3, #0
 8003dce:	d102      	bne.n	8003dd6 <USBD_SignalEndpointEvent_Handler+0x17e>
		case 0:
			USBD_HandleEP0_IN();
 8003dd0:	f7ff fd94 	bl	80038fc <USBD_HandleEP0_IN>
			break;
 8003dd4:	e000      	b.n	8003dd8 <USBD_SignalEndpointEvent_Handler+0x180>
		default:
			break;
 8003dd6:	bf00      	nop
		}
		break;
 8003dd8:	bf00      	nop
	}
	device.CurrentEndpoint = temp_num;
 8003dda:	4a05      	ldr	r2, [pc, #20]	; (8003df0 <USBD_SignalEndpointEvent_Handler+0x198>)
 8003ddc:	7cfb      	ldrb	r3, [r7, #19]
 8003dde:	f882 313c 	strb.w	r3, [r2, #316]	; 0x13c
	device.CurrentDirection = temp_dir;
 8003de2:	4a03      	ldr	r2, [pc, #12]	; (8003df0 <USBD_SignalEndpointEvent_Handler+0x198>)
 8003de4:	7cbb      	ldrb	r3, [r7, #18]
 8003de6:	f882 313d 	strb.w	r3, [r2, #317]	; 0x13d
}
 8003dea:	3718      	adds	r7, #24
 8003dec:	46bd      	mov	sp, r7
 8003dee:	bd80      	pop	{r7, pc}
 8003df0:	200004f8 	.word	0x200004f8
 8003df4:	20000a80 	.word	0x20000a80

08003df8 <USBD_Initialize>:
 * \brief Initialize driver core and driver
 *
 * Intializes the USB driver core data structures and sets it into default state. Afterwards
 * it initializes the USB device controller driver and prepare it for connection via \ref USBD_Connect.
 */
int USBD_Initialize(XMC_USBD_t *usb_init) {
 8003df8:	b580      	push	{r7, lr}
 8003dfa:	b084      	sub	sp, #16
 8003dfc:	af00      	add	r7, sp, #0
 8003dfe:	6078      	str	r0, [r7, #4]
	int32_t status = 0;
 8003e00:	2300      	movs	r3, #0
 8003e02:	60fb      	str	r3, [r7, #12]
	memset(&device,0x0,sizeof(USB_Device_t));
 8003e04:	f44f 72a0 	mov.w	r2, #320	; 0x140
 8003e08:	2100      	movs	r1, #0
 8003e0a:	4829      	ldr	r0, [pc, #164]	; (8003eb0 <USBD_Initialize+0xb8>)
 8003e0c:	f002 fac6 	bl	800639c <memset>
	USB_DeviceState = DEVICE_STATE_Unattached;
 8003e10:	4b28      	ldr	r3, [pc, #160]	; (8003eb4 <USBD_Initialize+0xbc>)
 8003e12:	2200      	movs	r2, #0
 8003e14:	701a      	strb	r2, [r3, #0]
	device.Driver = &Driver_USBD0;
 8003e16:	4b26      	ldr	r3, [pc, #152]	; (8003eb0 <USBD_Initialize+0xb8>)
 8003e18:	4a27      	ldr	r2, [pc, #156]	; (8003eb8 <USBD_Initialize+0xc0>)
 8003e1a:	601a      	str	r2, [r3, #0]
	device.EP0_State = IDLE;
 8003e1c:	4b24      	ldr	r3, [pc, #144]	; (8003eb0 <USBD_Initialize+0xb8>)
 8003e1e:	2201      	movs	r2, #1
 8003e20:	f883 213b 	strb.w	r2, [r3, #315]	; 0x13b
	device.Endpoints[0].InBuffer = endpoint0_in_buffer;
 8003e24:	4b22      	ldr	r3, [pc, #136]	; (8003eb0 <USBD_Initialize+0xb8>)
 8003e26:	4a25      	ldr	r2, [pc, #148]	; (8003ebc <USBD_Initialize+0xc4>)
 8003e28:	621a      	str	r2, [r3, #32]
	device.Endpoints[0].InBufferLength = 256;
 8003e2a:	4b21      	ldr	r3, [pc, #132]	; (8003eb0 <USBD_Initialize+0xb8>)
 8003e2c:	f44f 7280 	mov.w	r2, #256	; 0x100
 8003e30:	625a      	str	r2, [r3, #36]	; 0x24
	device.Endpoints[0].OutBuffer = endpoint0_out_buffer;
 8003e32:	4b1f      	ldr	r3, [pc, #124]	; (8003eb0 <USBD_Initialize+0xb8>)
 8003e34:	4a22      	ldr	r2, [pc, #136]	; (8003ec0 <USBD_Initialize+0xc8>)
 8003e36:	615a      	str	r2, [r3, #20]
	device.Endpoints[0].OutBufferLength = 256;
 8003e38:	4b1d      	ldr	r3, [pc, #116]	; (8003eb0 <USBD_Initialize+0xb8>)
 8003e3a:	f44f 7280 	mov.w	r2, #256	; 0x100
 8003e3e:	619a      	str	r2, [r3, #24]
	device.Endpoints[0].Direction = 0;
 8003e40:	4a1b      	ldr	r2, [pc, #108]	; (8003eb0 <USBD_Initialize+0xb8>)
 8003e42:	7913      	ldrb	r3, [r2, #4]
 8003e44:	f36f 13c7 	bfc	r3, #7, #1
 8003e48:	7113      	strb	r3, [r2, #4]
	device.Endpoints[0].IsConfigured = 1;
 8003e4a:	4a19      	ldr	r2, [pc, #100]	; (8003eb0 <USBD_Initialize+0xb8>)
 8003e4c:	7a13      	ldrb	r3, [r2, #8]
 8003e4e:	f043 0301 	orr.w	r3, r3, #1
 8003e52:	7213      	strb	r3, [r2, #8]
	device.Endpoints[0].IsEnabled = 1;
 8003e54:	4a16      	ldr	r2, [pc, #88]	; (8003eb0 <USBD_Initialize+0xb8>)
 8003e56:	7a13      	ldrb	r3, [r2, #8]
 8003e58:	f043 0302 	orr.w	r3, r3, #2
 8003e5c:	7213      	strb	r3, [r2, #8]
	device.Endpoints[0].MaxPacketSize = 64;
 8003e5e:	4a14      	ldr	r2, [pc, #80]	; (8003eb0 <USBD_Initialize+0xb8>)
 8003e60:	8913      	ldrh	r3, [r2, #8]
 8003e62:	2140      	movs	r1, #64	; 0x40
 8003e64:	f361 138c 	bfi	r3, r1, #6, #7
 8003e68:	8113      	strh	r3, [r2, #8]

	/* First initalize the device */
	status = device.Driver->Initialize(usb_init);
 8003e6a:	4b11      	ldr	r3, [pc, #68]	; (8003eb0 <USBD_Initialize+0xb8>)
 8003e6c:	681b      	ldr	r3, [r3, #0]
 8003e6e:	685b      	ldr	r3, [r3, #4]
 8003e70:	6878      	ldr	r0, [r7, #4]
 8003e72:	4798      	blx	r3
 8003e74:	4603      	mov	r3, r0
 8003e76:	60fb      	str	r3, [r7, #12]
	if (status != XMC_USBD_STATUS_OK)
 8003e78:	68fb      	ldr	r3, [r7, #12]
 8003e7a:	2b00      	cmp	r3, #0
 8003e7c:	d002      	beq.n	8003e84 <USBD_Initialize+0x8c>
		return -1;
 8003e7e:	f04f 33ff 	mov.w	r3, #4294967295	; 0xffffffff
 8003e82:	e011      	b.n	8003ea8 <USBD_Initialize+0xb0>

	/* then configure endpoint 0 */
	device.Driver->EndpointConfigure(0,XMC_USBD_ENDPOINT_TYPE_CONTROL,
 8003e84:	4b0a      	ldr	r3, [pc, #40]	; (8003eb0 <USBD_Initialize+0xb8>)
 8003e86:	681b      	ldr	r3, [r3, #0]
 8003e88:	69db      	ldr	r3, [r3, #28]
 8003e8a:	2240      	movs	r2, #64	; 0x40
 8003e8c:	2100      	movs	r1, #0
 8003e8e:	2000      	movs	r0, #0
 8003e90:	4798      	blx	r3
			(uint8_t)XMC_USBD_MAX_PACKET_SIZE);
	if (status != XMC_USBD_STATUS_OK) {
 8003e92:	68fb      	ldr	r3, [r7, #12]
 8003e94:	2b00      	cmp	r3, #0
 8003e96:	d006      	beq.n	8003ea6 <USBD_Initialize+0xae>
		device.Driver->Uninitialize();
 8003e98:	4b05      	ldr	r3, [pc, #20]	; (8003eb0 <USBD_Initialize+0xb8>)
 8003e9a:	681b      	ldr	r3, [r3, #0]
 8003e9c:	689b      	ldr	r3, [r3, #8]
 8003e9e:	4798      	blx	r3
		return -1;
 8003ea0:	f04f 33ff 	mov.w	r3, #4294967295	; 0xffffffff
 8003ea4:	e000      	b.n	8003ea8 <USBD_Initialize+0xb0>
	}

	return 0;
 8003ea6:	2300      	movs	r3, #0
}
 8003ea8:	4618      	mov	r0, r3
 8003eaa:	3710      	adds	r7, #16
 8003eac:	46bd      	mov	sp, r7
 8003eae:	bd80      	pop	{r7, pc}
 8003eb0:	200004f8 	.word	0x200004f8
 8003eb4:	20000a88 	.word	0x20000a88
 8003eb8:	08006574 	.word	0x08006574
 8003ebc:	20000638 	.word	0x20000638
 8003ec0:	20000738 	.word	0x20000738

08003ec4 <USB_IsEnumDone>:
/**
 * \brief Is the enumeration finished?
 *
 * Tell the USB device controller driver if the enumeration interrupt have been reached
 */
int USB_IsEnumDone(void){
 8003ec4:	b580      	push	{r7, lr}
 8003ec6:	af00      	add	r7, sp, #0
	if (device.Driver->IsEnumDone())
 8003ec8:	4b05      	ldr	r3, [pc, #20]	; (8003ee0 <USB_IsEnumDone+0x1c>)
 8003eca:	681b      	ldr	r3, [r3, #0]
 8003ecc:	6bdb      	ldr	r3, [r3, #60]	; 0x3c
 8003ece:	4798      	blx	r3
 8003ed0:	4603      	mov	r3, r0
 8003ed2:	2b00      	cmp	r3, #0
 8003ed4:	d001      	beq.n	8003eda <USB_IsEnumDone+0x16>
		return 1;
 8003ed6:	2301      	movs	r3, #1
 8003ed8:	e000      	b.n	8003edc <USB_IsEnumDone+0x18>
	else
		return 0;
 8003eda:	2300      	movs	r3, #0
 }
 8003edc:	4618      	mov	r0, r3
 8003ede:	bd80      	pop	{r7, pc}
 8003ee0:	200004f8 	.word	0x200004f8

08003ee4 <USBD_SetEndpointBuffer>:
 *
 * \param[in] addr Endpoint address
 * \param[in] buf Buffer pointer
 * \param[in] len Buffer length
 */
void USBD_SetEndpointBuffer(uint8_t addr,uint8_t *buf,uint16_t len) {
 8003ee4:	b480      	push	{r7}
 8003ee6:	b085      	sub	sp, #20
 8003ee8:	af00      	add	r7, sp, #0
 8003eea:	4603      	mov	r3, r0
 8003eec:	6039      	str	r1, [r7, #0]
 8003eee:	71fb      	strb	r3, [r7, #7]
 8003ef0:	4613      	mov	r3, r2
 8003ef2:	80bb      	strh	r3, [r7, #4]
	uint8_t number  = addr & ENDPOINT_EPNUM_MASK;
 8003ef4:	79fb      	ldrb	r3, [r7, #7]
 8003ef6:	f003 030f 	and.w	r3, r3, #15
 8003efa:	73fb      	strb	r3, [r7, #15]
	if (addr & ENDPOINT_DIR_MASK) {
 8003efc:	f997 3007 	ldrsb.w	r3, [r7, #7]
 8003f00:	2b00      	cmp	r3, #0
 8003f02:	da12      	bge.n	8003f2a <USBD_SetEndpointBuffer+0x46>
		device.Endpoints[number].InBuffer = buf;
 8003f04:	7bfb      	ldrb	r3, [r7, #15]
 8003f06:	4a15      	ldr	r2, [pc, #84]	; (8003f5c <USBD_SetEndpointBuffer+0x78>)
 8003f08:	212c      	movs	r1, #44	; 0x2c
 8003f0a:	fb01 f303 	mul.w	r3, r1, r3
 8003f0e:	4413      	add	r3, r2
 8003f10:	3320      	adds	r3, #32
 8003f12:	683a      	ldr	r2, [r7, #0]
 8003f14:	601a      	str	r2, [r3, #0]
		device.Endpoints[number].InBufferLength = len;
 8003f16:	7bfb      	ldrb	r3, [r7, #15]
 8003f18:	88ba      	ldrh	r2, [r7, #4]
 8003f1a:	4910      	ldr	r1, [pc, #64]	; (8003f5c <USBD_SetEndpointBuffer+0x78>)
 8003f1c:	202c      	movs	r0, #44	; 0x2c
 8003f1e:	fb00 f303 	mul.w	r3, r0, r3
 8003f22:	440b      	add	r3, r1
 8003f24:	3324      	adds	r3, #36	; 0x24
 8003f26:	601a      	str	r2, [r3, #0]
	} else {
		device.Endpoints[number].OutBuffer = buf;
		device.Endpoints[number].OutBufferLength = len;
	}
}
 8003f28:	e011      	b.n	8003f4e <USBD_SetEndpointBuffer+0x6a>
		device.Endpoints[number].OutBuffer = buf;
 8003f2a:	7bfb      	ldrb	r3, [r7, #15]
 8003f2c:	4a0b      	ldr	r2, [pc, #44]	; (8003f5c <USBD_SetEndpointBuffer+0x78>)
 8003f2e:	212c      	movs	r1, #44	; 0x2c
 8003f30:	fb01 f303 	mul.w	r3, r1, r3
 8003f34:	4413      	add	r3, r2
 8003f36:	3314      	adds	r3, #20
 8003f38:	683a      	ldr	r2, [r7, #0]
 8003f3a:	601a      	str	r2, [r3, #0]
		device.Endpoints[number].OutBufferLength = len;
 8003f3c:	7bfb      	ldrb	r3, [r7, #15]
 8003f3e:	88ba      	ldrh	r2, [r7, #4]
 8003f40:	4906      	ldr	r1, [pc, #24]	; (8003f5c <USBD_SetEndpointBuffer+0x78>)
 8003f42:	202c      	movs	r0, #44	; 0x2c
 8003f44:	fb00 f303 	mul.w	r3, r0, r3
 8003f48:	440b      	add	r3, r1
 8003f4a:	3318      	adds	r3, #24
 8003f4c:	601a      	str	r2, [r3, #0]
}
 8003f4e:	bf00      	nop
 8003f50:	3714      	adds	r7, #20
 8003f52:	46bd      	mov	sp, r7
 8003f54:	f85d 7b04 	ldr.w	r7, [sp], #4
 8003f58:	4770      	bx	lr
 8003f5a:	bf00      	nop
 8003f5c:	200004f8 	.word	0x200004f8

08003f60 <XMC_USBD_lDeviceActive>:
 * Therefore the endpoint inInUse flag are checked and if one endpoint is in use, 1 is returned,
 * else 0 is returned.
 * @return 1 if an endpoint is active else 0
 */
uint8_t XMC_USBD_lDeviceActive(const XMC_USBD_t *const obj) 
{
 8003f60:	b480      	push	{r7}
 8003f62:	b085      	sub	sp, #20
 8003f64:	af00      	add	r7, sp, #0
 8003f66:	6078      	str	r0, [r7, #4]
  uint8_t i;
  uint8_t result = 0U;
 8003f68:	2300      	movs	r3, #0
 8003f6a:	73bb      	strb	r3, [r7, #14]
  for (i = 0U; i < (uint8_t)obj->usbd_max_num_eps; i++)
 8003f6c:	2300      	movs	r3, #0
 8003f6e:	73fb      	strb	r3, [r7, #15]
 8003f70:	e01c      	b.n	8003fac <XMC_USBD_lDeviceActive+0x4c>
  {
    if (xmc_device.ep[i].inInUse || xmc_device.ep[i].outInUse)
 8003f72:	7bfb      	ldrb	r3, [r7, #15]
 8003f74:	4a13      	ldr	r2, [pc, #76]	; (8003fc4 <XMC_USBD_lDeviceActive+0x64>)
 8003f76:	2134      	movs	r1, #52	; 0x34
 8003f78:	fb01 f303 	mul.w	r3, r1, r3
 8003f7c:	4413      	add	r3, r2
 8003f7e:	685b      	ldr	r3, [r3, #4]
 8003f80:	f3c3 03c0 	ubfx	r3, r3, #3, #1
 8003f84:	b2db      	uxtb	r3, r3
 8003f86:	2b00      	cmp	r3, #0
 8003f88:	d10b      	bne.n	8003fa2 <XMC_USBD_lDeviceActive+0x42>
 8003f8a:	7bfb      	ldrb	r3, [r7, #15]
 8003f8c:	4a0d      	ldr	r2, [pc, #52]	; (8003fc4 <XMC_USBD_lDeviceActive+0x64>)
 8003f8e:	2134      	movs	r1, #52	; 0x34
 8003f90:	fb01 f303 	mul.w	r3, r1, r3
 8003f94:	4413      	add	r3, r2
 8003f96:	685b      	ldr	r3, [r3, #4]
 8003f98:	f3c3 1300 	ubfx	r3, r3, #4, #1
 8003f9c:	b2db      	uxtb	r3, r3
 8003f9e:	2b00      	cmp	r3, #0
 8003fa0:	d001      	beq.n	8003fa6 <XMC_USBD_lDeviceActive+0x46>
    {
      result = 1U;
 8003fa2:	2301      	movs	r3, #1
 8003fa4:	73bb      	strb	r3, [r7, #14]
  for (i = 0U; i < (uint8_t)obj->usbd_max_num_eps; i++)
 8003fa6:	7bfb      	ldrb	r3, [r7, #15]
 8003fa8:	3301      	adds	r3, #1
 8003faa:	73fb      	strb	r3, [r7, #15]
 8003fac:	687b      	ldr	r3, [r7, #4]
 8003fae:	7b1b      	ldrb	r3, [r3, #12]
 8003fb0:	7bfa      	ldrb	r2, [r7, #15]
 8003fb2:	429a      	cmp	r2, r3
 8003fb4:	d3dd      	bcc.n	8003f72 <XMC_USBD_lDeviceActive+0x12>
    }
  }
  return result;
 8003fb6:	7bbb      	ldrb	r3, [r7, #14]
}
 8003fb8:	4618      	mov	r0, r3
 8003fba:	3714      	adds	r7, #20
 8003fbc:	46bd      	mov	sp, r7
 8003fbe:	f85d 7b04 	ldr.w	r7, [sp], #4
 8003fc2:	4770      	bx	lr
 8003fc4:	20000870 	.word	0x20000870

08003fc8 <XMC_USBD_lReadFifo>:
 *
 * @arg ep_num the endpoint to read for
 * @arg byte_count the byte count to read
 */
static void XMC_USBD_lReadFifo(const uint32_t ep_num,const uint32_t byte_count) 
{
 8003fc8:	b480      	push	{r7}
 8003fca:	b08b      	sub	sp, #44	; 0x2c
 8003fcc:	af00      	add	r7, sp, #0
 8003fce:	6078      	str	r0, [r7, #4]
 8003fd0:	6039      	str	r1, [r7, #0]
  XMC_USBD_EP_t * ep = &xmc_device.ep[ep_num];
 8003fd2:	687b      	ldr	r3, [r7, #4]
 8003fd4:	2234      	movs	r2, #52	; 0x34
 8003fd6:	fb02 f303 	mul.w	r3, r2, r3
 8003fda:	4a34      	ldr	r2, [pc, #208]	; (80040ac <XMC_USBD_lReadFifo+0xe4>)
 8003fdc:	4413      	add	r3, r2
 8003fde:	623b      	str	r3, [r7, #32]
  uint32_t word_count;
  uint32_t temp_data;
  uint32_t temp_word_count;
  volatile uint32_t *fifo = xmc_device.fifo[0U];
 8003fe0:	4b32      	ldr	r3, [pc, #200]	; (80040ac <XMC_USBD_lReadFifo+0xe4>)
 8003fe2:	f8d3 31e0 	ldr.w	r3, [r3, #480]	; 0x1e0
 8003fe6:	61fb      	str	r3, [r7, #28]
  uint32_t i;
  depctl_data_t data;
  data.d32 = xmc_device.endpoint_out_register[ep_num]->doepctl;
 8003fe8:	4a30      	ldr	r2, [pc, #192]	; (80040ac <XMC_USBD_lReadFifo+0xe4>)
 8003fea:	687b      	ldr	r3, [r7, #4]
 8003fec:	3370      	adds	r3, #112	; 0x70
 8003fee:	009b      	lsls	r3, r3, #2
 8003ff0:	4413      	add	r3, r2
 8003ff2:	685b      	ldr	r3, [r3, #4]
 8003ff4:	681b      	ldr	r3, [r3, #0]
 8003ff6:	60fb      	str	r3, [r7, #12]
  word_count = (byte_count >> 2U );
 8003ff8:	683b      	ldr	r3, [r7, #0]
 8003ffa:	089b      	lsrs	r3, r3, #2
 8003ffc:	61bb      	str	r3, [r7, #24]
  temp_word_count = (word_count << 2U);
 8003ffe:	69bb      	ldr	r3, [r7, #24]
 8004000:	009b      	lsls	r3, r3, #2
 8004002:	617b      	str	r3, [r7, #20]
  /* Check if ep is enabled and has buffer */
  if (!data.b.usbactep)
 8004004:	7b7b      	ldrb	r3, [r7, #13]
 8004006:	f023 037f 	bic.w	r3, r3, #127	; 0x7f
 800400a:	b2db      	uxtb	r3, r3
 800400c:	2b00      	cmp	r3, #0
 800400e:	d047      	beq.n	80040a0 <XMC_USBD_lReadFifo+0xd8>
  {
    /*Do Nothing*/
  }
  else if (ep->xferBuffer == NULL)
 8004010:	6a3b      	ldr	r3, [r7, #32]
 8004012:	6a5b      	ldr	r3, [r3, #36]	; 0x24
 8004014:	2b00      	cmp	r3, #0
 8004016:	d043      	beq.n	80040a0 <XMC_USBD_lReadFifo+0xd8>
	/*Do Nothing*/
  }
  else
  {
    /* store the data */
    for (i = 0U;i < word_count; i++)
 8004018:	2300      	movs	r3, #0
 800401a:	627b      	str	r3, [r7, #36]	; 0x24
 800401c:	e00a      	b.n	8004034 <XMC_USBD_lReadFifo+0x6c>
    {
      *(((uint32_t*)ep->xferBuffer)+i) = *fifo;
 800401e:	6a3b      	ldr	r3, [r7, #32]
 8004020:	6a5a      	ldr	r2, [r3, #36]	; 0x24
 8004022:	6a7b      	ldr	r3, [r7, #36]	; 0x24
 8004024:	009b      	lsls	r3, r3, #2
 8004026:	4413      	add	r3, r2
 8004028:	69fa      	ldr	r2, [r7, #28]
 800402a:	6812      	ldr	r2, [r2, #0]
 800402c:	601a      	str	r2, [r3, #0]
    for (i = 0U;i < word_count; i++)
 800402e:	6a7b      	ldr	r3, [r7, #36]	; 0x24
 8004030:	3301      	adds	r3, #1
 8004032:	627b      	str	r3, [r7, #36]	; 0x24
 8004034:	6a7a      	ldr	r2, [r7, #36]	; 0x24
 8004036:	69bb      	ldr	r3, [r7, #24]
 8004038:	429a      	cmp	r2, r3
 800403a:	d3f0      	bcc.n	800401e <XMC_USBD_lReadFifo+0x56>
    }
    /* space is not devidable by 4 */
    if (byte_count!=temp_word_count)
 800403c:	683a      	ldr	r2, [r7, #0]
 800403e:	697b      	ldr	r3, [r7, #20]
 8004040:	429a      	cmp	r2, r3
 8004042:	d021      	beq.n	8004088 <XMC_USBD_lReadFifo+0xc0>
    {
      temp_data = *fifo;
 8004044:	69fb      	ldr	r3, [r7, #28]
 8004046:	681b      	ldr	r3, [r3, #0]
 8004048:	613b      	str	r3, [r7, #16]
      for (i = 0U;(temp_word_count + i) < byte_count;i++)
 800404a:	2300      	movs	r3, #0
 800404c:	627b      	str	r3, [r7, #36]	; 0x24
 800404e:	e015      	b.n	800407c <XMC_USBD_lReadFifo+0xb4>
      {
        ep->xferBuffer[(word_count << 2)+i] = (uint8_t)((temp_data & ((uint32_t)0xFFU << (i * 8U))) >> (i * 8U));
 8004050:	6a7b      	ldr	r3, [r7, #36]	; 0x24
 8004052:	00db      	lsls	r3, r3, #3
 8004054:	22ff      	movs	r2, #255	; 0xff
 8004056:	409a      	lsls	r2, r3
 8004058:	693b      	ldr	r3, [r7, #16]
 800405a:	401a      	ands	r2, r3
 800405c:	6a7b      	ldr	r3, [r7, #36]	; 0x24
 800405e:	00db      	lsls	r3, r3, #3
 8004060:	fa22 f003 	lsr.w	r0, r2, r3
 8004064:	6a3b      	ldr	r3, [r7, #32]
 8004066:	6a5a      	ldr	r2, [r3, #36]	; 0x24
 8004068:	69bb      	ldr	r3, [r7, #24]
 800406a:	0099      	lsls	r1, r3, #2
 800406c:	6a7b      	ldr	r3, [r7, #36]	; 0x24
 800406e:	440b      	add	r3, r1
 8004070:	4413      	add	r3, r2
 8004072:	b2c2      	uxtb	r2, r0
 8004074:	701a      	strb	r2, [r3, #0]
      for (i = 0U;(temp_word_count + i) < byte_count;i++)
 8004076:	6a7b      	ldr	r3, [r7, #36]	; 0x24
 8004078:	3301      	adds	r3, #1
 800407a:	627b      	str	r3, [r7, #36]	; 0x24
 800407c:	697a      	ldr	r2, [r7, #20]
 800407e:	6a7b      	ldr	r3, [r7, #36]	; 0x24
 8004080:	4413      	add	r3, r2
 8004082:	683a      	ldr	r2, [r7, #0]
 8004084:	429a      	cmp	r2, r3
 8004086:	d8e3      	bhi.n	8004050 <XMC_USBD_lReadFifo+0x88>
      }
    }

    /* save the amount of data */
    ep->xferCount += byte_count;
 8004088:	6a3b      	ldr	r3, [r7, #32]
 800408a:	6ada      	ldr	r2, [r3, #44]	; 0x2c
 800408c:	683b      	ldr	r3, [r7, #0]
 800408e:	441a      	add	r2, r3
 8004090:	6a3b      	ldr	r3, [r7, #32]
 8004092:	62da      	str	r2, [r3, #44]	; 0x2c
    ep->xferBuffer += byte_count;
 8004094:	6a3b      	ldr	r3, [r7, #32]
 8004096:	6a5a      	ldr	r2, [r3, #36]	; 0x24
 8004098:	683b      	ldr	r3, [r7, #0]
 800409a:	441a      	add	r2, r3
 800409c:	6a3b      	ldr	r3, [r7, #32]
 800409e:	625a      	str	r2, [r3, #36]	; 0x24
  }
}
 80040a0:	bf00      	nop
 80040a2:	372c      	adds	r7, #44	; 0x2c
 80040a4:	46bd      	mov	sp, r7
 80040a6:	f85d 7b04 	ldr.w	r7, [sp], #4
 80040aa:	4770      	bx	lr
 80040ac:	20000870 	.word	0x20000870

080040b0 <XMC_USBD_lWriteFifo>:
 *
 * @arg[in] ep the endpoint to use
 * @return the number of bytes written to the fifo
 */
static uint32_t XMC_USBD_lWriteFifo(XMC_USBD_EP_t *const ep) 
{
 80040b0:	b480      	push	{r7}
 80040b2:	b089      	sub	sp, #36	; 0x24
 80040b4:	af00      	add	r7, sp, #0
 80040b6:	6078      	str	r0, [r7, #4]
  volatile uint32_t *fifo;
  uint32_t byte_count;
  uint32_t word_count;
  uint32_t result;
  uint32_t i;
  fifo = xmc_device.fifo[ep->address_u.address_st.number]; /* fifo */
 80040b8:	687b      	ldr	r3, [r7, #4]
 80040ba:	781b      	ldrb	r3, [r3, #0]
 80040bc:	f3c3 0303 	ubfx	r3, r3, #0, #4
 80040c0:	b2db      	uxtb	r3, r3
 80040c2:	4a23      	ldr	r2, [pc, #140]	; (8004150 <XMC_USBD_lWriteFifo+0xa0>)
 80040c4:	3378      	adds	r3, #120	; 0x78
 80040c6:	f852 3023 	ldr.w	r3, [r2, r3, lsl #2]
 80040ca:	60fb      	str	r3, [r7, #12]
  freeSpace.d32 = xmc_device.endpoint_in_register[ep->address_u.address_st.number]->dtxfsts;
 80040cc:	687b      	ldr	r3, [r7, #4]
 80040ce:	781b      	ldrb	r3, [r3, #0]
 80040d0:	f3c3 0303 	ubfx	r3, r3, #0, #4
 80040d4:	b2db      	uxtb	r3, r3
 80040d6:	4a1e      	ldr	r2, [pc, #120]	; (8004150 <XMC_USBD_lWriteFifo+0xa0>)
 80040d8:	336a      	adds	r3, #106	; 0x6a
 80040da:	f852 3023 	ldr.w	r3, [r2, r3, lsl #2]
 80040de:	699b      	ldr	r3, [r3, #24]
 80040e0:	60bb      	str	r3, [r7, #8]
  /* calculate the length and the amount of dwords to copy based on the fifo status */
  byte_count = ep->xferLength - ep->xferCount;
 80040e2:	687b      	ldr	r3, [r7, #4]
 80040e4:	6a9a      	ldr	r2, [r3, #40]	; 0x28
 80040e6:	687b      	ldr	r3, [r7, #4]
 80040e8:	6adb      	ldr	r3, [r3, #44]	; 0x2c
 80040ea:	1ad3      	subs	r3, r2, r3
 80040ec:	61fb      	str	r3, [r7, #28]
  if (!byte_count)
 80040ee:	69fb      	ldr	r3, [r7, #28]
 80040f0:	2b00      	cmp	r3, #0
 80040f2:	d102      	bne.n	80040fa <XMC_USBD_lWriteFifo+0x4a>
  {
    result = 0U;
 80040f4:	2300      	movs	r3, #0
 80040f6:	617b      	str	r3, [r7, #20]
 80040f8:	e023      	b.n	8004142 <XMC_USBD_lWriteFifo+0x92>
  }
  else
  {
    /* add the unaligned bytes to the word count to compare with the fifo space */
    word_count = ((uint32_t)byte_count + 3U) >> 2U;
 80040fa:	69fb      	ldr	r3, [r7, #28]
 80040fc:	3303      	adds	r3, #3
 80040fe:	089b      	lsrs	r3, r3, #2
 8004100:	61bb      	str	r3, [r7, #24]
    if (word_count > (uint32_t)freeSpace.b.txfspcavail )
 8004102:	893b      	ldrh	r3, [r7, #8]
 8004104:	461a      	mov	r2, r3
 8004106:	69bb      	ldr	r3, [r7, #24]
 8004108:	4293      	cmp	r3, r2
 800410a:	d904      	bls.n	8004116 <XMC_USBD_lWriteFifo+0x66>
    {
      word_count = (uint32_t)freeSpace.b.txfspcavail;
 800410c:	893b      	ldrh	r3, [r7, #8]
 800410e:	61bb      	str	r3, [r7, #24]
      byte_count = (uint32_t)word_count << (uint32_t)2U;
 8004110:	69bb      	ldr	r3, [r7, #24]
 8004112:	009b      	lsls	r3, r3, #2
 8004114:	61fb      	str	r3, [r7, #28]
    }

    /* copy data dword wise */
    for (i = 0U; i < word_count;ep->xferBuffer+= 4U)
 8004116:	2300      	movs	r3, #0
 8004118:	613b      	str	r3, [r7, #16]
 800411a:	e00c      	b.n	8004136 <XMC_USBD_lWriteFifo+0x86>
    {
      *fifo = *(uint32_t*)ep->xferBuffer;
 800411c:	687b      	ldr	r3, [r7, #4]
 800411e:	6a5b      	ldr	r3, [r3, #36]	; 0x24
 8004120:	681a      	ldr	r2, [r3, #0]
 8004122:	68fb      	ldr	r3, [r7, #12]
 8004124:	601a      	str	r2, [r3, #0]
      i++;
 8004126:	693b      	ldr	r3, [r7, #16]
 8004128:	3301      	adds	r3, #1
 800412a:	613b      	str	r3, [r7, #16]
    for (i = 0U; i < word_count;ep->xferBuffer+= 4U)
 800412c:	687b      	ldr	r3, [r7, #4]
 800412e:	6a5b      	ldr	r3, [r3, #36]	; 0x24
 8004130:	1d1a      	adds	r2, r3, #4
 8004132:	687b      	ldr	r3, [r7, #4]
 8004134:	625a      	str	r2, [r3, #36]	; 0x24
 8004136:	693a      	ldr	r2, [r7, #16]
 8004138:	69bb      	ldr	r3, [r7, #24]
 800413a:	429a      	cmp	r2, r3
 800413c:	d3ee      	bcc.n	800411c <XMC_USBD_lWriteFifo+0x6c>
    }
    result=byte_count;
 800413e:	69fb      	ldr	r3, [r7, #28]
 8004140:	617b      	str	r3, [r7, #20]
  }
  return result;
 8004142:	697b      	ldr	r3, [r7, #20]
}
 8004144:	4618      	mov	r0, r3
 8004146:	3724      	adds	r7, #36	; 0x24
 8004148:	46bd      	mov	sp, r7
 800414a:	f85d 7b04 	ldr.w	r7, [sp], #4
 800414e:	4770      	bx	lr
 8004150:	20000870 	.word	0x20000870

08004154 <XMC_USBD_lFlushTXFifo>:
 * @param[in] fifo_num Fifo number to flush
 *
 * @note Use 0x10 as parameter to flush all tx fifos.
 */
static void XMC_USBD_lFlushTXFifo(const uint8_t fifo_num) 
{
 8004154:	b480      	push	{r7}
 8004156:	b085      	sub	sp, #20
 8004158:	af00      	add	r7, sp, #0
 800415a:	4603      	mov	r3, r0
 800415c:	71fb      	strb	r3, [r7, #7]
  volatile grstctl_t data;  
  uint32_t count;
  data.d32 = 0U;
 800415e:	2300      	movs	r3, #0
 8004160:	60bb      	str	r3, [r7, #8]
  /*flush fifo */
  data.b.txfflsh = 1U;
 8004162:	68bb      	ldr	r3, [r7, #8]
 8004164:	f043 0320 	orr.w	r3, r3, #32
 8004168:	60bb      	str	r3, [r7, #8]
  data.b.txfnum = fifo_num;
 800416a:	79fb      	ldrb	r3, [r7, #7]
 800416c:	f003 031f 	and.w	r3, r3, #31
 8004170:	b2da      	uxtb	r2, r3
 8004172:	68bb      	ldr	r3, [r7, #8]
 8004174:	f362 138a 	bfi	r3, r2, #6, #5
 8004178:	60bb      	str	r3, [r7, #8]
  xmc_device.global_register->grstctl = data.d32;
 800417a:	4b15      	ldr	r3, [pc, #84]	; (80041d0 <XMC_USBD_lFlushTXFifo+0x7c>)
 800417c:	f8d3 31a0 	ldr.w	r3, [r3, #416]	; 0x1a0
 8004180:	68ba      	ldr	r2, [r7, #8]
 8004182:	611a      	str	r2, [r3, #16]
  for (count = 0U;count < 1000U; count++){}
 8004184:	2300      	movs	r3, #0
 8004186:	60fb      	str	r3, [r7, #12]
 8004188:	e002      	b.n	8004190 <XMC_USBD_lFlushTXFifo+0x3c>
 800418a:	68fb      	ldr	r3, [r7, #12]
 800418c:	3301      	adds	r3, #1
 800418e:	60fb      	str	r3, [r7, #12]
 8004190:	68fb      	ldr	r3, [r7, #12]
 8004192:	f5b3 7f7a 	cmp.w	r3, #1000	; 0x3e8
 8004196:	d3f8      	bcc.n	800418a <XMC_USBD_lFlushTXFifo+0x36>
  do
  {
   data.d32 = xmc_device.global_register->grstctl;
 8004198:	4b0d      	ldr	r3, [pc, #52]	; (80041d0 <XMC_USBD_lFlushTXFifo+0x7c>)
 800419a:	f8d3 31a0 	ldr.w	r3, [r3, #416]	; 0x1a0
 800419e:	691b      	ldr	r3, [r3, #16]
 80041a0:	60bb      	str	r3, [r7, #8]
  } while (data.b.txfflsh);
 80041a2:	68bb      	ldr	r3, [r7, #8]
 80041a4:	f3c3 1340 	ubfx	r3, r3, #5, #1
 80041a8:	b2db      	uxtb	r3, r3
 80041aa:	2b00      	cmp	r3, #0
 80041ac:	d1f4      	bne.n	8004198 <XMC_USBD_lFlushTXFifo+0x44>
    count = 0U;
 80041ae:	2300      	movs	r3, #0
 80041b0:	60fb      	str	r3, [r7, #12]
  while (count++ < 1000U)
 80041b2:	bf00      	nop
 80041b4:	68fb      	ldr	r3, [r7, #12]
 80041b6:	1c5a      	adds	r2, r3, #1
 80041b8:	60fa      	str	r2, [r7, #12]
 80041ba:	f5b3 7f7a 	cmp.w	r3, #1000	; 0x3e8
 80041be:	d3f9      	bcc.n	80041b4 <XMC_USBD_lFlushTXFifo+0x60>
  {
    /* wait 3 phy clocks */
  }
}
 80041c0:	bf00      	nop
 80041c2:	bf00      	nop
 80041c4:	3714      	adds	r7, #20
 80041c6:	46bd      	mov	sp, r7
 80041c8:	f85d 7b04 	ldr.w	r7, [sp], #4
 80041cc:	4770      	bx	lr
 80041ce:	bf00      	nop
 80041d0:	20000870 	.word	0x20000870

080041d4 <XMC_USBD_lFlushRXFifo>:

/**
 * @brief Flush the rx fifo
 */
static void XMC_USBD_lFlushRXFifo(void) 
{
 80041d4:	b480      	push	{r7}
 80041d6:	b083      	sub	sp, #12
 80041d8:	af00      	add	r7, sp, #0
  volatile grstctl_t data;  
  uint32_t count;
	
	data.d32 = 0U;
 80041da:	2300      	movs	r3, #0
 80041dc:	603b      	str	r3, [r7, #0]
  data.b.rxfflsh = 1U;
 80041de:	683b      	ldr	r3, [r7, #0]
 80041e0:	f043 0310 	orr.w	r3, r3, #16
 80041e4:	603b      	str	r3, [r7, #0]
  /* flush FIFO */
  xmc_device.global_register->grstctl = data.d32;
 80041e6:	4b15      	ldr	r3, [pc, #84]	; (800423c <XMC_USBD_lFlushRXFifo+0x68>)
 80041e8:	f8d3 31a0 	ldr.w	r3, [r3, #416]	; 0x1a0
 80041ec:	683a      	ldr	r2, [r7, #0]
 80041ee:	611a      	str	r2, [r3, #16]
  do
  {
    for (count = 0U; count < 1000U; count++){}
 80041f0:	2300      	movs	r3, #0
 80041f2:	607b      	str	r3, [r7, #4]
 80041f4:	e002      	b.n	80041fc <XMC_USBD_lFlushRXFifo+0x28>
 80041f6:	687b      	ldr	r3, [r7, #4]
 80041f8:	3301      	adds	r3, #1
 80041fa:	607b      	str	r3, [r7, #4]
 80041fc:	687b      	ldr	r3, [r7, #4]
 80041fe:	f5b3 7f7a 	cmp.w	r3, #1000	; 0x3e8
 8004202:	d3f8      	bcc.n	80041f6 <XMC_USBD_lFlushRXFifo+0x22>
    data.d32 = xmc_device.global_register->grstctl;
 8004204:	4b0d      	ldr	r3, [pc, #52]	; (800423c <XMC_USBD_lFlushRXFifo+0x68>)
 8004206:	f8d3 31a0 	ldr.w	r3, [r3, #416]	; 0x1a0
 800420a:	691b      	ldr	r3, [r3, #16]
 800420c:	603b      	str	r3, [r7, #0]
  } while (data.b.rxfflsh);
 800420e:	683b      	ldr	r3, [r7, #0]
 8004210:	f3c3 1300 	ubfx	r3, r3, #4, #1
 8004214:	b2db      	uxtb	r3, r3
 8004216:	2b00      	cmp	r3, #0
 8004218:	d1ea      	bne.n	80041f0 <XMC_USBD_lFlushRXFifo+0x1c>
  count = 0U;
 800421a:	2300      	movs	r3, #0
 800421c:	607b      	str	r3, [r7, #4]
  while (count++ < 1000U)
 800421e:	bf00      	nop
 8004220:	687b      	ldr	r3, [r7, #4]
 8004222:	1c5a      	adds	r2, r3, #1
 8004224:	607a      	str	r2, [r7, #4]
 8004226:	f5b3 7f7a 	cmp.w	r3, #1000	; 0x3e8
 800422a:	d3f9      	bcc.n	8004220 <XMC_USBD_lFlushRXFifo+0x4c>
  {
    /* wait 3 phy clocks */
  }
}
 800422c:	bf00      	nop
 800422e:	bf00      	nop
 8004230:	370c      	adds	r7, #12
 8004232:	46bd      	mov	sp, r7
 8004234:	f85d 7b04 	ldr.w	r7, [sp], #4
 8004238:	4770      	bx	lr
 800423a:	bf00      	nop
 800423c:	20000870 	.word	0x20000870

08004240 <XMC_USBD_lAssignTXFifo>:
 * A free tx fifo will be searched and the number will be returned.
 *
 * @return Fifo number for a free fifo
 */
static uint8_t XMC_USBD_lAssignTXFifo(void) 
{
 8004240:	b480      	push	{r7}
 8004242:	b083      	sub	sp, #12
 8004244:	af00      	add	r7, sp, #0
  uint16_t mask = 1U;
 8004246:	2301      	movs	r3, #1
 8004248:	80fb      	strh	r3, [r7, #6]
  uint8_t i = 0U;
 800424a:	2300      	movs	r3, #0
 800424c:	717b      	strb	r3, [r7, #5]
  uint8_t result = 0U;
 800424e:	2300      	movs	r3, #0
 8004250:	713b      	strb	r3, [r7, #4]
  while( (i < (uint8_t)XMC_USBD_NUM_TX_FIFOS)&&((xmc_device.txfifomsk & mask) != 0U))
 8004252:	e005      	b.n	8004260 <XMC_USBD_lAssignTXFifo+0x20>
  {
    mask = (uint16_t)(mask << 1U);
 8004254:	88fb      	ldrh	r3, [r7, #6]
 8004256:	005b      	lsls	r3, r3, #1
 8004258:	80fb      	strh	r3, [r7, #6]
    i++;
 800425a:	797b      	ldrb	r3, [r7, #5]
 800425c:	3301      	adds	r3, #1
 800425e:	717b      	strb	r3, [r7, #5]
  while( (i < (uint8_t)XMC_USBD_NUM_TX_FIFOS)&&((xmc_device.txfifomsk & mask) != 0U))
 8004260:	797b      	ldrb	r3, [r7, #5]
 8004262:	2b06      	cmp	r3, #6
 8004264:	d807      	bhi.n	8004276 <XMC_USBD_lAssignTXFifo+0x36>
 8004266:	4b11      	ldr	r3, [pc, #68]	; (80042ac <XMC_USBD_lAssignTXFifo+0x6c>)
 8004268:	f8b3 21fc 	ldrh.w	r2, [r3, #508]	; 0x1fc
 800426c:	88fb      	ldrh	r3, [r7, #6]
 800426e:	4013      	ands	r3, r2
 8004270:	b29b      	uxth	r3, r3
 8004272:	2b00      	cmp	r3, #0
 8004274:	d1ee      	bne.n	8004254 <XMC_USBD_lAssignTXFifo+0x14>
  }
  if ((xmc_device.txfifomsk & mask) == 0U)
 8004276:	4b0d      	ldr	r3, [pc, #52]	; (80042ac <XMC_USBD_lAssignTXFifo+0x6c>)
 8004278:	f8b3 21fc 	ldrh.w	r2, [r3, #508]	; 0x1fc
 800427c:	88fb      	ldrh	r3, [r7, #6]
 800427e:	4013      	ands	r3, r2
 8004280:	b29b      	uxth	r3, r3
 8004282:	2b00      	cmp	r3, #0
 8004284:	d10a      	bne.n	800429c <XMC_USBD_lAssignTXFifo+0x5c>
  {
    xmc_device.txfifomsk |= mask;
 8004286:	4b09      	ldr	r3, [pc, #36]	; (80042ac <XMC_USBD_lAssignTXFifo+0x6c>)
 8004288:	f8b3 21fc 	ldrh.w	r2, [r3, #508]	; 0x1fc
 800428c:	88fb      	ldrh	r3, [r7, #6]
 800428e:	4313      	orrs	r3, r2
 8004290:	b29a      	uxth	r2, r3
 8004292:	4b06      	ldr	r3, [pc, #24]	; (80042ac <XMC_USBD_lAssignTXFifo+0x6c>)
 8004294:	f8a3 21fc 	strh.w	r2, [r3, #508]	; 0x1fc
    result=i;
 8004298:	797b      	ldrb	r3, [r7, #5]
 800429a:	713b      	strb	r3, [r7, #4]
  }
  return result;
 800429c:	793b      	ldrb	r3, [r7, #4]
}
 800429e:	4618      	mov	r0, r3
 80042a0:	370c      	adds	r7, #12
 80042a2:	46bd      	mov	sp, r7
 80042a4:	f85d 7b04 	ldr.w	r7, [sp], #4
 80042a8:	4770      	bx	lr
 80042aa:	bf00      	nop
 80042ac:	20000870 	.word	0x20000870

080042b0 <XMC_USBD_lUnassignFifo>:
 *
 * Mark an used tx fifo as free.
 * @param[in] fifo_nr Fifo number to free
 */
static void XMC_USBD_lUnassignFifo(const uint8_t fifo_nr) 
{
 80042b0:	b480      	push	{r7}
 80042b2:	b083      	sub	sp, #12
 80042b4:	af00      	add	r7, sp, #0
 80042b6:	4603      	mov	r3, r0
 80042b8:	71fb      	strb	r3, [r7, #7]
  xmc_device.txfifomsk = (uint16_t)((uint32_t)xmc_device.txfifomsk & (uint32_t)(~((uint32_t)((uint32_t)1U << fifo_nr))));
 80042ba:	4b0a      	ldr	r3, [pc, #40]	; (80042e4 <XMC_USBD_lUnassignFifo+0x34>)
 80042bc:	f8b3 21fc 	ldrh.w	r2, [r3, #508]	; 0x1fc
 80042c0:	79fb      	ldrb	r3, [r7, #7]
 80042c2:	2101      	movs	r1, #1
 80042c4:	fa01 f303 	lsl.w	r3, r1, r3
 80042c8:	b29b      	uxth	r3, r3
 80042ca:	43db      	mvns	r3, r3
 80042cc:	b29b      	uxth	r3, r3
 80042ce:	4013      	ands	r3, r2
 80042d0:	b29a      	uxth	r2, r3
 80042d2:	4b04      	ldr	r3, [pc, #16]	; (80042e4 <XMC_USBD_lUnassignFifo+0x34>)
 80042d4:	f8a3 21fc 	strh.w	r2, [r3, #508]	; 0x1fc
}
 80042d8:	bf00      	nop
 80042da:	370c      	adds	r7, #12
 80042dc:	46bd      	mov	sp, r7
 80042de:	f85d 7b04 	ldr.w	r7, [sp], #4
 80042e2:	4770      	bx	lr
 80042e4:	20000870 	.word	0x20000870

080042e8 <XMC_USBD_lStartReadXfer>:
 * that the transfer values are reasonable (e.g. buffer size is not exceeded).
 *
 * @param[in] ep Endpoint to start the transfer
 */
static void XMC_USBD_lStartReadXfer(XMC_USBD_EP_t *const ep) 
{
 80042e8:	b480      	push	{r7}
 80042ea:	b087      	sub	sp, #28
 80042ec:	af00      	add	r7, sp, #0
 80042ee:	6078      	str	r0, [r7, #4]
  deptsiz_data_t data;
  depctl_data_t epctl;
	
  data.d32 =  0U;
 80042f0:	2300      	movs	r3, #0
 80042f2:	613b      	str	r3, [r7, #16]
  if ((ep->xferTotal - ep->xferLength) > ep->maxTransferSize)
 80042f4:	687b      	ldr	r3, [r7, #4]
 80042f6:	6b1a      	ldr	r2, [r3, #48]	; 0x30
 80042f8:	687b      	ldr	r3, [r7, #4]
 80042fa:	6a9b      	ldr	r3, [r3, #40]	; 0x28
 80042fc:	1ad3      	subs	r3, r2, r3
 80042fe:	687a      	ldr	r2, [r7, #4]
 8004300:	6892      	ldr	r2, [r2, #8]
 8004302:	f3c2 0212 	ubfx	r2, r2, #0, #19
 8004306:	4293      	cmp	r3, r2
 8004308:	d909      	bls.n	800431e <XMC_USBD_lStartReadXfer+0x36>
  {
    ep->xferLength += ep->maxTransferSize;
 800430a:	687b      	ldr	r3, [r7, #4]
 800430c:	6a9b      	ldr	r3, [r3, #40]	; 0x28
 800430e:	687a      	ldr	r2, [r7, #4]
 8004310:	6892      	ldr	r2, [r2, #8]
 8004312:	f3c2 0212 	ubfx	r2, r2, #0, #19
 8004316:	441a      	add	r2, r3
 8004318:	687b      	ldr	r3, [r7, #4]
 800431a:	629a      	str	r2, [r3, #40]	; 0x28
 800431c:	e003      	b.n	8004326 <XMC_USBD_lStartReadXfer+0x3e>
  }
  else
  {
    ep->xferLength = ep->xferTotal;
 800431e:	687b      	ldr	r3, [r7, #4]
 8004320:	6b1a      	ldr	r2, [r3, #48]	; 0x30
 8004322:	687b      	ldr	r3, [r7, #4]
 8004324:	629a      	str	r2, [r3, #40]	; 0x28
  }
  if (ep->address_u.address_st.number == 0U)
 8004326:	687b      	ldr	r3, [r7, #4]
 8004328:	781b      	ldrb	r3, [r3, #0]
 800432a:	f003 030f 	and.w	r3, r3, #15
 800432e:	b2db      	uxtb	r3, r3
 8004330:	2b00      	cmp	r3, #0
 8004332:	d118      	bne.n	8004366 <XMC_USBD_lStartReadXfer+0x7e>
  {
	/* Setup the endpoint to receive 3 setup packages and one normal package.*/
	/* Cast the data pointer to use only one variable */
    deptsiz0_data_t *ep0_data = (deptsiz0_data_t*)&data;
 8004334:	f107 0310 	add.w	r3, r7, #16
 8004338:	617b      	str	r3, [r7, #20]
    ep0_data->b.pktcnt = 0x1U;
 800433a:	697a      	ldr	r2, [r7, #20]
 800433c:	7893      	ldrb	r3, [r2, #2]
 800433e:	2101      	movs	r1, #1
 8004340:	f361 03c4 	bfi	r3, r1, #3, #2
 8004344:	7093      	strb	r3, [r2, #2]
    ep0_data->b.supcnt = 0x3U;
 8004346:	697a      	ldr	r2, [r7, #20]
 8004348:	78d3      	ldrb	r3, [r2, #3]
 800434a:	f043 0360 	orr.w	r3, r3, #96	; 0x60
 800434e:	70d3      	strb	r3, [r2, #3]
    ep0_data->b.xfersize = (uint8_t)ep->xferTotal;
 8004350:	687b      	ldr	r3, [r7, #4]
 8004352:	6b1b      	ldr	r3, [r3, #48]	; 0x30
 8004354:	f003 037f 	and.w	r3, r3, #127	; 0x7f
 8004358:	b2d9      	uxtb	r1, r3
 800435a:	697a      	ldr	r2, [r7, #20]
 800435c:	7813      	ldrb	r3, [r2, #0]
 800435e:	f361 0306 	bfi	r3, r1, #0, #7
 8004362:	7013      	strb	r3, [r2, #0]
 8004364:	e032      	b.n	80043cc <XMC_USBD_lStartReadXfer+0xe4>
  }
  else
  {
    /* If requested length is zero, just receive one zero length packet */
    if (ep->xferLength == 0U)
 8004366:	687b      	ldr	r3, [r7, #4]
 8004368:	6a9b      	ldr	r3, [r3, #40]	; 0x28
 800436a:	2b00      	cmp	r3, #0
 800436c:	d109      	bne.n	8004382 <XMC_USBD_lStartReadXfer+0x9a>
    {
      data.b.xfersize = 0U;
 800436e:	693b      	ldr	r3, [r7, #16]
 8004370:	f36f 0312 	bfc	r3, #0, #19
 8004374:	613b      	str	r3, [r7, #16]
      data.b.pktcnt = 1U;
 8004376:	8a7b      	ldrh	r3, [r7, #18]
 8004378:	2201      	movs	r2, #1
 800437a:	f362 03cc 	bfi	r3, r2, #3, #10
 800437e:	827b      	strh	r3, [r7, #18]
 8004380:	e024      	b.n	80043cc <XMC_USBD_lStartReadXfer+0xe4>
    }
    else
    {
      /* setup endpoint to recive a amount of packages by given size */
      data.b.pktcnt = (uint16_t)(((ep->xferLength - ep->xferCount) + (ep->maxPacketSize -(uint32_t)1U))/ep->maxPacketSize);
 8004382:	687b      	ldr	r3, [r7, #4]
 8004384:	6a9a      	ldr	r2, [r3, #40]	; 0x28
 8004386:	687b      	ldr	r3, [r7, #4]
 8004388:	6adb      	ldr	r3, [r3, #44]	; 0x2c
 800438a:	1ad3      	subs	r3, r2, r3
 800438c:	687a      	ldr	r2, [r7, #4]
 800438e:	6852      	ldr	r2, [r2, #4]
 8004390:	f3c2 22c6 	ubfx	r2, r2, #11, #7
 8004394:	b2d2      	uxtb	r2, r2
 8004396:	4413      	add	r3, r2
 8004398:	3b01      	subs	r3, #1
 800439a:	687a      	ldr	r2, [r7, #4]
 800439c:	6852      	ldr	r2, [r2, #4]
 800439e:	f3c2 22c6 	ubfx	r2, r2, #11, #7
 80043a2:	b2d2      	uxtb	r2, r2
 80043a4:	fbb3 f3f2 	udiv	r3, r3, r2
 80043a8:	f3c3 0309 	ubfx	r3, r3, #0, #10
 80043ac:	b29a      	uxth	r2, r3
 80043ae:	8a7b      	ldrh	r3, [r7, #18]
 80043b0:	f362 03cc 	bfi	r3, r2, #3, #10
 80043b4:	827b      	strh	r3, [r7, #18]
      data.b.xfersize =(uint32_t)(ep->xferLength - ep->xferCount);
 80043b6:	687b      	ldr	r3, [r7, #4]
 80043b8:	6a9a      	ldr	r2, [r3, #40]	; 0x28
 80043ba:	687b      	ldr	r3, [r7, #4]
 80043bc:	6adb      	ldr	r3, [r3, #44]	; 0x2c
 80043be:	1ad3      	subs	r3, r2, r3
 80043c0:	f3c3 0212 	ubfx	r2, r3, #0, #19
 80043c4:	693b      	ldr	r3, [r7, #16]
 80043c6:	f362 0312 	bfi	r3, r2, #0, #19
 80043ca:	613b      	str	r3, [r7, #16]
    }
  }
  if(usbd_init->usbd_transfer_mode == XMC_USBD_USE_DMA)
 80043cc:	4b22      	ldr	r3, [pc, #136]	; (8004458 <XMC_USBD_lStartReadXfer+0x170>)
 80043ce:	681b      	ldr	r3, [r3, #0]
 80043d0:	7b5b      	ldrb	r3, [r3, #13]
 80043d2:	2b00      	cmp	r3, #0
 80043d4:	d10d      	bne.n	80043f2 <XMC_USBD_lStartReadXfer+0x10a>
  {
    /* Programm dma address if needed */
    xmc_device.endpoint_out_register[ep->address_u.address_st.number]->doepdma = (uint32_t)(ep->xferBuffer);
 80043d6:	687b      	ldr	r3, [r7, #4]
 80043d8:	6a59      	ldr	r1, [r3, #36]	; 0x24
 80043da:	687b      	ldr	r3, [r7, #4]
 80043dc:	781b      	ldrb	r3, [r3, #0]
 80043de:	f3c3 0303 	ubfx	r3, r3, #0, #4
 80043e2:	b2db      	uxtb	r3, r3
 80043e4:	4a1d      	ldr	r2, [pc, #116]	; (800445c <XMC_USBD_lStartReadXfer+0x174>)
 80043e6:	3370      	adds	r3, #112	; 0x70
 80043e8:	009b      	lsls	r3, r3, #2
 80043ea:	4413      	add	r3, r2
 80043ec:	685b      	ldr	r3, [r3, #4]
 80043ee:	460a      	mov	r2, r1
 80043f0:	615a      	str	r2, [r3, #20]
  }
  /* setup endpoint size and enable endpoint */
  xmc_device.endpoint_out_register[ep->address_u.address_st.number]->doeptsiz = data.d32;
 80043f2:	687b      	ldr	r3, [r7, #4]
 80043f4:	781b      	ldrb	r3, [r3, #0]
 80043f6:	f3c3 0303 	ubfx	r3, r3, #0, #4
 80043fa:	b2db      	uxtb	r3, r3
 80043fc:	4a17      	ldr	r2, [pc, #92]	; (800445c <XMC_USBD_lStartReadXfer+0x174>)
 80043fe:	3370      	adds	r3, #112	; 0x70
 8004400:	009b      	lsls	r3, r3, #2
 8004402:	4413      	add	r3, r2
 8004404:	685b      	ldr	r3, [r3, #4]
 8004406:	693a      	ldr	r2, [r7, #16]
 8004408:	611a      	str	r2, [r3, #16]
 
  epctl.d32 = xmc_device.endpoint_out_register[ep->address_u.address_st.number]->doepctl;
 800440a:	687b      	ldr	r3, [r7, #4]
 800440c:	781b      	ldrb	r3, [r3, #0]
 800440e:	f3c3 0303 	ubfx	r3, r3, #0, #4
 8004412:	b2db      	uxtb	r3, r3
 8004414:	4a11      	ldr	r2, [pc, #68]	; (800445c <XMC_USBD_lStartReadXfer+0x174>)
 8004416:	3370      	adds	r3, #112	; 0x70
 8004418:	009b      	lsls	r3, r3, #2
 800441a:	4413      	add	r3, r2
 800441c:	685b      	ldr	r3, [r3, #4]
 800441e:	681b      	ldr	r3, [r3, #0]
 8004420:	60fb      	str	r3, [r7, #12]
  epctl.b.cnak = 1U;
 8004422:	7bfb      	ldrb	r3, [r7, #15]
 8004424:	f043 0304 	orr.w	r3, r3, #4
 8004428:	73fb      	strb	r3, [r7, #15]
  epctl.b.epena = 1U;
 800442a:	7bfb      	ldrb	r3, [r7, #15]
 800442c:	f043 0380 	orr.w	r3, r3, #128	; 0x80
 8004430:	73fb      	strb	r3, [r7, #15]
  xmc_device.endpoint_out_register[ep->address_u.address_st.number]->doepctl = epctl.d32;
 8004432:	687b      	ldr	r3, [r7, #4]
 8004434:	781b      	ldrb	r3, [r3, #0]
 8004436:	f3c3 0303 	ubfx	r3, r3, #0, #4
 800443a:	b2db      	uxtb	r3, r3
 800443c:	4a07      	ldr	r2, [pc, #28]	; (800445c <XMC_USBD_lStartReadXfer+0x174>)
 800443e:	3370      	adds	r3, #112	; 0x70
 8004440:	009b      	lsls	r3, r3, #2
 8004442:	4413      	add	r3, r2
 8004444:	685b      	ldr	r3, [r3, #4]
 8004446:	68fa      	ldr	r2, [r7, #12]
 8004448:	601a      	str	r2, [r3, #0]
}
 800444a:	bf00      	nop
 800444c:	371c      	adds	r7, #28
 800444e:	46bd      	mov	sp, r7
 8004450:	f85d 7b04 	ldr.w	r7, [sp], #4
 8004454:	4770      	bx	lr
 8004456:	bf00      	nop
 8004458:	20000a78 	.word	0x20000a78
 800445c:	20000870 	.word	0x20000870

08004460 <XMC_USBD_lStartWriteXfer>:
 * to start a new in transfer
 *
 * @param[in] ep Endpoint to start the transfer
 */
static void XMC_USBD_lStartWriteXfer(XMC_USBD_EP_t *const ep) 
{
 8004460:	b480      	push	{r7}
 8004462:	b085      	sub	sp, #20
 8004464:	af00      	add	r7, sp, #0
 8004466:	6078      	str	r0, [r7, #4]
  deptsiz_data_t size;
  depctl_data_t ctl;
	
  size.d32 = 0U;  
 8004468:	2300      	movs	r3, #0
 800446a:	60fb      	str	r3, [r7, #12]
  ctl.d32 = xmc_device.endpoint_in_register[ep->address_u.address_st.number]->diepctl;
 800446c:	687b      	ldr	r3, [r7, #4]
 800446e:	781b      	ldrb	r3, [r3, #0]
 8004470:	f3c3 0303 	ubfx	r3, r3, #0, #4
 8004474:	b2db      	uxtb	r3, r3
 8004476:	4a5e      	ldr	r2, [pc, #376]	; (80045f0 <XMC_USBD_lStartWriteXfer+0x190>)
 8004478:	336a      	adds	r3, #106	; 0x6a
 800447a:	f852 3023 	ldr.w	r3, [r2, r3, lsl #2]
 800447e:	681b      	ldr	r3, [r3, #0]
 8004480:	60bb      	str	r3, [r7, #8]

  if ((ep->xferTotal - ep->xferLength)  < ep->maxTransferSize)
 8004482:	687b      	ldr	r3, [r7, #4]
 8004484:	6b1a      	ldr	r2, [r3, #48]	; 0x30
 8004486:	687b      	ldr	r3, [r7, #4]
 8004488:	6a9b      	ldr	r3, [r3, #40]	; 0x28
 800448a:	1ad3      	subs	r3, r2, r3
 800448c:	687a      	ldr	r2, [r7, #4]
 800448e:	6892      	ldr	r2, [r2, #8]
 8004490:	f3c2 0212 	ubfx	r2, r2, #0, #19
 8004494:	4293      	cmp	r3, r2
 8004496:	d204      	bcs.n	80044a2 <XMC_USBD_lStartWriteXfer+0x42>
  {
    ep->xferLength = ep->xferTotal;
 8004498:	687b      	ldr	r3, [r7, #4]
 800449a:	6b1a      	ldr	r2, [r3, #48]	; 0x30
 800449c:	687b      	ldr	r3, [r7, #4]
 800449e:	629a      	str	r2, [r3, #40]	; 0x28
 80044a0:	e008      	b.n	80044b4 <XMC_USBD_lStartWriteXfer+0x54>
  }
  else
  {
    ep->xferLength += ep->maxTransferSize;
 80044a2:	687b      	ldr	r3, [r7, #4]
 80044a4:	6a9b      	ldr	r3, [r3, #40]	; 0x28
 80044a6:	687a      	ldr	r2, [r7, #4]
 80044a8:	6892      	ldr	r2, [r2, #8]
 80044aa:	f3c2 0212 	ubfx	r2, r2, #0, #19
 80044ae:	441a      	add	r2, r3
 80044b0:	687b      	ldr	r3, [r7, #4]
 80044b2:	629a      	str	r2, [r3, #40]	; 0x28
  }
  if (ep->xferLength == 0U)
 80044b4:	687b      	ldr	r3, [r7, #4]
 80044b6:	6a9b      	ldr	r3, [r3, #40]	; 0x28
 80044b8:	2b00      	cmp	r3, #0
 80044ba:	d109      	bne.n	80044d0 <XMC_USBD_lStartWriteXfer+0x70>
  {
    size.b.xfersize = 0U;
 80044bc:	68fb      	ldr	r3, [r7, #12]
 80044be:	f36f 0312 	bfc	r3, #0, #19
 80044c2:	60fb      	str	r3, [r7, #12]
    size.b.pktcnt = 1U;
 80044c4:	89fb      	ldrh	r3, [r7, #14]
 80044c6:	2201      	movs	r2, #1
 80044c8:	f362 03cc 	bfi	r3, r2, #3, #10
 80044cc:	81fb      	strh	r3, [r7, #14]
 80044ce:	e06b      	b.n	80045a8 <XMC_USBD_lStartWriteXfer+0x148>
  }
  else
  {
    if (ep->address_u.address_st.number == 0U)
 80044d0:	687b      	ldr	r3, [r7, #4]
 80044d2:	781b      	ldrb	r3, [r3, #0]
 80044d4:	f003 030f 	and.w	r3, r3, #15
 80044d8:	b2db      	uxtb	r3, r3
 80044da:	2b00      	cmp	r3, #0
 80044dc:	d110      	bne.n	8004500 <XMC_USBD_lStartWriteXfer+0xa0>
    {
      size.b.pktcnt = 1U;
 80044de:	89fb      	ldrh	r3, [r7, #14]
 80044e0:	2201      	movs	r2, #1
 80044e2:	f362 03cc 	bfi	r3, r2, #3, #10
 80044e6:	81fb      	strh	r3, [r7, #14]
      /* ep->maxXferSize equals maxPacketSize */
      size.b.xfersize = (uint32_t)(ep->xferLength - ep->xferCount);
 80044e8:	687b      	ldr	r3, [r7, #4]
 80044ea:	6a9a      	ldr	r2, [r3, #40]	; 0x28
 80044ec:	687b      	ldr	r3, [r7, #4]
 80044ee:	6adb      	ldr	r3, [r3, #44]	; 0x2c
 80044f0:	1ad3      	subs	r3, r2, r3
 80044f2:	f3c3 0212 	ubfx	r2, r3, #0, #19
 80044f6:	68fb      	ldr	r3, [r7, #12]
 80044f8:	f362 0312 	bfi	r3, r2, #0, #19
 80044fc:	60fb      	str	r3, [r7, #12]
 80044fe:	e02a      	b.n	8004556 <XMC_USBD_lStartWriteXfer+0xf6>
    }
    else
    {
      size.b.xfersize =(uint32_t)(ep->xferLength - ep->xferCount);
 8004500:	687b      	ldr	r3, [r7, #4]
 8004502:	6a9a      	ldr	r2, [r3, #40]	; 0x28
 8004504:	687b      	ldr	r3, [r7, #4]
 8004506:	6adb      	ldr	r3, [r3, #44]	; 0x2c
 8004508:	1ad3      	subs	r3, r2, r3
 800450a:	f3c3 0212 	ubfx	r2, r3, #0, #19
 800450e:	68fb      	ldr	r3, [r7, #12]
 8004510:	f362 0312 	bfi	r3, r2, #0, #19
 8004514:	60fb      	str	r3, [r7, #12]
      size.b.pktcnt = (uint16_t)(((uint16_t)(ep->xferLength - ep->xferCount) + (uint16_t)((uint16_t)ep->maxPacketSize - 1U))/
 8004516:	687b      	ldr	r3, [r7, #4]
 8004518:	6a9b      	ldr	r3, [r3, #40]	; 0x28
 800451a:	b29a      	uxth	r2, r3
 800451c:	687b      	ldr	r3, [r7, #4]
 800451e:	6adb      	ldr	r3, [r3, #44]	; 0x2c
 8004520:	b29b      	uxth	r3, r3
 8004522:	1ad3      	subs	r3, r2, r3
 8004524:	b29b      	uxth	r3, r3
 8004526:	461a      	mov	r2, r3
 8004528:	687b      	ldr	r3, [r7, #4]
 800452a:	685b      	ldr	r3, [r3, #4]
 800452c:	f3c3 23c6 	ubfx	r3, r3, #11, #7
 8004530:	b2db      	uxtb	r3, r3
 8004532:	b29b      	uxth	r3, r3
 8004534:	3b01      	subs	r3, #1
 8004536:	b29b      	uxth	r3, r3
 8004538:	4413      	add	r3, r2
    		 ep->maxPacketSize);
 800453a:	687a      	ldr	r2, [r7, #4]
 800453c:	6852      	ldr	r2, [r2, #4]
 800453e:	f3c2 22c6 	ubfx	r2, r2, #11, #7
 8004542:	b2d2      	uxtb	r2, r2
      size.b.pktcnt = (uint16_t)(((uint16_t)(ep->xferLength - ep->xferCount) + (uint16_t)((uint16_t)ep->maxPacketSize - 1U))/
 8004544:	fb93 f3f2 	sdiv	r3, r3, r2
 8004548:	f3c3 0309 	ubfx	r3, r3, #0, #10
 800454c:	b29a      	uxth	r2, r3
 800454e:	89fb      	ldrh	r3, [r7, #14]
 8004550:	f362 03cc 	bfi	r3, r2, #3, #10
 8004554:	81fb      	strh	r3, [r7, #14]
    }
    if(usbd_init->usbd_transfer_mode == XMC_USBD_USE_DMA)
 8004556:	4b27      	ldr	r3, [pc, #156]	; (80045f4 <XMC_USBD_lStartWriteXfer+0x194>)
 8004558:	681b      	ldr	r3, [r3, #0]
 800455a:	7b5b      	ldrb	r3, [r3, #13]
 800455c:	2b00      	cmp	r3, #0
 800455e:	d10c      	bne.n	800457a <XMC_USBD_lStartWriteXfer+0x11a>
    {
      /* Program dma*/
      xmc_device.endpoint_in_register[ep->address_u.address_st.number]->diepdma = (uint32_t)ep->xferBuffer;
 8004560:	687b      	ldr	r3, [r7, #4]
 8004562:	6a59      	ldr	r1, [r3, #36]	; 0x24
 8004564:	687b      	ldr	r3, [r7, #4]
 8004566:	781b      	ldrb	r3, [r3, #0]
 8004568:	f3c3 0303 	ubfx	r3, r3, #0, #4
 800456c:	b2db      	uxtb	r3, r3
 800456e:	4a20      	ldr	r2, [pc, #128]	; (80045f0 <XMC_USBD_lStartWriteXfer+0x190>)
 8004570:	336a      	adds	r3, #106	; 0x6a
 8004572:	f852 3023 	ldr.w	r3, [r2, r3, lsl #2]
 8004576:	460a      	mov	r2, r1
 8004578:	615a      	str	r2, [r3, #20]
    }
    if(usbd_init->usbd_transfer_mode == XMC_USBD_USE_FIFO)
 800457a:	4b1e      	ldr	r3, [pc, #120]	; (80045f4 <XMC_USBD_lStartWriteXfer+0x194>)
 800457c:	681b      	ldr	r3, [r3, #0]
 800457e:	7b5b      	ldrb	r3, [r3, #13]
 8004580:	2b01      	cmp	r3, #1
 8004582:	d111      	bne.n	80045a8 <XMC_USBD_lStartWriteXfer+0x148>
    {
      /* enable fifo empty interrupt */
			xmc_device.device_register->dtknqr4_fifoemptymsk |= (uint32_t)((uint32_t)1U << (uint8_t)ep->address_u.address_st.number);
 8004584:	4b1a      	ldr	r3, [pc, #104]	; (80045f0 <XMC_USBD_lStartWriteXfer+0x190>)
 8004586:	f8d3 31a4 	ldr.w	r3, [r3, #420]	; 0x1a4
 800458a:	6b59      	ldr	r1, [r3, #52]	; 0x34
 800458c:	687b      	ldr	r3, [r7, #4]
 800458e:	781b      	ldrb	r3, [r3, #0]
 8004590:	f3c3 0303 	ubfx	r3, r3, #0, #4
 8004594:	b2db      	uxtb	r3, r3
 8004596:	461a      	mov	r2, r3
 8004598:	2301      	movs	r3, #1
 800459a:	fa03 f202 	lsl.w	r2, r3, r2
 800459e:	4b14      	ldr	r3, [pc, #80]	; (80045f0 <XMC_USBD_lStartWriteXfer+0x190>)
 80045a0:	f8d3 31a4 	ldr.w	r3, [r3, #420]	; 0x1a4
 80045a4:	430a      	orrs	r2, r1
 80045a6:	635a      	str	r2, [r3, #52]	; 0x34
    }
  }

  /* Program size of transfer and enable endpoint */
  xmc_device.endpoint_in_register[ep->address_u.address_st.number]->dieptsiz = size.d32;
 80045a8:	687b      	ldr	r3, [r7, #4]
 80045aa:	781b      	ldrb	r3, [r3, #0]
 80045ac:	f3c3 0303 	ubfx	r3, r3, #0, #4
 80045b0:	b2db      	uxtb	r3, r3
 80045b2:	4a0f      	ldr	r2, [pc, #60]	; (80045f0 <XMC_USBD_lStartWriteXfer+0x190>)
 80045b4:	336a      	adds	r3, #106	; 0x6a
 80045b6:	f852 3023 	ldr.w	r3, [r2, r3, lsl #2]
 80045ba:	68fa      	ldr	r2, [r7, #12]
 80045bc:	611a      	str	r2, [r3, #16]
  ctl.b.epena = 1U;
 80045be:	7afb      	ldrb	r3, [r7, #11]
 80045c0:	f043 0380 	orr.w	r3, r3, #128	; 0x80
 80045c4:	72fb      	strb	r3, [r7, #11]
  ctl.b.cnak = 1U;
 80045c6:	7afb      	ldrb	r3, [r7, #11]
 80045c8:	f043 0304 	orr.w	r3, r3, #4
 80045cc:	72fb      	strb	r3, [r7, #11]
  xmc_device.endpoint_in_register[ep->address_u.address_st.number]->diepctl = ctl.d32;
 80045ce:	687b      	ldr	r3, [r7, #4]
 80045d0:	781b      	ldrb	r3, [r3, #0]
 80045d2:	f3c3 0303 	ubfx	r3, r3, #0, #4
 80045d6:	b2db      	uxtb	r3, r3
 80045d8:	4a05      	ldr	r2, [pc, #20]	; (80045f0 <XMC_USBD_lStartWriteXfer+0x190>)
 80045da:	336a      	adds	r3, #106	; 0x6a
 80045dc:	f852 3023 	ldr.w	r3, [r2, r3, lsl #2]
 80045e0:	68ba      	ldr	r2, [r7, #8]
 80045e2:	601a      	str	r2, [r3, #0]
}
 80045e4:	bf00      	nop
 80045e6:	3714      	adds	r7, #20
 80045e8:	46bd      	mov	sp, r7
 80045ea:	f85d 7b04 	ldr.w	r7, [sp], #4
 80045ee:	4770      	bx	lr
 80045f0:	20000870 	.word	0x20000870
 80045f4:	20000a78 	.word	0x20000a78

080045f8 <XMC_USBD_lHandleUSBReset>:
 * When ever the host sets the bus into reset condition the usb otg_core generates
 * an interrupt, which is handled by this function. It resets the complete otg_core
 * into the default state.
 */
static void XMC_USBD_lHandleUSBReset(const XMC_USBD_t *const obj) 
{
 80045f8:	b580      	push	{r7, lr}
 80045fa:	b088      	sub	sp, #32
 80045fc:	af00      	add	r7, sp, #0
 80045fe:	6078      	str	r0, [r7, #4]
  fifosize_data_t gnptxfsiz;
  daint_data_t daint;
  dcfg_data_t dcfg;
	
  /* Clear the Remote Wakeup Signaling */
  dctl.d32 = xmc_device.device_register->dctl;
 8004600:	4b50      	ldr	r3, [pc, #320]	; (8004744 <XMC_USBD_lHandleUSBReset+0x14c>)
 8004602:	f8d3 31a4 	ldr.w	r3, [r3, #420]	; 0x1a4
 8004606:	685b      	ldr	r3, [r3, #4]
 8004608:	617b      	str	r3, [r7, #20]
  dctl.b.rmtwkupsig = 1U;
 800460a:	7d3b      	ldrb	r3, [r7, #20]
 800460c:	f043 0301 	orr.w	r3, r3, #1
 8004610:	753b      	strb	r3, [r7, #20]
  xmc_device.device_register->dctl = dctl.d32;
 8004612:	4b4c      	ldr	r3, [pc, #304]	; (8004744 <XMC_USBD_lHandleUSBReset+0x14c>)
 8004614:	f8d3 31a4 	ldr.w	r3, [r3, #420]	; 0x1a4
 8004618:	697a      	ldr	r2, [r7, #20]
 800461a:	605a      	str	r2, [r3, #4]

  /* enable naks for all eps */
  for (i = 0U;i < (uint8_t)XMC_USBD_NUM_EPS;i++)
 800461c:	2300      	movs	r3, #0
 800461e:	61fb      	str	r3, [r7, #28]
 8004620:	e01a      	b.n	8004658 <XMC_USBD_lHandleUSBReset+0x60>
  {
    epctl.d32 = xmc_device.endpoint_out_register[i]->doepctl;
 8004622:	4a48      	ldr	r2, [pc, #288]	; (8004744 <XMC_USBD_lHandleUSBReset+0x14c>)
 8004624:	69fb      	ldr	r3, [r7, #28]
 8004626:	3370      	adds	r3, #112	; 0x70
 8004628:	009b      	lsls	r3, r3, #2
 800462a:	4413      	add	r3, r2
 800462c:	685b      	ldr	r3, [r3, #4]
 800462e:	681b      	ldr	r3, [r3, #0]
 8004630:	61bb      	str	r3, [r7, #24]
		epctl.b.snak = 1U;
 8004632:	7efb      	ldrb	r3, [r7, #27]
 8004634:	f043 0308 	orr.w	r3, r3, #8
 8004638:	76fb      	strb	r3, [r7, #27]
		epctl.b.stall = 0U;
 800463a:	7ebb      	ldrb	r3, [r7, #26]
 800463c:	f36f 1345 	bfc	r3, #5, #1
 8004640:	76bb      	strb	r3, [r7, #26]
		xmc_device.endpoint_out_register[i]->doepctl = epctl.d32;
 8004642:	4a40      	ldr	r2, [pc, #256]	; (8004744 <XMC_USBD_lHandleUSBReset+0x14c>)
 8004644:	69fb      	ldr	r3, [r7, #28]
 8004646:	3370      	adds	r3, #112	; 0x70
 8004648:	009b      	lsls	r3, r3, #2
 800464a:	4413      	add	r3, r2
 800464c:	685b      	ldr	r3, [r3, #4]
 800464e:	69ba      	ldr	r2, [r7, #24]
 8004650:	601a      	str	r2, [r3, #0]
  for (i = 0U;i < (uint8_t)XMC_USBD_NUM_EPS;i++)
 8004652:	69fb      	ldr	r3, [r7, #28]
 8004654:	3301      	adds	r3, #1
 8004656:	61fb      	str	r3, [r7, #28]
 8004658:	69fb      	ldr	r3, [r7, #28]
 800465a:	2b06      	cmp	r3, #6
 800465c:	d9e1      	bls.n	8004622 <XMC_USBD_lHandleUSBReset+0x2a>
  }

  /* Configure fifos */
  /* Calculate the size of the rx fifo */
  xmc_device.global_register->grxfsiz = 64U;
 800465e:	4b39      	ldr	r3, [pc, #228]	; (8004744 <XMC_USBD_lHandleUSBReset+0x14c>)
 8004660:	f8d3 31a0 	ldr.w	r3, [r3, #416]	; 0x1a0
 8004664:	2240      	movs	r2, #64	; 0x40
 8004666:	625a      	str	r2, [r3, #36]	; 0x24
  /* Calculate the size of the tx fifo for ep 0 */  
  gnptxfsiz.d32 = 0U;
 8004668:	2300      	movs	r3, #0
 800466a:	613b      	str	r3, [r7, #16]
  gnptxfsiz.b.depth = 16U;
 800466c:	2310      	movs	r3, #16
 800466e:	827b      	strh	r3, [r7, #18]
  gnptxfsiz.b.startaddr = 64U;
 8004670:	2340      	movs	r3, #64	; 0x40
 8004672:	823b      	strh	r3, [r7, #16]
  xmc_device.global_register->gnptxfsiz = gnptxfsiz.d32;
 8004674:	4b33      	ldr	r3, [pc, #204]	; (8004744 <XMC_USBD_lHandleUSBReset+0x14c>)
 8004676:	f8d3 31a0 	ldr.w	r3, [r3, #416]	; 0x1a0
 800467a:	693a      	ldr	r2, [r7, #16]
 800467c:	629a      	str	r2, [r3, #40]	; 0x28
  /* calculate the size for the rest */
  for (i = 1U;i < (uint8_t)XMC_USBD_NUM_TX_FIFOS;i++)
 800467e:	2301      	movs	r3, #1
 8004680:	61fb      	str	r3, [r7, #28]
 8004682:	e011      	b.n	80046a8 <XMC_USBD_lHandleUSBReset+0xb0>
  {
    xmc_device.global_register->dtxfsiz[i- 1U] = (uint32_t)(((256U + (i*(64U)))/4U) | ((uint32_t)16U << 16U));
 8004684:	69fb      	ldr	r3, [r7, #28]
 8004686:	3304      	adds	r3, #4
 8004688:	019b      	lsls	r3, r3, #6
 800468a:	089a      	lsrs	r2, r3, #2
 800468c:	4b2d      	ldr	r3, [pc, #180]	; (8004744 <XMC_USBD_lHandleUSBReset+0x14c>)
 800468e:	f8d3 11a0 	ldr.w	r1, [r3, #416]	; 0x1a0
 8004692:	69fb      	ldr	r3, [r7, #28]
 8004694:	3b01      	subs	r3, #1
 8004696:	f442 1280 	orr.w	r2, r2, #1048576	; 0x100000
 800469a:	3340      	adds	r3, #64	; 0x40
 800469c:	009b      	lsls	r3, r3, #2
 800469e:	440b      	add	r3, r1
 80046a0:	605a      	str	r2, [r3, #4]
  for (i = 1U;i < (uint8_t)XMC_USBD_NUM_TX_FIFOS;i++)
 80046a2:	69fb      	ldr	r3, [r7, #28]
 80046a4:	3301      	adds	r3, #1
 80046a6:	61fb      	str	r3, [r7, #28]
 80046a8:	69fb      	ldr	r3, [r7, #28]
 80046aa:	2b06      	cmp	r3, #6
 80046ac:	d9ea      	bls.n	8004684 <XMC_USBD_lHandleUSBReset+0x8c>
  }

  /* flush the fifos for proper operation */
  XMC_USBD_lFlushTXFifo(0x10U); /* 0x10 == all fifos, see doc */
 80046ae:	2010      	movs	r0, #16
 80046b0:	f7ff fd50 	bl	8004154 <XMC_USBD_lFlushTXFifo>
  XMC_USBD_lFlushTXFifo(0x0U);
 80046b4:	2000      	movs	r0, #0
 80046b6:	f7ff fd4d 	bl	8004154 <XMC_USBD_lFlushTXFifo>
  XMC_USBD_lFlushRXFifo();
 80046ba:	f7ff fd8b 	bl	80041d4 <XMC_USBD_lFlushRXFifo>
  /* Flush learning queue not needed due to fifo config */
  /* enable ep0 interrupts */  
  daint.d32 = 0U;
 80046be:	2300      	movs	r3, #0
 80046c0:	60fb      	str	r3, [r7, #12]
  daint.b.inep0 = 1U;
 80046c2:	7b3b      	ldrb	r3, [r7, #12]
 80046c4:	f043 0301 	orr.w	r3, r3, #1
 80046c8:	733b      	strb	r3, [r7, #12]
  daint.b.outep0 = 1U;
 80046ca:	7bbb      	ldrb	r3, [r7, #14]
 80046cc:	f043 0301 	orr.w	r3, r3, #1
 80046d0:	73bb      	strb	r3, [r7, #14]
  xmc_device.device_register->daintmsk = daint.d32;
 80046d2:	4b1c      	ldr	r3, [pc, #112]	; (8004744 <XMC_USBD_lHandleUSBReset+0x14c>)
 80046d4:	f8d3 31a4 	ldr.w	r3, [r3, #420]	; 0x1a4
 80046d8:	68fa      	ldr	r2, [r7, #12]
 80046da:	61da      	str	r2, [r3, #28]

  /* enable endpoint interrupts */
  /* out ep interrupts */
  XMC_USBD_EnableEventOUTEP(((uint32_t)XMC_USBD_EVENT_OUT_EP_TX_COMPLET | (uint32_t)XMC_USBD_EVENT_OUT_EP_DISABLED |
 80046dc:	200f      	movs	r0, #15
 80046de:	f000 fbf9 	bl	8004ed4 <XMC_USBD_EnableEventOUTEP>
		  	  	  	  	  	  (uint32_t)XMC_USBD_EVENT_OUT_EP_SETUP | (uint32_t)XMC_USBD_EVENT_OUT_EP_AHB_ERROR));

  /*in ep interrupts */
  XMC_USBD_EnableEventINEP(((uint32_t)XMC_USBD_EVENT_IN_EP_TX_COMPLET | (uint32_t)XMC_USBD_EVENT_IN_EP_DISABLED |
 80046e2:	200f      	movs	r0, #15
 80046e4:	f000 fc0e 	bl	8004f04 <XMC_USBD_EnableEventINEP>
		  (uint32_t)XMC_USBD_EVENT_IN_EP_AHB_ERROR | (uint32_t)XMC_USBD_EVENT_IN_EP_TIMEOUT));


  /* Clear device Address */  
  dcfg.d32 = xmc_device.device_register->dcfg;
 80046e8:	4b16      	ldr	r3, [pc, #88]	; (8004744 <XMC_USBD_lHandleUSBReset+0x14c>)
 80046ea:	f8d3 31a4 	ldr.w	r3, [r3, #420]	; 0x1a4
 80046ee:	681b      	ldr	r3, [r3, #0]
 80046f0:	60bb      	str	r3, [r7, #8]
  dcfg.b.devaddr = 0U;
 80046f2:	893b      	ldrh	r3, [r7, #8]
 80046f4:	f36f 130a 	bfc	r3, #4, #7
 80046f8:	813b      	strh	r3, [r7, #8]
  xmc_device.device_register->dcfg = dcfg.d32;
 80046fa:	4b12      	ldr	r3, [pc, #72]	; (8004744 <XMC_USBD_lHandleUSBReset+0x14c>)
 80046fc:	f8d3 31a4 	ldr.w	r3, [r3, #420]	; 0x1a4
 8004700:	68ba      	ldr	r2, [r7, #8]
 8004702:	601a      	str	r2, [r3, #0]

  if(obj->usbd_transfer_mode == XMC_USBD_USE_FIFO)
 8004704:	687b      	ldr	r3, [r7, #4]
 8004706:	7b5b      	ldrb	r3, [r3, #13]
 8004708:	2b01      	cmp	r3, #1
 800470a:	d104      	bne.n	8004716 <XMC_USBD_lHandleUSBReset+0x11e>
  {
    /* Clear Empty interrupt */
    xmc_device.device_register->dtknqr4_fifoemptymsk = 0U;
 800470c:	4b0d      	ldr	r3, [pc, #52]	; (8004744 <XMC_USBD_lHandleUSBReset+0x14c>)
 800470e:	f8d3 31a4 	ldr.w	r3, [r3, #420]	; 0x1a4
 8004712:	2200      	movs	r2, #0
 8004714:	635a      	str	r2, [r3, #52]	; 0x34
  }

  xmc_device.ep[0U].outInUse = 0U;
 8004716:	4a0b      	ldr	r2, [pc, #44]	; (8004744 <XMC_USBD_lHandleUSBReset+0x14c>)
 8004718:	6853      	ldr	r3, [r2, #4]
 800471a:	f36f 1304 	bfc	r3, #4, #1
 800471e:	6053      	str	r3, [r2, #4]
  xmc_device.ep[0U].inInUse = 0U;
 8004720:	4a08      	ldr	r2, [pc, #32]	; (8004744 <XMC_USBD_lHandleUSBReset+0x14c>)
 8004722:	6853      	ldr	r3, [r2, #4]
 8004724:	f36f 03c3 	bfc	r3, #3, #1
 8004728:	6053      	str	r3, [r2, #4]

  xmc_device.DeviceEvent_cb(XMC_USBD_EVENT_RESET);
 800472a:	4b06      	ldr	r3, [pc, #24]	; (8004744 <XMC_USBD_lHandleUSBReset+0x14c>)
 800472c:	f8d3 3200 	ldr.w	r3, [r3, #512]	; 0x200
 8004730:	2004      	movs	r0, #4
 8004732:	4798      	blx	r3

  /* clear reset intr */
  XMC_USBD_ClearEvent(XMC_USBD_EVENT_RESET);
 8004734:	2004      	movs	r0, #4
 8004736:	f000 fb21 	bl	8004d7c <XMC_USBD_ClearEvent>
}
 800473a:	bf00      	nop
 800473c:	3720      	adds	r7, #32
 800473e:	46bd      	mov	sp, r7
 8004740:	bd80      	pop	{r7, pc}
 8004742:	bf00      	nop
 8004744:	20000870 	.word	0x20000870

08004748 <XMC_USBD_lHandleOTGInt>:
* @brief Handle OTG Interrupt
*
* It detects especially connect and disconnect events.
*/
static void XMC_USBD_lHandleOTGInt(void) 
{
 8004748:	b580      	push	{r7, lr}
 800474a:	b082      	sub	sp, #8
 800474c:	af00      	add	r7, sp, #0
  gotgint_data_t data;
  data.d32 = xmc_device.global_register->gotgint;
 800474e:	4b0f      	ldr	r3, [pc, #60]	; (800478c <XMC_USBD_lHandleOTGInt+0x44>)
 8004750:	f8d3 31a0 	ldr.w	r3, [r3, #416]	; 0x1a0
 8004754:	685b      	ldr	r3, [r3, #4]
 8004756:	607b      	str	r3, [r7, #4]
  if (data.b.sesenddet)
 8004758:	793b      	ldrb	r3, [r7, #4]
 800475a:	f003 0304 	and.w	r3, r3, #4
 800475e:	b2db      	uxtb	r3, r3
 8004760:	2b00      	cmp	r3, #0
 8004762:	d00b      	beq.n	800477c <XMC_USBD_lHandleOTGInt+0x34>
  {
		xmc_device.IsPowered = 0U;
 8004764:	4a09      	ldr	r2, [pc, #36]	; (800478c <XMC_USBD_lHandleOTGInt+0x44>)
 8004766:	f892 31fe 	ldrb.w	r3, [r2, #510]	; 0x1fe
 800476a:	f36f 0382 	bfc	r3, #2, #1
 800476e:	f882 31fe 	strb.w	r3, [r2, #510]	; 0x1fe
		xmc_device.DeviceEvent_cb(XMC_USBD_EVENT_POWER_OFF);
 8004772:	4b06      	ldr	r3, [pc, #24]	; (800478c <XMC_USBD_lHandleOTGInt+0x44>)
 8004774:	f8d3 3200 	ldr.w	r3, [r3, #512]	; 0x200
 8004778:	2001      	movs	r0, #1
 800477a:	4798      	blx	r3
  }
  XMC_USBD_lClearEventOTG(data.d32);
 800477c:	687b      	ldr	r3, [r7, #4]
 800477e:	4618      	mov	r0, r3
 8004780:	f000 fb62 	bl	8004e48 <XMC_USBD_lClearEventOTG>

}
 8004784:	bf00      	nop
 8004786:	3708      	adds	r7, #8
 8004788:	46bd      	mov	sp, r7
 800478a:	bd80      	pop	{r7, pc}
 800478c:	20000870 	.word	0x20000870

08004790 <XMC_USBD_lHandleEnumDone>:
 * @brief Interrupt handler for device enumeration done.
 *
 * Handles the enumeration done from dwc_otg, when the host has enumerated the device.
 */
static void XMC_USBD_lHandleEnumDone(void) 
{
 8004790:	b580      	push	{r7, lr}
 8004792:	b082      	sub	sp, #8
 8004794:	af00      	add	r7, sp, #0
  /* Normaly we need to check dctl
   * We are always fullspeed, so max it up. */
  depctl_data_t epctl;
  gusbcfg_data_t gusbcfg;
	
  epctl.d32=xmc_device.endpoint_in_register[0U]->diepctl;
 8004796:	4b1b      	ldr	r3, [pc, #108]	; (8004804 <XMC_USBD_lHandleEnumDone+0x74>)
 8004798:	f8d3 31a8 	ldr.w	r3, [r3, #424]	; 0x1a8
 800479c:	681b      	ldr	r3, [r3, #0]
 800479e:	607b      	str	r3, [r7, #4]
  epctl.b.mps = 0x00U; /* 64 Byte, this is also automatically set for out ep */
 80047a0:	88bb      	ldrh	r3, [r7, #4]
 80047a2:	f36f 030a 	bfc	r3, #0, #11
 80047a6:	80bb      	strh	r3, [r7, #4]
  xmc_device.endpoint_in_register[0U]->diepctl = epctl.d32;
 80047a8:	4b16      	ldr	r3, [pc, #88]	; (8004804 <XMC_USBD_lHandleEnumDone+0x74>)
 80047aa:	f8d3 31a8 	ldr.w	r3, [r3, #424]	; 0x1a8
 80047ae:	687a      	ldr	r2, [r7, #4]
 80047b0:	601a      	str	r2, [r3, #0]

  /* update device connected flag */
  xmc_device.IsConnected = 1U;
 80047b2:	4a14      	ldr	r2, [pc, #80]	; (8004804 <XMC_USBD_lHandleEnumDone+0x74>)
 80047b4:	f892 31fe 	ldrb.w	r3, [r2, #510]	; 0x1fe
 80047b8:	f043 0301 	orr.w	r3, r3, #1
 80047bc:	f882 31fe 	strb.w	r3, [r2, #510]	; 0x1fe
  xmc_device.IsPowered = 1U;
 80047c0:	4a10      	ldr	r2, [pc, #64]	; (8004804 <XMC_USBD_lHandleEnumDone+0x74>)
 80047c2:	f892 31fe 	ldrb.w	r3, [r2, #510]	; 0x1fe
 80047c6:	f043 0304 	orr.w	r3, r3, #4
 80047ca:	f882 31fe 	strb.w	r3, [r2, #510]	; 0x1fe

  xmc_device.DeviceEvent_cb(XMC_USBD_EVENT_CONNECT);
 80047ce:	4b0d      	ldr	r3, [pc, #52]	; (8004804 <XMC_USBD_lHandleEnumDone+0x74>)
 80047d0:	f8d3 3200 	ldr.w	r3, [r3, #512]	; 0x200
 80047d4:	2002      	movs	r0, #2
 80047d6:	4798      	blx	r3

  /* Set Trim */  
  gusbcfg.d32 = xmc_device.global_register->gusbcfg;
 80047d8:	4b0a      	ldr	r3, [pc, #40]	; (8004804 <XMC_USBD_lHandleEnumDone+0x74>)
 80047da:	f8d3 31a0 	ldr.w	r3, [r3, #416]	; 0x1a0
 80047de:	68db      	ldr	r3, [r3, #12]
 80047e0:	603b      	str	r3, [r7, #0]
  gusbcfg.b.usbtrdtim = 9U; /* default value for LS/FS */
 80047e2:	787b      	ldrb	r3, [r7, #1]
 80047e4:	2209      	movs	r2, #9
 80047e6:	f362 0385 	bfi	r3, r2, #2, #4
 80047ea:	707b      	strb	r3, [r7, #1]
  xmc_device.global_register->gusbcfg = gusbcfg.d32;
 80047ec:	4b05      	ldr	r3, [pc, #20]	; (8004804 <XMC_USBD_lHandleEnumDone+0x74>)
 80047ee:	f8d3 31a0 	ldr.w	r3, [r3, #416]	; 0x1a0
 80047f2:	683a      	ldr	r2, [r7, #0]
 80047f4:	60da      	str	r2, [r3, #12]

  /* clear interrupt */
  XMC_USBD_ClearEvent(XMC_USBD_EVENT_ENUMDONE);
 80047f6:	200b      	movs	r0, #11
 80047f8:	f000 fac0 	bl	8004d7c <XMC_USBD_ClearEvent>
}
 80047fc:	bf00      	nop
 80047fe:	3708      	adds	r7, #8
 8004800:	46bd      	mov	sp, r7
 8004802:	bd80      	pop	{r7, pc}
 8004804:	20000870 	.word	0x20000870

08004808 <XMC_USBD_lHandleOEPInt>:
 *
 * The interrupt handler first checks, which endpoint has caused the interrupt and then
 * determines, which interrupt should be handled.
 */
static void XMC_USBD_lHandleOEPInt(const XMC_USBD_t *const obj) 
{
 8004808:	b580      	push	{r7, lr}
 800480a:	b08c      	sub	sp, #48	; 0x30
 800480c:	af00      	add	r7, sp, #0
 800480e:	6078      	str	r0, [r7, #4]
  uint16_t temp;
  uint16_t temp1;
  uint16_t mask;
  uint8_t ep_num;
	
  daint.d32 = xmc_device.device_register->daint;
 8004810:	4b69      	ldr	r3, [pc, #420]	; (80049b8 <XMC_USBD_lHandleOEPInt+0x1b0>)
 8004812:	f8d3 31a4 	ldr.w	r3, [r3, #420]	; 0x1a4
 8004816:	699b      	ldr	r3, [r3, #24]
 8004818:	61fb      	str	r3, [r7, #28]
  
  daintmsk.d32 = xmc_device.device_register->daintmsk;
 800481a:	4b67      	ldr	r3, [pc, #412]	; (80049b8 <XMC_USBD_lHandleOEPInt+0x1b0>)
 800481c:	f8d3 31a4 	ldr.w	r3, [r3, #420]	; 0x1a4
 8004820:	69db      	ldr	r3, [r3, #28]
 8004822:	61bb      	str	r3, [r7, #24]
  
  doepmsk.d32 = xmc_device.device_register->doepmsk;  
 8004824:	4b64      	ldr	r3, [pc, #400]	; (80049b8 <XMC_USBD_lHandleOEPInt+0x1b0>)
 8004826:	f8d3 31a4 	ldr.w	r3, [r3, #420]	; 0x1a4
 800482a:	695b      	ldr	r3, [r3, #20]
 800482c:	617b      	str	r3, [r7, #20]
  
  mask = daint.ep.out & daintmsk.ep.out;
 800482e:	8bfa      	ldrh	r2, [r7, #30]
 8004830:	8b7b      	ldrh	r3, [r7, #26]
 8004832:	4013      	ands	r3, r2
 8004834:	85bb      	strh	r3, [r7, #44]	; 0x2c
  ep_num = 0U;
 8004836:	2300      	movs	r3, #0
 8004838:	f887 302f 	strb.w	r3, [r7, #47]	; 0x2f
  doeptsiz.d32 = 0U;
 800483c:	2300      	movs	r3, #0
 800483e:	60fb      	str	r3, [r7, #12]
 
  while ((uint16_t)mask >> ep_num)
 8004840:	e0aa      	b.n	8004998 <XMC_USBD_lHandleOEPInt+0x190>
  {
    temp1 = (mask >> (uint16_t)ep_num);
 8004842:	8dba      	ldrh	r2, [r7, #44]	; 0x2c
 8004844:	f897 302f 	ldrb.w	r3, [r7, #47]	; 0x2f
 8004848:	fa42 f303 	asr.w	r3, r2, r3
 800484c:	857b      	strh	r3, [r7, #42]	; 0x2a
    temp = temp1 & 0x1U;
 800484e:	8d7b      	ldrh	r3, [r7, #42]	; 0x2a
 8004850:	f003 0301 	and.w	r3, r3, #1
 8004854:	853b      	strh	r3, [r7, #40]	; 0x28
    if (temp)
 8004856:	8d3b      	ldrh	r3, [r7, #40]	; 0x28
 8004858:	2b00      	cmp	r3, #0
 800485a:	f000 8098 	beq.w	800498e <XMC_USBD_lHandleOEPInt+0x186>
    {
      /* load register data for endpoint */
      ep = &xmc_device.ep[ep_num];
 800485e:	f897 302f 	ldrb.w	r3, [r7, #47]	; 0x2f
 8004862:	2234      	movs	r2, #52	; 0x34
 8004864:	fb02 f303 	mul.w	r3, r2, r3
 8004868:	4a53      	ldr	r2, [pc, #332]	; (80049b8 <XMC_USBD_lHandleOEPInt+0x1b0>)
 800486a:	4413      	add	r3, r2
 800486c:	627b      	str	r3, [r7, #36]	; 0x24
      doepint.d32 = xmc_device.endpoint_out_register[ep_num]->doepint & doepmsk.d32;
 800486e:	f897 302f 	ldrb.w	r3, [r7, #47]	; 0x2f
 8004872:	4a51      	ldr	r2, [pc, #324]	; (80049b8 <XMC_USBD_lHandleOEPInt+0x1b0>)
 8004874:	3370      	adds	r3, #112	; 0x70
 8004876:	009b      	lsls	r3, r3, #2
 8004878:	4413      	add	r3, r2
 800487a:	685b      	ldr	r3, [r3, #4]
 800487c:	689a      	ldr	r2, [r3, #8]
 800487e:	697b      	ldr	r3, [r7, #20]
 8004880:	4013      	ands	r3, r2
 8004882:	613b      	str	r3, [r7, #16]
      if(obj->usbd_transfer_mode == XMC_USBD_USE_DMA)
 8004884:	687b      	ldr	r3, [r7, #4]
 8004886:	7b5b      	ldrb	r3, [r3, #13]
 8004888:	2b00      	cmp	r3, #0
 800488a:	d108      	bne.n	800489e <XMC_USBD_lHandleOEPInt+0x96>
      {
        doeptsiz.d32 = xmc_device.endpoint_out_register[ep_num]->doeptsiz;
 800488c:	f897 302f 	ldrb.w	r3, [r7, #47]	; 0x2f
 8004890:	4a49      	ldr	r2, [pc, #292]	; (80049b8 <XMC_USBD_lHandleOEPInt+0x1b0>)
 8004892:	3370      	adds	r3, #112	; 0x70
 8004894:	009b      	lsls	r3, r3, #2
 8004896:	4413      	add	r3, r2
 8004898:	685b      	ldr	r3, [r3, #4]
 800489a:	691b      	ldr	r3, [r3, #16]
 800489c:	60fb      	str	r3, [r7, #12]
      }
	  /* Setup Phase Complete */
      if (doepint.b.setup)
 800489e:	7c3b      	ldrb	r3, [r7, #16]
 80048a0:	f003 0308 	and.w	r3, r3, #8
 80048a4:	b2db      	uxtb	r3, r3
 80048a6:	2b00      	cmp	r3, #0
 80048a8:	d02f      	beq.n	800490a <XMC_USBD_lHandleOEPInt+0x102>
      {
        /* ep0 not stalled any more */
        ep->isStalled = 0U;
 80048aa:	6a7a      	ldr	r2, [r7, #36]	; 0x24
 80048ac:	7913      	ldrb	r3, [r2, #4]
 80048ae:	f36f 1345 	bfc	r3, #5, #1
 80048b2:	7113      	strb	r3, [r2, #4]
        if(obj->usbd_transfer_mode == XMC_USBD_USE_DMA)
 80048b4:	687b      	ldr	r3, [r7, #4]
 80048b6:	7b5b      	ldrb	r3, [r3, #13]
 80048b8:	2b00      	cmp	r3, #0
 80048ba:	d10a      	bne.n	80048d2 <XMC_USBD_lHandleOEPInt+0xca>
        {
          /* calculate size for setup packet */
		  ep->outBytesAvailable = (uint32_t)(((uint32_t)XMC_USBD_SETUP_COUNT -
		  (uint32_t)((deptsiz0_data_t*)&doeptsiz)->b.supcnt)*(uint32_t)XMC_USBD_SETUP_SIZE);
 80048bc:	f107 030c 	add.w	r3, r7, #12
 80048c0:	78db      	ldrb	r3, [r3, #3]
 80048c2:	f3c3 1341 	ubfx	r3, r3, #5, #2
 80048c6:	b2db      	uxtb	r3, r3
		  ep->outBytesAvailable = (uint32_t)(((uint32_t)XMC_USBD_SETUP_COUNT -
 80048c8:	f1c3 0303 	rsb	r3, r3, #3
 80048cc:	00da      	lsls	r2, r3, #3
 80048ce:	6a7b      	ldr	r3, [r7, #36]	; 0x24
 80048d0:	611a      	str	r2, [r3, #16]
        }
		if(obj->usbd_transfer_mode == XMC_USBD_USE_FIFO)
 80048d2:	687b      	ldr	r3, [r7, #4]
 80048d4:	7b5b      	ldrb	r3, [r3, #13]
 80048d6:	2b01      	cmp	r3, #1
 80048d8:	d106      	bne.n	80048e8 <XMC_USBD_lHandleOEPInt+0xe0>
		{
			ep->outBytesAvailable += ep->xferCount;
 80048da:	6a7b      	ldr	r3, [r7, #36]	; 0x24
 80048dc:	691a      	ldr	r2, [r3, #16]
 80048de:	6a7b      	ldr	r3, [r7, #36]	; 0x24
 80048e0:	6adb      	ldr	r3, [r3, #44]	; 0x2c
 80048e2:	441a      	add	r2, r3
 80048e4:	6a7b      	ldr	r3, [r7, #36]	; 0x24
 80048e6:	611a      	str	r2, [r3, #16]
		}
		ep->outInUse = 0U;
 80048e8:	6a7a      	ldr	r2, [r7, #36]	; 0x24
 80048ea:	6853      	ldr	r3, [r2, #4]
 80048ec:	f36f 1304 	bfc	r3, #4, #1
 80048f0:	6053      	str	r3, [r2, #4]
		xmc_device.EndpointEvent_cb(0U,XMC_USBD_EP_EVENT_SETUP); /* signal endpoint event */
 80048f2:	4b31      	ldr	r3, [pc, #196]	; (80049b8 <XMC_USBD_lHandleOEPInt+0x1b0>)
 80048f4:	f8d3 3204 	ldr.w	r3, [r3, #516]	; 0x204
 80048f8:	2100      	movs	r1, #0
 80048fa:	2000      	movs	r0, #0
 80048fc:	4798      	blx	r3
				/* clear the interrupt */
		XMC_USBD_ClearEventOUTEP((uint32_t)XMC_USBD_EVENT_OUT_EP_SETUP,ep_num);
 80048fe:	f897 302f 	ldrb.w	r3, [r7, #47]	; 0x2f
 8004902:	4619      	mov	r1, r3
 8004904:	2008      	movs	r0, #8
 8004906:	f000 facd 	bl	8004ea4 <XMC_USBD_ClearEventOUTEP>
      }
      if (doepint.b.xfercompl)
 800490a:	7c3b      	ldrb	r3, [r7, #16]
 800490c:	f003 0301 	and.w	r3, r3, #1
 8004910:	b2db      	uxtb	r3, r3
 8004912:	2b00      	cmp	r3, #0
 8004914:	d034      	beq.n	8004980 <XMC_USBD_lHandleOEPInt+0x178>
      {
        if(obj->usbd_transfer_mode == XMC_USBD_USE_DMA)
 8004916:	687b      	ldr	r3, [r7, #4]
 8004918:	7b5b      	ldrb	r3, [r3, #13]
 800491a:	2b00      	cmp	r3, #0
 800491c:	d115      	bne.n	800494a <XMC_USBD_lHandleOEPInt+0x142>
        {
          uint32_t bytes = (ep->xferLength - ep->xferCount) - doeptsiz.b.xfersize;
 800491e:	6a7b      	ldr	r3, [r7, #36]	; 0x24
 8004920:	6a9a      	ldr	r2, [r3, #40]	; 0x28
 8004922:	6a7b      	ldr	r3, [r7, #36]	; 0x24
 8004924:	6adb      	ldr	r3, [r3, #44]	; 0x2c
 8004926:	1ad3      	subs	r3, r2, r3
 8004928:	68fa      	ldr	r2, [r7, #12]
 800492a:	f3c2 0212 	ubfx	r2, r2, #0, #19
 800492e:	1a9b      	subs	r3, r3, r2
 8004930:	623b      	str	r3, [r7, #32]
          ep->xferCount += bytes;
 8004932:	6a7b      	ldr	r3, [r7, #36]	; 0x24
 8004934:	6ada      	ldr	r2, [r3, #44]	; 0x2c
 8004936:	6a3b      	ldr	r3, [r7, #32]
 8004938:	441a      	add	r2, r3
 800493a:	6a7b      	ldr	r3, [r7, #36]	; 0x24
 800493c:	62da      	str	r2, [r3, #44]	; 0x2c
          ep->xferBuffer += bytes;
 800493e:	6a7b      	ldr	r3, [r7, #36]	; 0x24
 8004940:	6a5a      	ldr	r2, [r3, #36]	; 0x24
 8004942:	6a3b      	ldr	r3, [r7, #32]
 8004944:	441a      	add	r2, r3
 8004946:	6a7b      	ldr	r3, [r7, #36]	; 0x24
 8004948:	625a      	str	r2, [r3, #36]	; 0x24
				}
        if (ep->xferTotal == ep->xferLength)
 800494a:	6a7b      	ldr	r3, [r7, #36]	; 0x24
 800494c:	6b1a      	ldr	r2, [r3, #48]	; 0x30
 800494e:	6a7b      	ldr	r3, [r7, #36]	; 0x24
 8004950:	6a9b      	ldr	r3, [r3, #40]	; 0x28
 8004952:	429a      	cmp	r2, r3
 8004954:	d111      	bne.n	800497a <XMC_USBD_lHandleOEPInt+0x172>
        {
          ep->outBytesAvailable = ep->xferCount;
 8004956:	6a7b      	ldr	r3, [r7, #36]	; 0x24
 8004958:	6ada      	ldr	r2, [r3, #44]	; 0x2c
 800495a:	6a7b      	ldr	r3, [r7, #36]	; 0x24
 800495c:	611a      	str	r2, [r3, #16]
          ep->outInUse = 0U;
 800495e:	6a7a      	ldr	r2, [r7, #36]	; 0x24
 8004960:	6853      	ldr	r3, [r2, #4]
 8004962:	f36f 1304 	bfc	r3, #4, #1
 8004966:	6053      	str	r3, [r2, #4]
          xmc_device.EndpointEvent_cb(ep_num,XMC_USBD_EP_EVENT_OUT);
 8004968:	4b13      	ldr	r3, [pc, #76]	; (80049b8 <XMC_USBD_lHandleOEPInt+0x1b0>)
 800496a:	f8d3 3204 	ldr.w	r3, [r3, #516]	; 0x204
 800496e:	f897 202f 	ldrb.w	r2, [r7, #47]	; 0x2f
 8004972:	2101      	movs	r1, #1
 8004974:	4610      	mov	r0, r2
 8004976:	4798      	blx	r3
 8004978:	e002      	b.n	8004980 <XMC_USBD_lHandleOEPInt+0x178>
        }
        else
        {
          XMC_USBD_lStartReadXfer(ep);
 800497a:	6a78      	ldr	r0, [r7, #36]	; 0x24
 800497c:	f7ff fcb4 	bl	80042e8 <XMC_USBD_lStartReadXfer>
        }

      }

      XMC_USBD_ClearEventOUTEP(doepint.d32,ep_num);
 8004980:	693b      	ldr	r3, [r7, #16]
 8004982:	f897 202f 	ldrb.w	r2, [r7, #47]	; 0x2f
 8004986:	4611      	mov	r1, r2
 8004988:	4618      	mov	r0, r3
 800498a:	f000 fa8b 	bl	8004ea4 <XMC_USBD_ClearEventOUTEP>
    }
    ep_num++;
 800498e:	f897 302f 	ldrb.w	r3, [r7, #47]	; 0x2f
 8004992:	3301      	adds	r3, #1
 8004994:	f887 302f 	strb.w	r3, [r7, #47]	; 0x2f
  while ((uint16_t)mask >> ep_num)
 8004998:	8dba      	ldrh	r2, [r7, #44]	; 0x2c
 800499a:	f897 302f 	ldrb.w	r3, [r7, #47]	; 0x2f
 800499e:	fa42 f303 	asr.w	r3, r2, r3
 80049a2:	2b00      	cmp	r3, #0
 80049a4:	f47f af4d 	bne.w	8004842 <XMC_USBD_lHandleOEPInt+0x3a>
  }

  /* clear interrupt */
  XMC_USBD_ClearEvent(XMC_USBD_EVENT_OUTEP);
 80049a8:	200d      	movs	r0, #13
 80049aa:	f000 f9e7 	bl	8004d7c <XMC_USBD_ClearEvent>
}
 80049ae:	bf00      	nop
 80049b0:	3730      	adds	r7, #48	; 0x30
 80049b2:	46bd      	mov	sp, r7
 80049b4:	bd80      	pop	{r7, pc}
 80049b6:	bf00      	nop
 80049b8:	20000870 	.word	0x20000870

080049bc <XMC_USBD_lHandleIEPInt>:
 *
 * The interrupt handler first checks, which endpoint has caused the interrupt and then
 * determines, which interrupt should be handled.
 */
static void XMC_USBD_lHandleIEPInt(const XMC_USBD_t *const obj) 
{
 80049bc:	b580      	push	{r7, lr}
 80049be:	b08c      	sub	sp, #48	; 0x30
 80049c0:	af00      	add	r7, sp, #0
 80049c2:	6078      	str	r0, [r7, #4]
  uint16_t temp1;
  uint16_t mask;
  uint8_t ep_num;
  uint32_t inepint;
	
  daint.d32 = xmc_device.device_register->daint;
 80049c4:	4b6b      	ldr	r3, [pc, #428]	; (8004b74 <XMC_USBD_lHandleIEPInt+0x1b8>)
 80049c6:	f8d3 31a4 	ldr.w	r3, [r3, #420]	; 0x1a4
 80049ca:	699b      	ldr	r3, [r3, #24]
 80049cc:	617b      	str	r3, [r7, #20]
  
  diepmsk.d32 = xmc_device.device_register->diepmsk;
 80049ce:	4b69      	ldr	r3, [pc, #420]	; (8004b74 <XMC_USBD_lHandleIEPInt+0x1b8>)
 80049d0:	f8d3 31a4 	ldr.w	r3, [r3, #420]	; 0x1a4
 80049d4:	691b      	ldr	r3, [r3, #16]
 80049d6:	613b      	str	r3, [r7, #16]
  
  dieptsiz.d32 = 0U;
 80049d8:	2300      	movs	r3, #0
 80049da:	60bb      	str	r3, [r7, #8]
  mask = daint.ep.in;
 80049dc:	8abb      	ldrh	r3, [r7, #20]
 80049de:	85bb      	strh	r3, [r7, #44]	; 0x2c
  ep_num = 0U;
 80049e0:	2300      	movs	r3, #0
 80049e2:	f887 302f 	strb.w	r3, [r7, #47]	; 0x2f
  
  while ((uint16_t)mask >> ep_num)
 80049e6:	e0b6      	b.n	8004b56 <XMC_USBD_lHandleIEPInt+0x19a>
  {
    temp1 = ((uint16_t)mask >> (uint16_t)ep_num);
 80049e8:	8dba      	ldrh	r2, [r7, #44]	; 0x2c
 80049ea:	f897 302f 	ldrb.w	r3, [r7, #47]	; 0x2f
 80049ee:	fa42 f303 	asr.w	r3, r2, r3
 80049f2:	857b      	strh	r3, [r7, #42]	; 0x2a
    temp = (uint16_t)temp1 & (uint16_t)0x1U;
 80049f4:	8d7b      	ldrh	r3, [r7, #42]	; 0x2a
 80049f6:	f003 0301 	and.w	r3, r3, #1
 80049fa:	853b      	strh	r3, [r7, #40]	; 0x28
    if ((uint16_t)temp)
 80049fc:	8d3b      	ldrh	r3, [r7, #40]	; 0x28
 80049fe:	2b00      	cmp	r3, #0
 8004a00:	f000 80a4 	beq.w	8004b4c <XMC_USBD_lHandleIEPInt+0x190>
    {
      ep = &xmc_device.ep[ep_num];
 8004a04:	f897 302f 	ldrb.w	r3, [r7, #47]	; 0x2f
 8004a08:	2234      	movs	r2, #52	; 0x34
 8004a0a:	fb02 f303 	mul.w	r3, r2, r3
 8004a0e:	4a59      	ldr	r2, [pc, #356]	; (8004b74 <XMC_USBD_lHandleIEPInt+0x1b8>)
 8004a10:	4413      	add	r3, r2
 8004a12:	627b      	str	r3, [r7, #36]	; 0x24
			inepint = (uint32_t)xmc_device.endpoint_in_register[ep_num]->diepint;
 8004a14:	f897 302f 	ldrb.w	r3, [r7, #47]	; 0x2f
 8004a18:	4a56      	ldr	r2, [pc, #344]	; (8004b74 <XMC_USBD_lHandleIEPInt+0x1b8>)
 8004a1a:	336a      	adds	r3, #106	; 0x6a
 8004a1c:	f852 3023 	ldr.w	r3, [r2, r3, lsl #2]
 8004a20:	689b      	ldr	r3, [r3, #8]
 8004a22:	623b      	str	r3, [r7, #32]
      diepint.d32 = inepint &
      ((((uint32_t)((uint32_t)xmc_device.device_register->dtknqr4_fifoemptymsk >> ep->address_u.address_st.number) &
 8004a24:	4b53      	ldr	r3, [pc, #332]	; (8004b74 <XMC_USBD_lHandleIEPInt+0x1b8>)
 8004a26:	f8d3 31a4 	ldr.w	r3, [r3, #420]	; 0x1a4
 8004a2a:	6b5b      	ldr	r3, [r3, #52]	; 0x34
 8004a2c:	6a7a      	ldr	r2, [r7, #36]	; 0x24
 8004a2e:	7812      	ldrb	r2, [r2, #0]
 8004a30:	f3c2 0203 	ubfx	r2, r2, #0, #4
 8004a34:	b2d2      	uxtb	r2, r2
 8004a36:	40d3      	lsrs	r3, r2
                     0x1U) << 7U) | (uint32_t)diepmsk.d32);
 8004a38:	01db      	lsls	r3, r3, #7
 8004a3a:	f003 0280 	and.w	r2, r3, #128	; 0x80
 8004a3e:	693b      	ldr	r3, [r7, #16]
 8004a40:	431a      	orrs	r2, r3
      diepint.d32 = inepint &
 8004a42:	6a3b      	ldr	r3, [r7, #32]
 8004a44:	4013      	ands	r3, r2
 8004a46:	60fb      	str	r3, [r7, #12]
      if(obj->usbd_transfer_mode == XMC_USBD_USE_DMA)
 8004a48:	687b      	ldr	r3, [r7, #4]
 8004a4a:	7b5b      	ldrb	r3, [r3, #13]
 8004a4c:	2b00      	cmp	r3, #0
 8004a4e:	d107      	bne.n	8004a60 <XMC_USBD_lHandleIEPInt+0xa4>
      {
        dieptsiz.d32 = xmc_device.endpoint_in_register[ep_num]->dieptsiz;
 8004a50:	f897 302f 	ldrb.w	r3, [r7, #47]	; 0x2f
 8004a54:	4a47      	ldr	r2, [pc, #284]	; (8004b74 <XMC_USBD_lHandleIEPInt+0x1b8>)
 8004a56:	336a      	adds	r3, #106	; 0x6a
 8004a58:	f852 3023 	ldr.w	r3, [r2, r3, lsl #2]
 8004a5c:	691b      	ldr	r3, [r3, #16]
 8004a5e:	60bb      	str	r3, [r7, #8]
      }
      if(obj->usbd_transfer_mode == XMC_USBD_USE_FIFO)
 8004a60:	687b      	ldr	r3, [r7, #4]
 8004a62:	7b5b      	ldrb	r3, [r3, #13]
 8004a64:	2b01      	cmp	r3, #1
 8004a66:	d115      	bne.n	8004a94 <XMC_USBD_lHandleIEPInt+0xd8>
      {
        if (diepint.b.emptyintr)
 8004a68:	7b3b      	ldrb	r3, [r7, #12]
 8004a6a:	f023 037f 	bic.w	r3, r3, #127	; 0x7f
 8004a6e:	b2db      	uxtb	r3, r3
 8004a70:	2b00      	cmp	r3, #0
 8004a72:	d00f      	beq.n	8004a94 <XMC_USBD_lHandleIEPInt+0xd8>
        {
          uint32_t bytes;
          bytes = XMC_USBD_lWriteFifo(ep);
 8004a74:	6a78      	ldr	r0, [r7, #36]	; 0x24
 8004a76:	f7ff fb1b 	bl	80040b0 <XMC_USBD_lWriteFifo>
 8004a7a:	61f8      	str	r0, [r7, #28]
          ep->xferCount += bytes;
 8004a7c:	6a7b      	ldr	r3, [r7, #36]	; 0x24
 8004a7e:	6ada      	ldr	r2, [r3, #44]	; 0x2c
 8004a80:	69fb      	ldr	r3, [r7, #28]
 8004a82:	441a      	add	r2, r3
 8004a84:	6a7b      	ldr	r3, [r7, #36]	; 0x24
 8004a86:	62da      	str	r2, [r3, #44]	; 0x2c
          ep->xferBuffer += bytes;
 8004a88:	6a7b      	ldr	r3, [r7, #36]	; 0x24
 8004a8a:	6a5a      	ldr	r2, [r3, #36]	; 0x24
 8004a8c:	69fb      	ldr	r3, [r7, #28]
 8004a8e:	441a      	add	r2, r3
 8004a90:	6a7b      	ldr	r3, [r7, #36]	; 0x24
 8004a92:	625a      	str	r2, [r3, #36]	; 0x24
        }
      }
      if (diepint.b.xfercompl)
 8004a94:	7b3b      	ldrb	r3, [r7, #12]
 8004a96:	f003 0301 	and.w	r3, r3, #1
 8004a9a:	b2db      	uxtb	r3, r3
 8004a9c:	2b00      	cmp	r3, #0
 8004a9e:	d04e      	beq.n	8004b3e <XMC_USBD_lHandleIEPInt+0x182>
      {
        if(obj->usbd_transfer_mode == XMC_USBD_USE_DMA)
 8004aa0:	687b      	ldr	r3, [r7, #4]
 8004aa2:	7b5b      	ldrb	r3, [r3, #13]
 8004aa4:	2b00      	cmp	r3, #0
 8004aa6:	d11d      	bne.n	8004ae4 <XMC_USBD_lHandleIEPInt+0x128>
        {
          /* update xfer values */
          if ((dieptsiz.b.pktcnt == 0U) && (dieptsiz.b.xfersize == 0U))
 8004aa8:	897a      	ldrh	r2, [r7, #10]
 8004aaa:	f641 73f8 	movw	r3, #8184	; 0x1ff8
 8004aae:	4013      	ands	r3, r2
 8004ab0:	b29b      	uxth	r3, r3
 8004ab2:	2b00      	cmp	r3, #0
 8004ab4:	d116      	bne.n	8004ae4 <XMC_USBD_lHandleIEPInt+0x128>
 8004ab6:	68bb      	ldr	r3, [r7, #8]
 8004ab8:	f3c3 0312 	ubfx	r3, r3, #0, #19
 8004abc:	2b00      	cmp	r3, #0
 8004abe:	d111      	bne.n	8004ae4 <XMC_USBD_lHandleIEPInt+0x128>
          {
            uint32_t Bytes = ep->xferLength - ep->xferCount;
 8004ac0:	6a7b      	ldr	r3, [r7, #36]	; 0x24
 8004ac2:	6a9a      	ldr	r2, [r3, #40]	; 0x28
 8004ac4:	6a7b      	ldr	r3, [r7, #36]	; 0x24
 8004ac6:	6adb      	ldr	r3, [r3, #44]	; 0x2c
 8004ac8:	1ad3      	subs	r3, r2, r3
 8004aca:	61bb      	str	r3, [r7, #24]
            ep->xferCount += Bytes;
 8004acc:	6a7b      	ldr	r3, [r7, #36]	; 0x24
 8004ace:	6ada      	ldr	r2, [r3, #44]	; 0x2c
 8004ad0:	69bb      	ldr	r3, [r7, #24]
 8004ad2:	441a      	add	r2, r3
 8004ad4:	6a7b      	ldr	r3, [r7, #36]	; 0x24
 8004ad6:	62da      	str	r2, [r3, #44]	; 0x2c
            ep->xferBuffer += Bytes;
 8004ad8:	6a7b      	ldr	r3, [r7, #36]	; 0x24
 8004ada:	6a5a      	ldr	r2, [r3, #36]	; 0x24
 8004adc:	69bb      	ldr	r3, [r7, #24]
 8004ade:	441a      	add	r2, r3
 8004ae0:	6a7b      	ldr	r3, [r7, #36]	; 0x24
 8004ae2:	625a      	str	r2, [r3, #36]	; 0x24
          }
        }
        if (ep->xferTotal==ep->xferLength)
 8004ae4:	6a7b      	ldr	r3, [r7, #36]	; 0x24
 8004ae6:	6b1a      	ldr	r2, [r3, #48]	; 0x30
 8004ae8:	6a7b      	ldr	r3, [r7, #36]	; 0x24
 8004aea:	6a9b      	ldr	r3, [r3, #40]	; 0x28
 8004aec:	429a      	cmp	r2, r3
 8004aee:	d123      	bne.n	8004b38 <XMC_USBD_lHandleIEPInt+0x17c>
        {
          ep->inInUse = 0U;
 8004af0:	6a7a      	ldr	r2, [r7, #36]	; 0x24
 8004af2:	6853      	ldr	r3, [r2, #4]
 8004af4:	f36f 03c3 	bfc	r3, #3, #1
 8004af8:	6053      	str	r3, [r2, #4]
          if(obj->usbd_transfer_mode == XMC_USBD_USE_FIFO)
 8004afa:	687b      	ldr	r3, [r7, #4]
 8004afc:	7b5b      	ldrb	r3, [r3, #13]
 8004afe:	2b01      	cmp	r3, #1
 8004b00:	d10e      	bne.n	8004b20 <XMC_USBD_lHandleIEPInt+0x164>
          {
            /* mask fifo empty interrupt */
            xmc_device.device_register->dtknqr4_fifoemptymsk =
            (uint32_t)(xmc_device.device_register->dtknqr4_fifoemptymsk & ~(((uint32_t)1U << ep_num)));
 8004b02:	4b1c      	ldr	r3, [pc, #112]	; (8004b74 <XMC_USBD_lHandleIEPInt+0x1b8>)
 8004b04:	f8d3 31a4 	ldr.w	r3, [r3, #420]	; 0x1a4
 8004b08:	6b59      	ldr	r1, [r3, #52]	; 0x34
 8004b0a:	f897 302f 	ldrb.w	r3, [r7, #47]	; 0x2f
 8004b0e:	2201      	movs	r2, #1
 8004b10:	fa02 f303 	lsl.w	r3, r2, r3
 8004b14:	43da      	mvns	r2, r3
            xmc_device.device_register->dtknqr4_fifoemptymsk =
 8004b16:	4b17      	ldr	r3, [pc, #92]	; (8004b74 <XMC_USBD_lHandleIEPInt+0x1b8>)
 8004b18:	f8d3 31a4 	ldr.w	r3, [r3, #420]	; 0x1a4
            (uint32_t)(xmc_device.device_register->dtknqr4_fifoemptymsk & ~(((uint32_t)1U << ep_num)));
 8004b1c:	400a      	ands	r2, r1
            xmc_device.device_register->dtknqr4_fifoemptymsk =
 8004b1e:	635a      	str	r2, [r3, #52]	; 0x34
          }
          xmc_device.EndpointEvent_cb(0x80U | ep_num,XMC_USBD_EP_EVENT_IN);
 8004b20:	4b14      	ldr	r3, [pc, #80]	; (8004b74 <XMC_USBD_lHandleIEPInt+0x1b8>)
 8004b22:	f8d3 3204 	ldr.w	r3, [r3, #516]	; 0x204
 8004b26:	f897 202f 	ldrb.w	r2, [r7, #47]	; 0x2f
 8004b2a:	f062 027f 	orn	r2, r2, #127	; 0x7f
 8004b2e:	b2d2      	uxtb	r2, r2
 8004b30:	2102      	movs	r1, #2
 8004b32:	4610      	mov	r0, r2
 8004b34:	4798      	blx	r3
 8004b36:	e002      	b.n	8004b3e <XMC_USBD_lHandleIEPInt+0x182>
        }
        else
        {
          /* start next step of transfer */
          XMC_USBD_lStartWriteXfer(ep);
 8004b38:	6a78      	ldr	r0, [r7, #36]	; 0x24
 8004b3a:	f7ff fc91 	bl	8004460 <XMC_USBD_lStartWriteXfer>
        }

      }

      XMC_USBD_ClearEventINEP((uint32_t)diepint.d32,ep_num);
 8004b3e:	68fb      	ldr	r3, [r7, #12]
 8004b40:	f897 202f 	ldrb.w	r2, [r7, #47]	; 0x2f
 8004b44:	4611      	mov	r1, r2
 8004b46:	4618      	mov	r0, r3
 8004b48:	f000 f994 	bl	8004e74 <XMC_USBD_ClearEventINEP>
    }
    ep_num++;
 8004b4c:	f897 302f 	ldrb.w	r3, [r7, #47]	; 0x2f
 8004b50:	3301      	adds	r3, #1
 8004b52:	f887 302f 	strb.w	r3, [r7, #47]	; 0x2f
  while ((uint16_t)mask >> ep_num)
 8004b56:	8dba      	ldrh	r2, [r7, #44]	; 0x2c
 8004b58:	f897 302f 	ldrb.w	r3, [r7, #47]	; 0x2f
 8004b5c:	fa42 f303 	asr.w	r3, r2, r3
 8004b60:	2b00      	cmp	r3, #0
 8004b62:	f47f af41 	bne.w	80049e8 <XMC_USBD_lHandleIEPInt+0x2c>
  }
  XMC_USBD_ClearEvent(XMC_USBD_EVENT_INEP);
 8004b66:	200e      	movs	r0, #14
 8004b68:	f000 f908 	bl	8004d7c <XMC_USBD_ClearEvent>
}
 8004b6c:	bf00      	nop
 8004b6e:	3730      	adds	r7, #48	; 0x30
 8004b70:	46bd      	mov	sp, r7
 8004b72:	bd80      	pop	{r7, pc}
 8004b74:	20000870 	.word	0x20000870

08004b78 <XMC_USBD_lHandleRxFLvl>:
 * @brief RX Fifo interrupt handler
 *
 * This function handles the interrupt, when the rx fifo is not empty anymore.
 */
static void XMC_USBD_lHandleRxFLvl(void) 
{
 8004b78:	b580      	push	{r7, lr}
 8004b7a:	b082      	sub	sp, #8
 8004b7c:	af00      	add	r7, sp, #0
  device_grxsts_data_t data;	
  data.d32 = xmc_device.global_register->grxstsp;
 8004b7e:	4b1e      	ldr	r3, [pc, #120]	; (8004bf8 <XMC_USBD_lHandleRxFLvl+0x80>)
 8004b80:	f8d3 31a0 	ldr.w	r3, [r3, #416]	; 0x1a0
 8004b84:	6a1b      	ldr	r3, [r3, #32]
 8004b86:	607b      	str	r3, [r7, #4]

  switch (data.b.pktsts)
 8004b88:	79bb      	ldrb	r3, [r7, #6]
 8004b8a:	f3c3 0343 	ubfx	r3, r3, #1, #4
 8004b8e:	b2db      	uxtb	r3, r3
 8004b90:	3b01      	subs	r3, #1
 8004b92:	2b05      	cmp	r3, #5
 8004b94:	d82a      	bhi.n	8004bec <XMC_USBD_lHandleRxFLvl+0x74>
 8004b96:	a201      	add	r2, pc, #4	; (adr r2, 8004b9c <XMC_USBD_lHandleRxFLvl+0x24>)
 8004b98:	f852 f023 	ldr.w	pc, [r2, r3, lsl #2]
 8004b9c:	08004bed 	.word	0x08004bed
 8004ba0:	08004bb5 	.word	0x08004bb5
 8004ba4:	08004bed 	.word	0x08004bed
 8004ba8:	08004bed 	.word	0x08004bed
 8004bac:	08004bed 	.word	0x08004bed
 8004bb0:	08004bd1 	.word	0x08004bd1
    case XMC_USBD_GRXSTS_PKTSTS_GOUTNAK:
      break;
    case XMC_USBD_GRXSTS_PKTSTS_OUTCMPL:
      break;
    case XMC_USBD_GRXSTS_PKTSTS_OUTDATA:
      XMC_USBD_lReadFifo((uint32_t)data.b.epnum,(uint32_t)data.b.bcnt);
 8004bb4:	793b      	ldrb	r3, [r7, #4]
 8004bb6:	f3c3 0303 	ubfx	r3, r3, #0, #4
 8004bba:	b2db      	uxtb	r3, r3
 8004bbc:	461a      	mov	r2, r3
 8004bbe:	88bb      	ldrh	r3, [r7, #4]
 8004bc0:	f3c3 130a 	ubfx	r3, r3, #4, #11
 8004bc4:	b29b      	uxth	r3, r3
 8004bc6:	4619      	mov	r1, r3
 8004bc8:	4610      	mov	r0, r2
 8004bca:	f7ff f9fd 	bl	8003fc8 <XMC_USBD_lReadFifo>
      break;
 8004bce:	e00e      	b.n	8004bee <XMC_USBD_lHandleRxFLvl+0x76>
    case XMC_USBD_GRXSTS_PKTSTS_SETUP:
      XMC_USBD_lReadFifo((uint32_t)data.b.epnum,(uint32_t)data.b.bcnt);
 8004bd0:	793b      	ldrb	r3, [r7, #4]
 8004bd2:	f3c3 0303 	ubfx	r3, r3, #0, #4
 8004bd6:	b2db      	uxtb	r3, r3
 8004bd8:	461a      	mov	r2, r3
 8004bda:	88bb      	ldrh	r3, [r7, #4]
 8004bdc:	f3c3 130a 	ubfx	r3, r3, #4, #11
 8004be0:	b29b      	uxth	r3, r3
 8004be2:	4619      	mov	r1, r3
 8004be4:	4610      	mov	r0, r2
 8004be6:	f7ff f9ef 	bl	8003fc8 <XMC_USBD_lReadFifo>
      break;
 8004bea:	e000      	b.n	8004bee <XMC_USBD_lHandleRxFLvl+0x76>
    case XMC_USBD_GRXSTS_PKTSTS_SETUPCMPL:
      break;
    default:
      break;
 8004bec:	bf00      	nop
	}
  /* no need to clear */
}
 8004bee:	bf00      	nop
 8004bf0:	3708      	adds	r7, #8
 8004bf2:	46bd      	mov	sp, r7
 8004bf4:	bd80      	pop	{r7, pc}
 8004bf6:	bf00      	nop
 8004bf8:	20000870 	.word	0x20000870

08004bfc <XMC_USBD_IRQHandler>:
 *
 * The handler first checks, which global interrupt has caused the interrupt
 * and then dispatches interrupt to the corresponding sub-handler.
 */
void XMC_USBD_IRQHandler(const XMC_USBD_t *const obj) 
{
 8004bfc:	b580      	push	{r7, lr}
 8004bfe:	b084      	sub	sp, #16
 8004c00:	af00      	add	r7, sp, #0
 8004c02:	6078      	str	r0, [r7, #4]
  gintmsk_data_t gintmsk;
  gintsts_data_t data;
	
  gintmsk.d32 = xmc_device.global_register->gintmsk;
 8004c04:	4b50      	ldr	r3, [pc, #320]	; (8004d48 <XMC_USBD_IRQHandler+0x14c>)
 8004c06:	f8d3 31a0 	ldr.w	r3, [r3, #416]	; 0x1a0
 8004c0a:	699b      	ldr	r3, [r3, #24]
 8004c0c:	60fb      	str	r3, [r7, #12]
  data.d32 = xmc_device.global_register->gintsts & gintmsk.d32;
 8004c0e:	4b4e      	ldr	r3, [pc, #312]	; (8004d48 <XMC_USBD_IRQHandler+0x14c>)
 8004c10:	f8d3 31a0 	ldr.w	r3, [r3, #416]	; 0x1a0
 8004c14:	695a      	ldr	r2, [r3, #20]
 8004c16:	68fb      	ldr	r3, [r7, #12]
 8004c18:	4013      	ands	r3, r2
 8004c1a:	60bb      	str	r3, [r7, #8]
	
  if (data.b.sofintr)
 8004c1c:	7a3b      	ldrb	r3, [r7, #8]
 8004c1e:	f003 0308 	and.w	r3, r3, #8
 8004c22:	b2db      	uxtb	r3, r3
 8004c24:	2b00      	cmp	r3, #0
 8004c26:	d007      	beq.n	8004c38 <XMC_USBD_IRQHandler+0x3c>
  {
    xmc_device.DeviceEvent_cb(XMC_USBD_EVENT_SOF);
 8004c28:	4b47      	ldr	r3, [pc, #284]	; (8004d48 <XMC_USBD_IRQHandler+0x14c>)
 8004c2a:	f8d3 3200 	ldr.w	r3, [r3, #512]	; 0x200
 8004c2e:	2009      	movs	r0, #9
 8004c30:	4798      	blx	r3
    XMC_USBD_ClearEvent(XMC_USBD_EVENT_SOF);
 8004c32:	2009      	movs	r0, #9
 8004c34:	f000 f8a2 	bl	8004d7c <XMC_USBD_ClearEvent>
  }
  if(obj->usbd_transfer_mode == XMC_USBD_USE_FIFO)
 8004c38:	687b      	ldr	r3, [r7, #4]
 8004c3a:	7b5b      	ldrb	r3, [r3, #13]
 8004c3c:	2b01      	cmp	r3, #1
 8004c3e:	d119      	bne.n	8004c74 <XMC_USBD_IRQHandler+0x78>
  {
    if (data.b.rxstsqlvl)
 8004c40:	7a3b      	ldrb	r3, [r7, #8]
 8004c42:	f003 0310 	and.w	r3, r3, #16
 8004c46:	b2db      	uxtb	r3, r3
 8004c48:	2b00      	cmp	r3, #0
 8004c4a:	d013      	beq.n	8004c74 <XMC_USBD_IRQHandler+0x78>
    {
      /* Masked that interrupt so its only done once */
      gintmsk.b.rxstsqlvl = 0U;
 8004c4c:	7b3b      	ldrb	r3, [r7, #12]
 8004c4e:	f36f 1304 	bfc	r3, #4, #1
 8004c52:	733b      	strb	r3, [r7, #12]
      xmc_device.global_register->gintmsk = gintmsk.d32;
 8004c54:	4b3c      	ldr	r3, [pc, #240]	; (8004d48 <XMC_USBD_IRQHandler+0x14c>)
 8004c56:	f8d3 31a0 	ldr.w	r3, [r3, #416]	; 0x1a0
 8004c5a:	68fa      	ldr	r2, [r7, #12]
 8004c5c:	619a      	str	r2, [r3, #24]
      XMC_USBD_lHandleRxFLvl(); /* handle the interrupt */
 8004c5e:	f7ff ff8b 	bl	8004b78 <XMC_USBD_lHandleRxFLvl>
      gintmsk.b.rxstsqlvl = 1U;
 8004c62:	7b3b      	ldrb	r3, [r7, #12]
 8004c64:	f043 0310 	orr.w	r3, r3, #16
 8004c68:	733b      	strb	r3, [r7, #12]
      xmc_device.global_register->gintmsk = gintmsk.d32;
 8004c6a:	4b37      	ldr	r3, [pc, #220]	; (8004d48 <XMC_USBD_IRQHandler+0x14c>)
 8004c6c:	f8d3 31a0 	ldr.w	r3, [r3, #416]	; 0x1a0
 8004c70:	68fa      	ldr	r2, [r7, #12]
 8004c72:	619a      	str	r2, [r3, #24]
    }
  }
  if (data.b.erlysuspend)
 8004c74:	7a7b      	ldrb	r3, [r7, #9]
 8004c76:	f003 0304 	and.w	r3, r3, #4
 8004c7a:	b2db      	uxtb	r3, r3
 8004c7c:	2b00      	cmp	r3, #0
 8004c7e:	d002      	beq.n	8004c86 <XMC_USBD_IRQHandler+0x8a>
  {
    XMC_USBD_ClearEvent(XMC_USBD_EVENT_EARLYSUSPEND);
 8004c80:	200a      	movs	r0, #10
 8004c82:	f000 f87b 	bl	8004d7c <XMC_USBD_ClearEvent>
  }
  if (data.b.usbsuspend)
 8004c86:	7a7b      	ldrb	r3, [r7, #9]
 8004c88:	f003 0308 	and.w	r3, r3, #8
 8004c8c:	b2db      	uxtb	r3, r3
 8004c8e:	2b00      	cmp	r3, #0
 8004c90:	d007      	beq.n	8004ca2 <XMC_USBD_IRQHandler+0xa6>
  {
    xmc_device.DeviceEvent_cb(XMC_USBD_EVENT_SUSPEND);
 8004c92:	4b2d      	ldr	r3, [pc, #180]	; (8004d48 <XMC_USBD_IRQHandler+0x14c>)
 8004c94:	f8d3 3200 	ldr.w	r3, [r3, #512]	; 0x200
 8004c98:	2006      	movs	r0, #6
 8004c9a:	4798      	blx	r3
    XMC_USBD_ClearEvent(XMC_USBD_EVENT_SUSPEND);
 8004c9c:	2006      	movs	r0, #6
 8004c9e:	f000 f86d 	bl	8004d7c <XMC_USBD_ClearEvent>
  }
  if (data.b.wkupintr)
 8004ca2:	7afb      	ldrb	r3, [r7, #11]
 8004ca4:	f023 037f 	bic.w	r3, r3, #127	; 0x7f
 8004ca8:	b2db      	uxtb	r3, r3
 8004caa:	2b00      	cmp	r3, #0
 8004cac:	d007      	beq.n	8004cbe <XMC_USBD_IRQHandler+0xc2>
  {
    xmc_device.DeviceEvent_cb(XMC_USBD_EVENT_REMOTE_WAKEUP);
 8004cae:	4b26      	ldr	r3, [pc, #152]	; (8004d48 <XMC_USBD_IRQHandler+0x14c>)
 8004cb0:	f8d3 3200 	ldr.w	r3, [r3, #512]	; 0x200
 8004cb4:	2008      	movs	r0, #8
 8004cb6:	4798      	blx	r3
    XMC_USBD_ClearEvent(XMC_USBD_EVENT_REMOTE_WAKEUP);
 8004cb8:	2008      	movs	r0, #8
 8004cba:	f000 f85f 	bl	8004d7c <XMC_USBD_ClearEvent>
  }
  if (data.b.sessreqintr)
 8004cbe:	7afb      	ldrb	r3, [r7, #11]
 8004cc0:	f003 0340 	and.w	r3, r3, #64	; 0x40
 8004cc4:	b2db      	uxtb	r3, r3
 8004cc6:	2b00      	cmp	r3, #0
 8004cc8:	d00e      	beq.n	8004ce8 <XMC_USBD_IRQHandler+0xec>
  {
    xmc_device.IsPowered = 1U;
 8004cca:	4a1f      	ldr	r2, [pc, #124]	; (8004d48 <XMC_USBD_IRQHandler+0x14c>)
 8004ccc:	f892 31fe 	ldrb.w	r3, [r2, #510]	; 0x1fe
 8004cd0:	f043 0304 	orr.w	r3, r3, #4
 8004cd4:	f882 31fe 	strb.w	r3, [r2, #510]	; 0x1fe
    xmc_device.DeviceEvent_cb(XMC_USBD_EVENT_POWER_ON);
 8004cd8:	4b1b      	ldr	r3, [pc, #108]	; (8004d48 <XMC_USBD_IRQHandler+0x14c>)
 8004cda:	f8d3 3200 	ldr.w	r3, [r3, #512]	; 0x200
 8004cde:	2000      	movs	r0, #0
 8004ce0:	4798      	blx	r3
    XMC_USBD_ClearEvent(XMC_USBD_EVENT_POWER_ON);
 8004ce2:	2000      	movs	r0, #0
 8004ce4:	f000 f84a 	bl	8004d7c <XMC_USBD_ClearEvent>
  }
  if (data.b.usbreset)
 8004ce8:	7a7b      	ldrb	r3, [r7, #9]
 8004cea:	f003 0310 	and.w	r3, r3, #16
 8004cee:	b2db      	uxtb	r3, r3
 8004cf0:	2b00      	cmp	r3, #0
 8004cf2:	d002      	beq.n	8004cfa <XMC_USBD_IRQHandler+0xfe>
  {
    XMC_USBD_lHandleUSBReset(obj);
 8004cf4:	6878      	ldr	r0, [r7, #4]
 8004cf6:	f7ff fc7f 	bl	80045f8 <XMC_USBD_lHandleUSBReset>
  }
  if (data.b.enumdone)
 8004cfa:	7a7b      	ldrb	r3, [r7, #9]
 8004cfc:	f003 0320 	and.w	r3, r3, #32
 8004d00:	b2db      	uxtb	r3, r3
 8004d02:	2b00      	cmp	r3, #0
 8004d04:	d001      	beq.n	8004d0a <XMC_USBD_IRQHandler+0x10e>
  {
    XMC_USBD_lHandleEnumDone();
 8004d06:	f7ff fd43 	bl	8004790 <XMC_USBD_lHandleEnumDone>
  }
  if (data.b.inepint)
 8004d0a:	7abb      	ldrb	r3, [r7, #10]
 8004d0c:	f003 0304 	and.w	r3, r3, #4
 8004d10:	b2db      	uxtb	r3, r3
 8004d12:	2b00      	cmp	r3, #0
 8004d14:	d002      	beq.n	8004d1c <XMC_USBD_IRQHandler+0x120>
  {
    XMC_USBD_lHandleIEPInt(obj);
 8004d16:	6878      	ldr	r0, [r7, #4]
 8004d18:	f7ff fe50 	bl	80049bc <XMC_USBD_lHandleIEPInt>
  }
  if (data.b.outepintr)
 8004d1c:	7abb      	ldrb	r3, [r7, #10]
 8004d1e:	f003 0308 	and.w	r3, r3, #8
 8004d22:	b2db      	uxtb	r3, r3
 8004d24:	2b00      	cmp	r3, #0
 8004d26:	d002      	beq.n	8004d2e <XMC_USBD_IRQHandler+0x132>
  {
		XMC_USBD_lHandleOEPInt(obj);
 8004d28:	6878      	ldr	r0, [r7, #4]
 8004d2a:	f7ff fd6d 	bl	8004808 <XMC_USBD_lHandleOEPInt>
  }
	if (data.b.otgintr)
 8004d2e:	7a3b      	ldrb	r3, [r7, #8]
 8004d30:	f003 0304 	and.w	r3, r3, #4
 8004d34:	b2db      	uxtb	r3, r3
 8004d36:	2b00      	cmp	r3, #0
 8004d38:	d001      	beq.n	8004d3e <XMC_USBD_IRQHandler+0x142>
  {
	  XMC_USBD_lHandleOTGInt();
 8004d3a:	f7ff fd05 	bl	8004748 <XMC_USBD_lHandleOTGInt>
  }

}
 8004d3e:	bf00      	nop
 8004d40:	3710      	adds	r7, #16
 8004d42:	46bd      	mov	sp, r7
 8004d44:	bd80      	pop	{r7, pc}
 8004d46:	bf00      	nop
 8004d48:	20000870 	.word	0x20000870

08004d4c <XMC_USBD_Enable>:
 *******************************************************************************/
/**
 * Enables the USB0 module
 **/
void XMC_USBD_Enable(void) 
{
 8004d4c:	b580      	push	{r7, lr}
 8004d4e:	af00      	add	r7, sp, #0
#if defined(CLOCK_GATING_SUPPORTED)
  XMC_SCU_CLOCK_UngatePeripheralClock(XMC_SCU_PERIPHERAL_CLOCK_USB0);
#endif
  /* Reset and power up */
  XMC_SCU_RESET_DeassertPeripheralReset(XMC_SCU_PERIPHERAL_RESET_USB0);
 8004d50:	4803      	ldr	r0, [pc, #12]	; (8004d60 <XMC_USBD_Enable+0x14>)
 8004d52:	f7fc f92d 	bl	8000fb0 <XMC_SCU_RESET_DeassertPeripheralReset>
  XMC_SCU_POWER_EnableUsb();
 8004d56:	f7fc fd11 	bl	800177c <XMC_SCU_POWER_EnableUsb>
}
 8004d5a:	bf00      	nop
 8004d5c:	bd80      	pop	{r7, pc}
 8004d5e:	bf00      	nop
 8004d60:	20000080 	.word	0x20000080

08004d64 <XMC_USBD_Disable>:

/**
 * Disables the USB0 module
 **/
void XMC_USBD_Disable(void) 
{
 8004d64:	b580      	push	{r7, lr}
 8004d66:	af00      	add	r7, sp, #0
  /* Clear Reset and power up */
  XMC_SCU_RESET_AssertPeripheralReset(XMC_SCU_PERIPHERAL_RESET_USB0);
 8004d68:	4803      	ldr	r0, [pc, #12]	; (8004d78 <XMC_USBD_Disable+0x14>)
 8004d6a:	f7fc f903 	bl	8000f74 <XMC_SCU_RESET_AssertPeripheralReset>
#if defined(CLOCK_GATING_SUPPORTED)
  XMC_SCU_CLOCK_GatePeripheralClock(XMC_SCU_PERIPHERAL_CLOCK_USB0);
#endif
  XMC_SCU_POWER_DisableUsb();
 8004d6e:	f7fc fd13 	bl	8001798 <XMC_SCU_POWER_DisableUsb>
}
 8004d72:	bf00      	nop
 8004d74:	bd80      	pop	{r7, pc}
 8004d76:	bf00      	nop
 8004d78:	20000080 	.word	0x20000080

08004d7c <XMC_USBD_ClearEvent>:

/**
 * Clear the USB device event
 **/
void XMC_USBD_ClearEvent(const XMC_USBD_EVENT_t event) 
{
 8004d7c:	b480      	push	{r7}
 8004d7e:	b085      	sub	sp, #20
 8004d80:	af00      	add	r7, sp, #0
 8004d82:	4603      	mov	r3, r0
 8004d84:	71fb      	strb	r3, [r7, #7]
  gintsts_data_t clear;
  clear.d32 = 0U;
 8004d86:	2300      	movs	r3, #0
 8004d88:	60fb      	str	r3, [r7, #12]
  switch(event)
 8004d8a:	79fb      	ldrb	r3, [r7, #7]
 8004d8c:	2b0d      	cmp	r3, #13
 8004d8e:	d84c      	bhi.n	8004e2a <XMC_USBD_ClearEvent+0xae>
 8004d90:	a201      	add	r2, pc, #4	; (adr r2, 8004d98 <XMC_USBD_ClearEvent+0x1c>)
 8004d92:	f852 f023 	ldr.w	pc, [r2, r3, lsl #2]
 8004d96:	bf00      	nop
 8004d98:	08004dd1 	.word	0x08004dd1
 8004d9c:	08004e2b 	.word	0x08004e2b
 8004da0:	08004e2b 	.word	0x08004e2b
 8004da4:	08004e2b 	.word	0x08004e2b
 8004da8:	08004ddb 	.word	0x08004ddb
 8004dac:	08004e2b 	.word	0x08004e2b
 8004db0:	08004de5 	.word	0x08004de5
 8004db4:	08004def 	.word	0x08004def
 8004db8:	08004df9 	.word	0x08004df9
 8004dbc:	08004e03 	.word	0x08004e03
 8004dc0:	08004e0d 	.word	0x08004e0d
 8004dc4:	08004e17 	.word	0x08004e17
 8004dc8:	08004e2b 	.word	0x08004e2b
 8004dcc:	08004e21 	.word	0x08004e21
  {
    case (XMC_USBD_EVENT_POWER_ON):
	  clear.b.sessreqintr = 1U;
 8004dd0:	7bfb      	ldrb	r3, [r7, #15]
 8004dd2:	f043 0340 	orr.w	r3, r3, #64	; 0x40
 8004dd6:	73fb      	strb	r3, [r7, #15]
	  break;
 8004dd8:	e028      	b.n	8004e2c <XMC_USBD_ClearEvent+0xb0>
    case (XMC_USBD_EVENT_RESET):
	  clear.b.usbreset = 1U;
 8004dda:	7b7b      	ldrb	r3, [r7, #13]
 8004ddc:	f043 0310 	orr.w	r3, r3, #16
 8004de0:	737b      	strb	r3, [r7, #13]
	  break;
 8004de2:	e023      	b.n	8004e2c <XMC_USBD_ClearEvent+0xb0>
    case (XMC_USBD_EVENT_SUSPEND):
	  clear.b.usbsuspend = 1U;
 8004de4:	7b7b      	ldrb	r3, [r7, #13]
 8004de6:	f043 0308 	orr.w	r3, r3, #8
 8004dea:	737b      	strb	r3, [r7, #13]
	  break;
 8004dec:	e01e      	b.n	8004e2c <XMC_USBD_ClearEvent+0xb0>
    case (XMC_USBD_EVENT_RESUME):
	  clear.b.wkupintr = 1U;
 8004dee:	7bfb      	ldrb	r3, [r7, #15]
 8004df0:	f043 0380 	orr.w	r3, r3, #128	; 0x80
 8004df4:	73fb      	strb	r3, [r7, #15]
	  break;
 8004df6:	e019      	b.n	8004e2c <XMC_USBD_ClearEvent+0xb0>
    case (XMC_USBD_EVENT_REMOTE_WAKEUP):
	  clear.b.wkupintr = 1U;
 8004df8:	7bfb      	ldrb	r3, [r7, #15]
 8004dfa:	f043 0380 	orr.w	r3, r3, #128	; 0x80
 8004dfe:	73fb      	strb	r3, [r7, #15]
	  break;
 8004e00:	e014      	b.n	8004e2c <XMC_USBD_ClearEvent+0xb0>
    case (XMC_USBD_EVENT_SOF):
	  clear.b.sofintr = 1U;
 8004e02:	7b3b      	ldrb	r3, [r7, #12]
 8004e04:	f043 0308 	orr.w	r3, r3, #8
 8004e08:	733b      	strb	r3, [r7, #12]
	  break;
 8004e0a:	e00f      	b.n	8004e2c <XMC_USBD_ClearEvent+0xb0>
    case (XMC_USBD_EVENT_EARLYSUSPEND):
	  clear.b.erlysuspend = 1U;
 8004e0c:	7b7b      	ldrb	r3, [r7, #13]
 8004e0e:	f043 0304 	orr.w	r3, r3, #4
 8004e12:	737b      	strb	r3, [r7, #13]
	  break;
 8004e14:	e00a      	b.n	8004e2c <XMC_USBD_ClearEvent+0xb0>
    case (XMC_USBD_EVENT_ENUMDONE):
	  clear.b.enumdone = 1U;
 8004e16:	7b7b      	ldrb	r3, [r7, #13]
 8004e18:	f043 0320 	orr.w	r3, r3, #32
 8004e1c:	737b      	strb	r3, [r7, #13]
	  break;
 8004e1e:	e005      	b.n	8004e2c <XMC_USBD_ClearEvent+0xb0>
    case (XMC_USBD_EVENT_OUTEP):
	  clear.b.outepintr = 1U;
 8004e20:	7bbb      	ldrb	r3, [r7, #14]
 8004e22:	f043 0308 	orr.w	r3, r3, #8
 8004e26:	73bb      	strb	r3, [r7, #14]
	  break;
 8004e28:	e000      	b.n	8004e2c <XMC_USBD_ClearEvent+0xb0>
		default:
		break;
 8004e2a:	bf00      	nop
	}
	xmc_device.global_register->gintsts = clear.d32;
 8004e2c:	4b05      	ldr	r3, [pc, #20]	; (8004e44 <XMC_USBD_ClearEvent+0xc8>)
 8004e2e:	f8d3 31a0 	ldr.w	r3, [r3, #416]	; 0x1a0
 8004e32:	68fa      	ldr	r2, [r7, #12]
 8004e34:	615a      	str	r2, [r3, #20]
}
 8004e36:	bf00      	nop
 8004e38:	3714      	adds	r7, #20
 8004e3a:	46bd      	mov	sp, r7
 8004e3c:	f85d 7b04 	ldr.w	r7, [sp], #4
 8004e40:	4770      	bx	lr
 8004e42:	bf00      	nop
 8004e44:	20000870 	.word	0x20000870

08004e48 <XMC_USBD_lClearEventOTG>:

/**
 * Clear the USB OTG events
 **/
static void XMC_USBD_lClearEventOTG(uint32_t event)
{
 8004e48:	b480      	push	{r7}
 8004e4a:	b085      	sub	sp, #20
 8004e4c:	af00      	add	r7, sp, #0
 8004e4e:	6078      	str	r0, [r7, #4]
  gotgint_data_t clear = { .d32 = 0U};
 8004e50:	2300      	movs	r3, #0
 8004e52:	60fb      	str	r3, [r7, #12]
  clear.d32 = event;
 8004e54:	687b      	ldr	r3, [r7, #4]
 8004e56:	60fb      	str	r3, [r7, #12]
  xmc_device.global_register->gotgint = clear.d32;
 8004e58:	4b05      	ldr	r3, [pc, #20]	; (8004e70 <XMC_USBD_lClearEventOTG+0x28>)
 8004e5a:	f8d3 31a0 	ldr.w	r3, [r3, #416]	; 0x1a0
 8004e5e:	68fa      	ldr	r2, [r7, #12]
 8004e60:	605a      	str	r2, [r3, #4]
}
 8004e62:	bf00      	nop
 8004e64:	3714      	adds	r7, #20
 8004e66:	46bd      	mov	sp, r7
 8004e68:	f85d 7b04 	ldr.w	r7, [sp], #4
 8004e6c:	4770      	bx	lr
 8004e6e:	bf00      	nop
 8004e70:	20000870 	.word	0x20000870

08004e74 <XMC_USBD_ClearEventINEP>:

/**
 * Clear the USB IN EP events
 **/
void XMC_USBD_ClearEventINEP(uint32_t event,const uint8_t ep_num)
{
 8004e74:	b480      	push	{r7}
 8004e76:	b085      	sub	sp, #20
 8004e78:	af00      	add	r7, sp, #0
 8004e7a:	6078      	str	r0, [r7, #4]
 8004e7c:	460b      	mov	r3, r1
 8004e7e:	70fb      	strb	r3, [r7, #3]
  diepint_data_t clear;
  clear.d32 = event;
 8004e80:	687b      	ldr	r3, [r7, #4]
 8004e82:	60fb      	str	r3, [r7, #12]
  xmc_device.endpoint_in_register[ep_num]->diepint = clear.d32;
 8004e84:	78fb      	ldrb	r3, [r7, #3]
 8004e86:	4a06      	ldr	r2, [pc, #24]	; (8004ea0 <XMC_USBD_ClearEventINEP+0x2c>)
 8004e88:	336a      	adds	r3, #106	; 0x6a
 8004e8a:	f852 3023 	ldr.w	r3, [r2, r3, lsl #2]
 8004e8e:	68fa      	ldr	r2, [r7, #12]
 8004e90:	609a      	str	r2, [r3, #8]
}
 8004e92:	bf00      	nop
 8004e94:	3714      	adds	r7, #20
 8004e96:	46bd      	mov	sp, r7
 8004e98:	f85d 7b04 	ldr.w	r7, [sp], #4
 8004e9c:	4770      	bx	lr
 8004e9e:	bf00      	nop
 8004ea0:	20000870 	.word	0x20000870

08004ea4 <XMC_USBD_ClearEventOUTEP>:

/**
 * Clear the USB OUT EP events
 **/
void XMC_USBD_ClearEventOUTEP(uint32_t event,const uint8_t ep_num)
{
 8004ea4:	b480      	push	{r7}
 8004ea6:	b085      	sub	sp, #20
 8004ea8:	af00      	add	r7, sp, #0
 8004eaa:	6078      	str	r0, [r7, #4]
 8004eac:	460b      	mov	r3, r1
 8004eae:	70fb      	strb	r3, [r7, #3]
  doepint_data_t clear;
  clear.d32 = event;
 8004eb0:	687b      	ldr	r3, [r7, #4]
 8004eb2:	60fb      	str	r3, [r7, #12]
  xmc_device.endpoint_out_register[ep_num]->doepint = clear.d32;
 8004eb4:	78fb      	ldrb	r3, [r7, #3]
 8004eb6:	4a06      	ldr	r2, [pc, #24]	; (8004ed0 <XMC_USBD_ClearEventOUTEP+0x2c>)
 8004eb8:	3370      	adds	r3, #112	; 0x70
 8004eba:	009b      	lsls	r3, r3, #2
 8004ebc:	4413      	add	r3, r2
 8004ebe:	685b      	ldr	r3, [r3, #4]
 8004ec0:	68fa      	ldr	r2, [r7, #12]
 8004ec2:	609a      	str	r2, [r3, #8]
}
 8004ec4:	bf00      	nop
 8004ec6:	3714      	adds	r7, #20
 8004ec8:	46bd      	mov	sp, r7
 8004eca:	f85d 7b04 	ldr.w	r7, [sp], #4
 8004ece:	4770      	bx	lr
 8004ed0:	20000870 	.word	0x20000870

08004ed4 <XMC_USBD_EnableEventOUTEP>:

/**
 * Enable the USB OUT EP events
 **/
void XMC_USBD_EnableEventOUTEP(uint32_t event)
{
 8004ed4:	b480      	push	{r7}
 8004ed6:	b085      	sub	sp, #20
 8004ed8:	af00      	add	r7, sp, #0
 8004eda:	6078      	str	r0, [r7, #4]
	doepint_data_t doepint;
	doepint.d32 = event;
 8004edc:	687b      	ldr	r3, [r7, #4]
 8004ede:	60fb      	str	r3, [r7, #12]
	xmc_device.device_register->doepmsk |= doepint.d32;
 8004ee0:	4b07      	ldr	r3, [pc, #28]	; (8004f00 <XMC_USBD_EnableEventOUTEP+0x2c>)
 8004ee2:	f8d3 31a4 	ldr.w	r3, [r3, #420]	; 0x1a4
 8004ee6:	6959      	ldr	r1, [r3, #20]
 8004ee8:	68fa      	ldr	r2, [r7, #12]
 8004eea:	4b05      	ldr	r3, [pc, #20]	; (8004f00 <XMC_USBD_EnableEventOUTEP+0x2c>)
 8004eec:	f8d3 31a4 	ldr.w	r3, [r3, #420]	; 0x1a4
 8004ef0:	430a      	orrs	r2, r1
 8004ef2:	615a      	str	r2, [r3, #20]
}
 8004ef4:	bf00      	nop
 8004ef6:	3714      	adds	r7, #20
 8004ef8:	46bd      	mov	sp, r7
 8004efa:	f85d 7b04 	ldr.w	r7, [sp], #4
 8004efe:	4770      	bx	lr
 8004f00:	20000870 	.word	0x20000870

08004f04 <XMC_USBD_EnableEventINEP>:

/**
 * Enable the USB IN EP events
 **/
void XMC_USBD_EnableEventINEP(uint32_t event)
{
 8004f04:	b480      	push	{r7}
 8004f06:	b085      	sub	sp, #20
 8004f08:	af00      	add	r7, sp, #0
 8004f0a:	6078      	str	r0, [r7, #4]
	diepint_data_t diepint;
	diepint.d32 = event;
 8004f0c:	687b      	ldr	r3, [r7, #4]
 8004f0e:	60fb      	str	r3, [r7, #12]
	xmc_device.device_register->diepmsk |= diepint.d32;
 8004f10:	4b07      	ldr	r3, [pc, #28]	; (8004f30 <XMC_USBD_EnableEventINEP+0x2c>)
 8004f12:	f8d3 31a4 	ldr.w	r3, [r3, #420]	; 0x1a4
 8004f16:	6919      	ldr	r1, [r3, #16]
 8004f18:	68fa      	ldr	r2, [r7, #12]
 8004f1a:	4b05      	ldr	r3, [pc, #20]	; (8004f30 <XMC_USBD_EnableEventINEP+0x2c>)
 8004f1c:	f8d3 31a4 	ldr.w	r3, [r3, #420]	; 0x1a4
 8004f20:	430a      	orrs	r2, r1
 8004f22:	611a      	str	r2, [r3, #16]
}
 8004f24:	bf00      	nop
 8004f26:	3714      	adds	r7, #20
 8004f28:	46bd      	mov	sp, r7
 8004f2a:	f85d 7b04 	ldr.w	r7, [sp], #4
 8004f2e:	4770      	bx	lr
 8004f30:	20000870 	.word	0x20000870

08004f34 <XMC_USBD_GetCapabilities>:

/**
 * Gets the USB device capabilities
 **/
XMC_USBD_CAPABILITIES_t XMC_USBD_GetCapabilities()
{
 8004f34:	b480      	push	{r7}
 8004f36:	b083      	sub	sp, #12
 8004f38:	af00      	add	r7, sp, #0
  XMC_USBD_CAPABILITIES_t cap={0U};
 8004f3a:	2300      	movs	r3, #0
 8004f3c:	607b      	str	r3, [r7, #4]
  cap.event_connect = 1U;
 8004f3e:	793b      	ldrb	r3, [r7, #4]
 8004f40:	f043 0304 	orr.w	r3, r3, #4
 8004f44:	713b      	strb	r3, [r7, #4]
  cap.event_disconnect = 1U;
 8004f46:	793b      	ldrb	r3, [r7, #4]
 8004f48:	f043 0308 	orr.w	r3, r3, #8
 8004f4c:	713b      	strb	r3, [r7, #4]
#if UC_SERIES == 45
  cap.event_power_off = 1U;
 8004f4e:	793b      	ldrb	r3, [r7, #4]
 8004f50:	f043 0302 	orr.w	r3, r3, #2
 8004f54:	713b      	strb	r3, [r7, #4]
  cap.event_power_on = 1U;
 8004f56:	793b      	ldrb	r3, [r7, #4]
 8004f58:	f043 0301 	orr.w	r3, r3, #1
 8004f5c:	713b      	strb	r3, [r7, #4]
#else
  cap.event_power_off = 0U;
  cap.event_power_on = 0U;
#endif
  cap.event_high_speed = 0U;
 8004f5e:	793b      	ldrb	r3, [r7, #4]
 8004f60:	f36f 1345 	bfc	r3, #5, #1
 8004f64:	713b      	strb	r3, [r7, #4]
  cap.event_remote_wakeup = 1U;
 8004f66:	797b      	ldrb	r3, [r7, #5]
 8004f68:	f043 0301 	orr.w	r3, r3, #1
 8004f6c:	717b      	strb	r3, [r7, #5]
  cap.event_reset = 1U;
 8004f6e:	793b      	ldrb	r3, [r7, #4]
 8004f70:	f043 0310 	orr.w	r3, r3, #16
 8004f74:	713b      	strb	r3, [r7, #4]
  cap.event_resume = 1U;
 8004f76:	793b      	ldrb	r3, [r7, #4]
 8004f78:	f043 0380 	orr.w	r3, r3, #128	; 0x80
 8004f7c:	713b      	strb	r3, [r7, #4]
  cap.event_suspend = 1U;
 8004f7e:	793b      	ldrb	r3, [r7, #4]
 8004f80:	f043 0340 	orr.w	r3, r3, #64	; 0x40
 8004f84:	713b      	strb	r3, [r7, #4]
  cap.reserved = 0U;
 8004f86:	687b      	ldr	r3, [r7, #4]
 8004f88:	f36f 235f 	bfc	r3, #9, #23
 8004f8c:	607b      	str	r3, [r7, #4]
  return cap;
 8004f8e:	687b      	ldr	r3, [r7, #4]
}
 8004f90:	4618      	mov	r0, r3
 8004f92:	370c      	adds	r7, #12
 8004f94:	46bd      	mov	sp, r7
 8004f96:	f85d 7b04 	ldr.w	r7, [sp], #4
 8004f9a:	4770      	bx	lr

08004f9c <XMC_USBD_Init>:

/**
 * Initializes the USB device
 **/
XMC_USBD_STATUS_t XMC_USBD_Init(XMC_USBD_t *obj)
{
 8004f9c:	b580      	push	{r7, lr}
 8004f9e:	b08a      	sub	sp, #40	; 0x28
 8004fa0:	af00      	add	r7, sp, #0
 8004fa2:	6078      	str	r0, [r7, #4]
  gintmsk_data_t gintmsk;

  XMC_ASSERT("XMC_USBD_Init: obj.usbd_max_num_eps not of type XMC_USBD_MAX_NUM_EPS_t",
 		      XMC_USBD_CHECK_INPUT_MAX_NUM_EPS(obj->usbd_max_num_eps))
  
  XMC_USBD_Enable();
 8004fa4:	f7ff fed2 	bl	8004d4c <XMC_USBD_Enable>
  
  usbd_init = obj;
 8004fa8:	4a87      	ldr	r2, [pc, #540]	; (80051c8 <XMC_USBD_Init+0x22c>)
 8004faa:	687b      	ldr	r3, [r7, #4]
 8004fac:	6013      	str	r3, [r2, #0]

  /* Filling out buffer size */
  for(i = 0U;i < (uint32_t)XMC_USBD_NUM_EPS;i++)
 8004fae:	2300      	movs	r3, #0
 8004fb0:	627b      	str	r3, [r7, #36]	; 0x24
 8004fb2:	e00c      	b.n	8004fce <XMC_USBD_Init+0x32>
  {
	  XMC_USBD_EP_OUT_BUFFERSIZE[i] = XMC_USBD_EP0_BUFFER_SIZE;
 8004fb4:	4a85      	ldr	r2, [pc, #532]	; (80051cc <XMC_USBD_Init+0x230>)
 8004fb6:	6a7b      	ldr	r3, [r7, #36]	; 0x24
 8004fb8:	2140      	movs	r1, #64	; 0x40
 8004fba:	f842 1023 	str.w	r1, [r2, r3, lsl #2]
	  XMC_USBD_EP_IN_BUFFERSIZE[i] 	= XMC_USBD_EP0_BUFFER_SIZE;
 8004fbe:	4a84      	ldr	r2, [pc, #528]	; (80051d0 <XMC_USBD_Init+0x234>)
 8004fc0:	6a7b      	ldr	r3, [r7, #36]	; 0x24
 8004fc2:	2140      	movs	r1, #64	; 0x40
 8004fc4:	f842 1023 	str.w	r1, [r2, r3, lsl #2]
  for(i = 0U;i < (uint32_t)XMC_USBD_NUM_EPS;i++)
 8004fc8:	6a7b      	ldr	r3, [r7, #36]	; 0x24
 8004fca:	3301      	adds	r3, #1
 8004fcc:	627b      	str	r3, [r7, #36]	; 0x24
 8004fce:	6a7b      	ldr	r3, [r7, #36]	; 0x24
 8004fd0:	2b06      	cmp	r3, #6
 8004fd2:	d9ef      	bls.n	8004fb4 <XMC_USBD_Init+0x18>
  }

  /* clear device status */
  memset((void*)&xmc_device,0x0U,sizeof(XMC_USBD_DEVICE_t));
 8004fd4:	f44f 7202 	mov.w	r2, #520	; 0x208
 8004fd8:	2100      	movs	r1, #0
 8004fda:	487e      	ldr	r0, [pc, #504]	; (80051d4 <XMC_USBD_Init+0x238>)
 8004fdc:	f001 f9de 	bl	800639c <memset>

  /* assign callbacks */
  xmc_device.DeviceEvent_cb = obj->cb_xmc_device_event;
 8004fe0:	687b      	ldr	r3, [r7, #4]
 8004fe2:	685b      	ldr	r3, [r3, #4]
 8004fe4:	4a7b      	ldr	r2, [pc, #492]	; (80051d4 <XMC_USBD_Init+0x238>)
 8004fe6:	f8c2 3200 	str.w	r3, [r2, #512]	; 0x200
  xmc_device.EndpointEvent_cb = obj->cb_endpoint_event;
 8004fea:	687b      	ldr	r3, [r7, #4]
 8004fec:	689b      	ldr	r3, [r3, #8]
 8004fee:	4a79      	ldr	r2, [pc, #484]	; (80051d4 <XMC_USBD_Init+0x238>)
 8004ff0:	f8c2 3204 	str.w	r3, [r2, #516]	; 0x204
  XMC_USBD_BASE_ADDRESS = (uint8_t *)(obj->usbd);
 8004ff4:	687b      	ldr	r3, [r7, #4]
 8004ff6:	681b      	ldr	r3, [r3, #0]
 8004ff8:	623b      	str	r3, [r7, #32]
  /* assign register address */
  xmc_device.global_register = (dwc_otg_core_global_regs_t*)(obj->usbd);
 8004ffa:	687b      	ldr	r3, [r7, #4]
 8004ffc:	681b      	ldr	r3, [r3, #0]
 8004ffe:	4a75      	ldr	r2, [pc, #468]	; (80051d4 <XMC_USBD_Init+0x238>)
 8005000:	f8c2 31a0 	str.w	r3, [r2, #416]	; 0x1a0
  xmc_device.device_register = ((dwc_otg_device_global_regs_t*)(XMC_USBD_BASE_ADDRESS + DWC_DEV_GLOBAL_REG_OFFSET));
 8005004:	6a3b      	ldr	r3, [r7, #32]
 8005006:	f503 6300 	add.w	r3, r3, #2048	; 0x800
 800500a:	4a72      	ldr	r2, [pc, #456]	; (80051d4 <XMC_USBD_Init+0x238>)
 800500c:	f8c2 31a4 	str.w	r3, [r2, #420]	; 0x1a4
  for (i = 0U;i < (uint32_t)XMC_USBD_NUM_EPS;i++)
 8005010:	2300      	movs	r3, #0
 8005012:	627b      	str	r3, [r7, #36]	; 0x24
 8005014:	e00c      	b.n	8005030 <XMC_USBD_Init+0x94>
  {
    xmc_device.endpoint_in_register[i] = (dwc_otg_dev_in_ep_regs_t*)(XMC_USBD_BASE_ADDRESS + DWC_DEV_IN_EP_REG_OFFSET +
 8005016:	6a7b      	ldr	r3, [r7, #36]	; 0x24
 8005018:	3348      	adds	r3, #72	; 0x48
 800501a:	015b      	lsls	r3, r3, #5
 800501c:	6a3a      	ldr	r2, [r7, #32]
 800501e:	441a      	add	r2, r3
 8005020:	496c      	ldr	r1, [pc, #432]	; (80051d4 <XMC_USBD_Init+0x238>)
 8005022:	6a7b      	ldr	r3, [r7, #36]	; 0x24
 8005024:	336a      	adds	r3, #106	; 0x6a
 8005026:	f841 2023 	str.w	r2, [r1, r3, lsl #2]
  for (i = 0U;i < (uint32_t)XMC_USBD_NUM_EPS;i++)
 800502a:	6a7b      	ldr	r3, [r7, #36]	; 0x24
 800502c:	3301      	adds	r3, #1
 800502e:	627b      	str	r3, [r7, #36]	; 0x24
 8005030:	6a7b      	ldr	r3, [r7, #36]	; 0x24
 8005032:	2b06      	cmp	r3, #6
 8005034:	d9ef      	bls.n	8005016 <XMC_USBD_Init+0x7a>
    ((uint32_t)DWC_EP_REG_OFFSET*i));
  }
  for (i = 0U;i < (uint32_t)XMC_USBD_NUM_EPS;i++)
 8005036:	2300      	movs	r3, #0
 8005038:	627b      	str	r3, [r7, #36]	; 0x24
 800503a:	e00d      	b.n	8005058 <XMC_USBD_Init+0xbc>
  {
    xmc_device.endpoint_out_register[i] = (dwc_otg_dev_out_ep_regs_t*)(XMC_USBD_BASE_ADDRESS +
    									  DWC_DEV_OUT_EP_REG_OFFSET +
 800503c:	6a7b      	ldr	r3, [r7, #36]	; 0x24
 800503e:	3358      	adds	r3, #88	; 0x58
 8005040:	015b      	lsls	r3, r3, #5
 8005042:	6a3a      	ldr	r2, [r7, #32]
 8005044:	441a      	add	r2, r3
    xmc_device.endpoint_out_register[i] = (dwc_otg_dev_out_ep_regs_t*)(XMC_USBD_BASE_ADDRESS +
 8005046:	4963      	ldr	r1, [pc, #396]	; (80051d4 <XMC_USBD_Init+0x238>)
 8005048:	6a7b      	ldr	r3, [r7, #36]	; 0x24
 800504a:	3370      	adds	r3, #112	; 0x70
 800504c:	009b      	lsls	r3, r3, #2
 800504e:	440b      	add	r3, r1
 8005050:	605a      	str	r2, [r3, #4]
  for (i = 0U;i < (uint32_t)XMC_USBD_NUM_EPS;i++)
 8005052:	6a7b      	ldr	r3, [r7, #36]	; 0x24
 8005054:	3301      	adds	r3, #1
 8005056:	627b      	str	r3, [r7, #36]	; 0x24
 8005058:	6a7b      	ldr	r3, [r7, #36]	; 0x24
 800505a:	2b06      	cmp	r3, #6
 800505c:	d9ee      	bls.n	800503c <XMC_USBD_Init+0xa0>
    									  ((uint32_t)DWC_EP_REG_OFFSET*i));
  }
  for (i = 0U;i < (uint32_t)XMC_USBD_NUM_TX_FIFOS;i++)
 800505e:	2300      	movs	r3, #0
 8005060:	627b      	str	r3, [r7, #36]	; 0x24
 8005062:	e00c      	b.n	800507e <XMC_USBD_Init+0xe2>
  {
    xmc_device.fifo[i] = (uint32_t*)(XMC_USBD_BASE_ADDRESS +
    						XMC_USBD_TX_FIFO_REG_OFFSET +
 8005064:	6a7b      	ldr	r3, [r7, #36]	; 0x24
 8005066:	3301      	adds	r3, #1
 8005068:	031b      	lsls	r3, r3, #12
 800506a:	6a3a      	ldr	r2, [r7, #32]
 800506c:	441a      	add	r2, r3
    xmc_device.fifo[i] = (uint32_t*)(XMC_USBD_BASE_ADDRESS +
 800506e:	4959      	ldr	r1, [pc, #356]	; (80051d4 <XMC_USBD_Init+0x238>)
 8005070:	6a7b      	ldr	r3, [r7, #36]	; 0x24
 8005072:	3378      	adds	r3, #120	; 0x78
 8005074:	f841 2023 	str.w	r2, [r1, r3, lsl #2]
  for (i = 0U;i < (uint32_t)XMC_USBD_NUM_TX_FIFOS;i++)
 8005078:	6a7b      	ldr	r3, [r7, #36]	; 0x24
 800507a:	3301      	adds	r3, #1
 800507c:	627b      	str	r3, [r7, #36]	; 0x24
 800507e:	6a7b      	ldr	r3, [r7, #36]	; 0x24
 8005080:	2b06      	cmp	r3, #6
 8005082:	d9ef      	bls.n	8005064 <XMC_USBD_Init+0xc8>
    						(i * XMC_USBD_TX_FIFO_OFFSET));
  }
  /* obj data structure for endpoint 0 */
  /* Done by driver core */
  /* configure ahb details */  
  gahbcfg.d32 = xmc_device.global_register->gahbcfg;
 8005084:	4b53      	ldr	r3, [pc, #332]	; (80051d4 <XMC_USBD_Init+0x238>)
 8005086:	f8d3 31a0 	ldr.w	r3, [r3, #416]	; 0x1a0
 800508a:	689b      	ldr	r3, [r3, #8]
 800508c:	61fb      	str	r3, [r7, #28]
  gahbcfg.b.glblintrmsk = 1U; /* enable interrupts ( global mask ) */
 800508e:	7f3b      	ldrb	r3, [r7, #28]
 8005090:	f043 0301 	orr.w	r3, r3, #1
 8005094:	773b      	strb	r3, [r7, #28]
  gahbcfg.b.nptxfemplvl_txfemplvl = 1U;
 8005096:	7f3b      	ldrb	r3, [r7, #28]
 8005098:	f043 0380 	orr.w	r3, r3, #128	; 0x80
 800509c:	773b      	strb	r3, [r7, #28]
  if(obj->usbd_transfer_mode == XMC_USBD_USE_DMA)
 800509e:	687b      	ldr	r3, [r7, #4]
 80050a0:	7b5b      	ldrb	r3, [r3, #13]
 80050a2:	2b00      	cmp	r3, #0
 80050a4:	d104      	bne.n	80050b0 <XMC_USBD_Init+0x114>
  {
    /* Enable dma if needed */
    gahbcfg.b.dmaenable = 1U; /* enable dma if needed */
 80050a6:	7f3b      	ldrb	r3, [r7, #28]
 80050a8:	f043 0320 	orr.w	r3, r3, #32
 80050ac:	773b      	strb	r3, [r7, #28]
 80050ae:	e003      	b.n	80050b8 <XMC_USBD_Init+0x11c>
  }
  else
  {
    gahbcfg.b.dmaenable = 0U;
 80050b0:	7f3b      	ldrb	r3, [r7, #28]
 80050b2:	f36f 1345 	bfc	r3, #5, #1
 80050b6:	773b      	strb	r3, [r7, #28]
  }
  xmc_device.global_register->gahbcfg = gahbcfg.d32;
 80050b8:	4b46      	ldr	r3, [pc, #280]	; (80051d4 <XMC_USBD_Init+0x238>)
 80050ba:	f8d3 31a0 	ldr.w	r3, [r3, #416]	; 0x1a0
 80050be:	69fa      	ldr	r2, [r7, #28]
 80050c0:	609a      	str	r2, [r3, #8]
  /* configure usb details */  
  gusbcfg.d32= xmc_device.global_register->gusbcfg;
 80050c2:	4b44      	ldr	r3, [pc, #272]	; (80051d4 <XMC_USBD_Init+0x238>)
 80050c4:	f8d3 31a0 	ldr.w	r3, [r3, #416]	; 0x1a0
 80050c8:	68db      	ldr	r3, [r3, #12]
 80050ca:	61bb      	str	r3, [r7, #24]
  gusbcfg.b.force_dev_mode = 1U; /* force us into device mode */
 80050cc:	7efb      	ldrb	r3, [r7, #27]
 80050ce:	f043 0340 	orr.w	r3, r3, #64	; 0x40
 80050d2:	76fb      	strb	r3, [r7, #27]
  gusbcfg.b.srpcap = 1U; /* enable session request protocoll */
 80050d4:	7e7b      	ldrb	r3, [r7, #25]
 80050d6:	f043 0301 	orr.w	r3, r3, #1
 80050da:	767b      	strb	r3, [r7, #25]
  xmc_device.global_register->gusbcfg = gusbcfg.d32;
 80050dc:	4b3d      	ldr	r3, [pc, #244]	; (80051d4 <XMC_USBD_Init+0x238>)
 80050de:	f8d3 31a0 	ldr.w	r3, [r3, #416]	; 0x1a0
 80050e2:	69ba      	ldr	r2, [r7, #24]
 80050e4:	60da      	str	r2, [r3, #12]

  /* Device init */
  /* configure device speed */  
  dcfg.d32 = xmc_device.device_register->dcfg;
 80050e6:	4b3b      	ldr	r3, [pc, #236]	; (80051d4 <XMC_USBD_Init+0x238>)
 80050e8:	f8d3 31a4 	ldr.w	r3, [r3, #420]	; 0x1a4
 80050ec:	681b      	ldr	r3, [r3, #0]
 80050ee:	617b      	str	r3, [r7, #20]
  dcfg.b.devspd = XMC_USBD_DCFG_DEVSPD_FS;
 80050f0:	7d3b      	ldrb	r3, [r7, #20]
 80050f2:	f043 0303 	orr.w	r3, r3, #3
 80050f6:	753b      	strb	r3, [r7, #20]
  dcfg.b.descdma = 0U;
 80050f8:	7dbb      	ldrb	r3, [r7, #22]
 80050fa:	f36f 13c7 	bfc	r3, #7, #1
 80050fe:	75bb      	strb	r3, [r7, #22]
  xmc_device.device_register->dcfg = dcfg.d32;
 8005100:	4b34      	ldr	r3, [pc, #208]	; (80051d4 <XMC_USBD_Init+0x238>)
 8005102:	f8d3 31a4 	ldr.w	r3, [r3, #420]	; 0x1a4
 8005106:	697a      	ldr	r2, [r7, #20]
 8005108:	601a      	str	r2, [r3, #0]
  /* configure device functions */  
  dctl.d32 = xmc_device.device_register->dctl;
 800510a:	4b32      	ldr	r3, [pc, #200]	; (80051d4 <XMC_USBD_Init+0x238>)
 800510c:	f8d3 31a4 	ldr.w	r3, [r3, #420]	; 0x1a4
 8005110:	685b      	ldr	r3, [r3, #4]
 8005112:	613b      	str	r3, [r7, #16]
  dctl.b.sftdiscon = 1U; /* disconnect the device until its connected by the user */
 8005114:	7c3b      	ldrb	r3, [r7, #16]
 8005116:	f043 0302 	orr.w	r3, r3, #2
 800511a:	743b      	strb	r3, [r7, #16]
  /* all other config is done by default register value */
  xmc_device.device_register->dctl = dctl.d32;
 800511c:	4b2d      	ldr	r3, [pc, #180]	; (80051d4 <XMC_USBD_Init+0x238>)
 800511e:	f8d3 31a4 	ldr.w	r3, [r3, #420]	; 0x1a4
 8005122:	693a      	ldr	r2, [r7, #16]
 8005124:	605a      	str	r2, [r3, #4]
  /* flush the fifos for proper operation */
  XMC_USBD_lFlushTXFifo((uint8_t)0x10U); /* 0x10 == all fifos, see doc */
 8005126:	2010      	movs	r0, #16
 8005128:	f7ff f814 	bl	8004154 <XMC_USBD_lFlushTXFifo>
  XMC_USBD_lFlushRXFifo();
 800512c:	f7ff f852 	bl	80041d4 <XMC_USBD_lFlushRXFifo>
  /* Enable Global Interrupts */
  /* clear interrupt status bits prior to unmasking */
  xmc_device.global_register->gintmsk = 0U; /* disable all interrupts */
 8005130:	4b28      	ldr	r3, [pc, #160]	; (80051d4 <XMC_USBD_Init+0x238>)
 8005132:	f8d3 31a0 	ldr.w	r3, [r3, #416]	; 0x1a0
 8005136:	2200      	movs	r2, #0
 8005138:	619a      	str	r2, [r3, #24]
  xmc_device.global_register->gintsts = 0xFFFFFFFFU; /* clear all interrupts */
 800513a:	4b26      	ldr	r3, [pc, #152]	; (80051d4 <XMC_USBD_Init+0x238>)
 800513c:	f8d3 31a0 	ldr.w	r3, [r3, #416]	; 0x1a0
 8005140:	f04f 32ff 	mov.w	r2, #4294967295	; 0xffffffff
 8005144:	615a      	str	r2, [r3, #20]
 
  gintmsk.d32 = 0U;
 8005146:	2300      	movs	r3, #0
 8005148:	60fb      	str	r3, [r7, #12]
  /* enable common interrupts */
  gintmsk.b.modemismatch = 1U;
 800514a:	7b3b      	ldrb	r3, [r7, #12]
 800514c:	f043 0302 	orr.w	r3, r3, #2
 8005150:	733b      	strb	r3, [r7, #12]
  gintmsk.b.otgintr = 1U;
 8005152:	7b3b      	ldrb	r3, [r7, #12]
 8005154:	f043 0304 	orr.w	r3, r3, #4
 8005158:	733b      	strb	r3, [r7, #12]
  gintmsk.b.sessreqintr = 1U;
 800515a:	7bfb      	ldrb	r3, [r7, #15]
 800515c:	f043 0340 	orr.w	r3, r3, #64	; 0x40
 8005160:	73fb      	strb	r3, [r7, #15]
  /* enable device interrupts */
  gintmsk.b.usbreset = 1U;
 8005162:	7b7b      	ldrb	r3, [r7, #13]
 8005164:	f043 0310 	orr.w	r3, r3, #16
 8005168:	737b      	strb	r3, [r7, #13]
  gintmsk.b.enumdone = 1U;
 800516a:	7b7b      	ldrb	r3, [r7, #13]
 800516c:	f043 0320 	orr.w	r3, r3, #32
 8005170:	737b      	strb	r3, [r7, #13]
  gintmsk.b.erlysuspend = 1U;
 8005172:	7b7b      	ldrb	r3, [r7, #13]
 8005174:	f043 0304 	orr.w	r3, r3, #4
 8005178:	737b      	strb	r3, [r7, #13]
  gintmsk.b.usbsuspend = 1U;
 800517a:	7b7b      	ldrb	r3, [r7, #13]
 800517c:	f043 0308 	orr.w	r3, r3, #8
 8005180:	737b      	strb	r3, [r7, #13]
  gintmsk.b.wkupintr = 1U;
 8005182:	7bfb      	ldrb	r3, [r7, #15]
 8005184:	f043 0380 	orr.w	r3, r3, #128	; 0x80
 8005188:	73fb      	strb	r3, [r7, #15]
  gintmsk.b.sofintr = 1U;
 800518a:	7b3b      	ldrb	r3, [r7, #12]
 800518c:	f043 0308 	orr.w	r3, r3, #8
 8005190:	733b      	strb	r3, [r7, #12]
  if(obj->usbd_transfer_mode == XMC_USBD_USE_FIFO)
 8005192:	687b      	ldr	r3, [r7, #4]
 8005194:	7b5b      	ldrb	r3, [r3, #13]
 8005196:	2b01      	cmp	r3, #1
 8005198:	d103      	bne.n	80051a2 <XMC_USBD_Init+0x206>
  {
    gintmsk.b.rxstsqlvl = 1U;
 800519a:	7b3b      	ldrb	r3, [r7, #12]
 800519c:	f043 0310 	orr.w	r3, r3, #16
 80051a0:	733b      	strb	r3, [r7, #12]
  }
  gintmsk.b.outepintr = 1U;
 80051a2:	7bbb      	ldrb	r3, [r7, #14]
 80051a4:	f043 0308 	orr.w	r3, r3, #8
 80051a8:	73bb      	strb	r3, [r7, #14]
  gintmsk.b.inepintr = 1U;
 80051aa:	7bbb      	ldrb	r3, [r7, #14]
 80051ac:	f043 0304 	orr.w	r3, r3, #4
 80051b0:	73bb      	strb	r3, [r7, #14]
  xmc_device.global_register->gintmsk = gintmsk.d32;
 80051b2:	4b08      	ldr	r3, [pc, #32]	; (80051d4 <XMC_USBD_Init+0x238>)
 80051b4:	f8d3 31a0 	ldr.w	r3, [r3, #416]	; 0x1a0
 80051b8:	68fa      	ldr	r2, [r7, #12]
 80051ba:	619a      	str	r2, [r3, #24]
  return XMC_USBD_STATUS_OK;
 80051bc:	2300      	movs	r3, #0
}
 80051be:	4618      	mov	r0, r3
 80051c0:	3728      	adds	r7, #40	; 0x28
 80051c2:	46bd      	mov	sp, r7
 80051c4:	bd80      	pop	{r7, pc}
 80051c6:	bf00      	nop
 80051c8:	20000a78 	.word	0x20000a78
 80051cc:	20000838 	.word	0x20000838
 80051d0:	20000854 	.word	0x20000854
 80051d4:	20000870 	.word	0x20000870

080051d8 <XMC_USBD_Uninitialize>:

/**
 * Uninitializes the USB device
 **/
XMC_USBD_STATUS_t XMC_USBD_Uninitialize() 
{
 80051d8:	b580      	push	{r7, lr}
 80051da:	b082      	sub	sp, #8
 80051dc:	af00      	add	r7, sp, #0
  /* Disconnect the device */
  dctl_data_t dctl;
	dctl.d32 = xmc_device.device_register->dctl;
 80051de:	4b0c      	ldr	r3, [pc, #48]	; (8005210 <XMC_USBD_Uninitialize+0x38>)
 80051e0:	f8d3 31a4 	ldr.w	r3, [r3, #420]	; 0x1a4
 80051e4:	685b      	ldr	r3, [r3, #4]
 80051e6:	607b      	str	r3, [r7, #4]
  dctl.b.sftdiscon = 1U;
 80051e8:	793b      	ldrb	r3, [r7, #4]
 80051ea:	f043 0302 	orr.w	r3, r3, #2
 80051ee:	713b      	strb	r3, [r7, #4]
  xmc_device.device_register->dctl = dctl.d32;
 80051f0:	4b07      	ldr	r3, [pc, #28]	; (8005210 <XMC_USBD_Uninitialize+0x38>)
 80051f2:	f8d3 31a4 	ldr.w	r3, [r3, #420]	; 0x1a4
 80051f6:	687a      	ldr	r2, [r7, #4]
 80051f8:	605a      	str	r2, [r3, #4]
  /* clean up */
  memset((void*)&xmc_device,0U,sizeof(xmc_device));
 80051fa:	f44f 7202 	mov.w	r2, #520	; 0x208
 80051fe:	2100      	movs	r1, #0
 8005200:	4803      	ldr	r0, [pc, #12]	; (8005210 <XMC_USBD_Uninitialize+0x38>)
 8005202:	f001 f8cb 	bl	800639c <memset>
  return XMC_USBD_STATUS_OK;
 8005206:	2300      	movs	r3, #0
}
 8005208:	4618      	mov	r0, r3
 800520a:	3708      	adds	r7, #8
 800520c:	46bd      	mov	sp, r7
 800520e:	bd80      	pop	{r7, pc}
 8005210:	20000870 	.word	0x20000870

08005214 <XMC_USBD_DeviceConnect>:

/**
 * Connects the USB device to host
 **/
XMC_USBD_STATUS_t XMC_USBD_DeviceConnect() 
{
 8005214:	b480      	push	{r7}
 8005216:	b083      	sub	sp, #12
 8005218:	af00      	add	r7, sp, #0
  /* Just disable softdisconnect */
  dctl_data_t dctl;
	dctl.d32 = xmc_device.device_register->dctl;
 800521a:	4b0a      	ldr	r3, [pc, #40]	; (8005244 <XMC_USBD_DeviceConnect+0x30>)
 800521c:	f8d3 31a4 	ldr.w	r3, [r3, #420]	; 0x1a4
 8005220:	685b      	ldr	r3, [r3, #4]
 8005222:	607b      	str	r3, [r7, #4]
  dctl.b.sftdiscon = 0U;
 8005224:	793b      	ldrb	r3, [r7, #4]
 8005226:	f36f 0341 	bfc	r3, #1, #1
 800522a:	713b      	strb	r3, [r7, #4]
  xmc_device.device_register->dctl = dctl.d32;
 800522c:	4b05      	ldr	r3, [pc, #20]	; (8005244 <XMC_USBD_DeviceConnect+0x30>)
 800522e:	f8d3 31a4 	ldr.w	r3, [r3, #420]	; 0x1a4
 8005232:	687a      	ldr	r2, [r7, #4]
 8005234:	605a      	str	r2, [r3, #4]
  return XMC_USBD_STATUS_OK;
 8005236:	2300      	movs	r3, #0
}
 8005238:	4618      	mov	r0, r3
 800523a:	370c      	adds	r7, #12
 800523c:	46bd      	mov	sp, r7
 800523e:	f85d 7b04 	ldr.w	r7, [sp], #4
 8005242:	4770      	bx	lr
 8005244:	20000870 	.word	0x20000870

08005248 <XMC_USBD_DeviceDisconnect>:

/**
 * Disconnects the USB device from host
 **/
XMC_USBD_STATUS_t XMC_USBD_DeviceDisconnect() 
{
 8005248:	b480      	push	{r7}
 800524a:	b083      	sub	sp, #12
 800524c:	af00      	add	r7, sp, #0
  dctl_data_t dctl;
	dctl.d32 = xmc_device.device_register->dctl;
 800524e:	4b0a      	ldr	r3, [pc, #40]	; (8005278 <XMC_USBD_DeviceDisconnect+0x30>)
 8005250:	f8d3 31a4 	ldr.w	r3, [r3, #420]	; 0x1a4
 8005254:	685b      	ldr	r3, [r3, #4]
 8005256:	607b      	str	r3, [r7, #4]
  dctl.b.sftdiscon = 1U;
 8005258:	793b      	ldrb	r3, [r7, #4]
 800525a:	f043 0302 	orr.w	r3, r3, #2
 800525e:	713b      	strb	r3, [r7, #4]
  xmc_device.device_register->dctl = dctl.d32;
 8005260:	4b05      	ldr	r3, [pc, #20]	; (8005278 <XMC_USBD_DeviceDisconnect+0x30>)
 8005262:	f8d3 31a4 	ldr.w	r3, [r3, #420]	; 0x1a4
 8005266:	687a      	ldr	r2, [r7, #4]
 8005268:	605a      	str	r2, [r3, #4]
  return XMC_USBD_STATUS_OK;
 800526a:	2300      	movs	r3, #0
}
 800526c:	4618      	mov	r0, r3
 800526e:	370c      	adds	r7, #12
 8005270:	46bd      	mov	sp, r7
 8005272:	f85d 7b04 	ldr.w	r7, [sp], #4
 8005276:	4770      	bx	lr
 8005278:	20000870 	.word	0x20000870

0800527c <XMC_USBD_DeviceGetState>:

/**
 * Gets the USB device state.
 **/
XMC_USBD_STATE_t XMC_USBD_DeviceGetState(const XMC_USBD_t *const obj) 
{
 800527c:	b580      	push	{r7, lr}
 800527e:	b084      	sub	sp, #16
 8005280:	af00      	add	r7, sp, #0
 8005282:	6078      	str	r0, [r7, #4]
  XMC_USBD_STATE_t state={0U};
 8005284:	2300      	movs	r3, #0
 8005286:	60fb      	str	r3, [r7, #12]
  state.speed = XMC_USBD_SPEED_FULL;
 8005288:	7b3b      	ldrb	r3, [r7, #12]
 800528a:	2201      	movs	r2, #1
 800528c:	f362 03c4 	bfi	r3, r2, #3, #2
 8005290:	733b      	strb	r3, [r7, #12]
  state.connected = xmc_device.IsConnected;
 8005292:	4b12      	ldr	r3, [pc, #72]	; (80052dc <XMC_USBD_DeviceGetState+0x60>)
 8005294:	f893 31fe 	ldrb.w	r3, [r3, #510]	; 0x1fe
 8005298:	f3c3 0300 	ubfx	r3, r3, #0, #1
 800529c:	b2da      	uxtb	r2, r3
 800529e:	7b3b      	ldrb	r3, [r7, #12]
 80052a0:	f362 0341 	bfi	r3, r2, #1, #1
 80052a4:	733b      	strb	r3, [r7, #12]
  state.active = XMC_USBD_lDeviceActive(obj);
 80052a6:	6878      	ldr	r0, [r7, #4]
 80052a8:	f7fe fe5a 	bl	8003f60 <XMC_USBD_lDeviceActive>
 80052ac:	4603      	mov	r3, r0
 80052ae:	f003 0301 	and.w	r3, r3, #1
 80052b2:	b2da      	uxtb	r2, r3
 80052b4:	7b3b      	ldrb	r3, [r7, #12]
 80052b6:	f362 0382 	bfi	r3, r2, #2, #1
 80052ba:	733b      	strb	r3, [r7, #12]
  state.powered = xmc_device.IsPowered;
 80052bc:	4b07      	ldr	r3, [pc, #28]	; (80052dc <XMC_USBD_DeviceGetState+0x60>)
 80052be:	f893 31fe 	ldrb.w	r3, [r3, #510]	; 0x1fe
 80052c2:	f3c3 0380 	ubfx	r3, r3, #2, #1
 80052c6:	b2da      	uxtb	r2, r3
 80052c8:	7b3b      	ldrb	r3, [r7, #12]
 80052ca:	f362 0300 	bfi	r3, r2, #0, #1
 80052ce:	733b      	strb	r3, [r7, #12]
  return state;
 80052d0:	68fb      	ldr	r3, [r7, #12]
}
 80052d2:	4618      	mov	r0, r3
 80052d4:	3710      	adds	r7, #16
 80052d6:	46bd      	mov	sp, r7
 80052d8:	bd80      	pop	{r7, pc}
 80052da:	bf00      	nop
 80052dc:	20000870 	.word	0x20000870

080052e0 <XMC_USBD_EndpointReadStart>:

/**
 * Prepares the endpoint to read next OUT packet
 **/
XMC_USBD_STATUS_t XMC_USBD_EndpointReadStart(const uint8_t ep_addr, uint32_t size) 
{
 80052e0:	b580      	push	{r7, lr}
 80052e2:	b084      	sub	sp, #16
 80052e4:	af00      	add	r7, sp, #0
 80052e6:	4603      	mov	r3, r0
 80052e8:	6039      	str	r1, [r7, #0]
 80052ea:	71fb      	strb	r3, [r7, #7]
  XMC_USBD_EP_t *ep = &xmc_device.ep[ep_addr & (uint8_t)XMC_USBD_EP_NUM_MASK];
 80052ec:	79fb      	ldrb	r3, [r7, #7]
 80052ee:	f003 030f 	and.w	r3, r3, #15
 80052f2:	2234      	movs	r2, #52	; 0x34
 80052f4:	fb02 f303 	mul.w	r3, r2, r3
 80052f8:	4a1a      	ldr	r2, [pc, #104]	; (8005364 <XMC_USBD_EndpointReadStart+0x84>)
 80052fa:	4413      	add	r3, r2
 80052fc:	60bb      	str	r3, [r7, #8]
  XMC_USBD_STATUS_t result;
	
  if (ep->outInUse || !ep->isConfigured)
 80052fe:	68bb      	ldr	r3, [r7, #8]
 8005300:	685b      	ldr	r3, [r3, #4]
 8005302:	f3c3 1300 	ubfx	r3, r3, #4, #1
 8005306:	b2db      	uxtb	r3, r3
 8005308:	2b00      	cmp	r3, #0
 800530a:	d106      	bne.n	800531a <XMC_USBD_EndpointReadStart+0x3a>
 800530c:	68bb      	ldr	r3, [r7, #8]
 800530e:	791b      	ldrb	r3, [r3, #4]
 8005310:	f003 0304 	and.w	r3, r3, #4
 8005314:	b2db      	uxtb	r3, r3
 8005316:	2b00      	cmp	r3, #0
 8005318:	d102      	bne.n	8005320 <XMC_USBD_EndpointReadStart+0x40>
  {
    result = XMC_USBD_STATUS_ERROR;
 800531a:	2301      	movs	r3, #1
 800531c:	73fb      	strb	r3, [r7, #15]
 800531e:	e01c      	b.n	800535a <XMC_USBD_EndpointReadStart+0x7a>
  }
  else
  {
    /* short the length to buffer size if needed */
    if (size > ep->outBufferSize)
 8005320:	68bb      	ldr	r3, [r7, #8]
 8005322:	695b      	ldr	r3, [r3, #20]
 8005324:	683a      	ldr	r2, [r7, #0]
 8005326:	429a      	cmp	r2, r3
 8005328:	d902      	bls.n	8005330 <XMC_USBD_EndpointReadStart+0x50>
    {
      size = ep->outBufferSize;
 800532a:	68bb      	ldr	r3, [r7, #8]
 800532c:	695b      	ldr	r3, [r3, #20]
 800532e:	603b      	str	r3, [r7, #0]
    }
    /* set ep values */
    ep->xferTotal = size;
 8005330:	68bb      	ldr	r3, [r7, #8]
 8005332:	683a      	ldr	r2, [r7, #0]
 8005334:	631a      	str	r2, [r3, #48]	; 0x30
    ep->xferCount = 0U;
 8005336:	68bb      	ldr	r3, [r7, #8]
 8005338:	2200      	movs	r2, #0
 800533a:	62da      	str	r2, [r3, #44]	; 0x2c
    ep->xferLength = 0U;
 800533c:	68bb      	ldr	r3, [r7, #8]
 800533e:	2200      	movs	r2, #0
 8005340:	629a      	str	r2, [r3, #40]	; 0x28
    ep->xferBuffer = ep->outBuffer;
 8005342:	68bb      	ldr	r3, [r7, #8]
 8005344:	68da      	ldr	r2, [r3, #12]
 8005346:	68bb      	ldr	r3, [r7, #8]
 8005348:	625a      	str	r2, [r3, #36]	; 0x24
    ep->outBytesAvailable = 0U;
 800534a:	68bb      	ldr	r3, [r7, #8]
 800534c:	2200      	movs	r2, #0
 800534e:	611a      	str	r2, [r3, #16]
    XMC_USBD_lStartReadXfer(ep);
 8005350:	68b8      	ldr	r0, [r7, #8]
 8005352:	f7fe ffc9 	bl	80042e8 <XMC_USBD_lStartReadXfer>
    result= XMC_USBD_STATUS_OK;
 8005356:	2300      	movs	r3, #0
 8005358:	73fb      	strb	r3, [r7, #15]
  }
  return result;
 800535a:	7bfb      	ldrb	r3, [r7, #15]
}
 800535c:	4618      	mov	r0, r3
 800535e:	3710      	adds	r7, #16
 8005360:	46bd      	mov	sp, r7
 8005362:	bd80      	pop	{r7, pc}
 8005364:	20000870 	.word	0x20000870

08005368 <XMC_USBD_EndpointRead>:

/**
 * Reads the number of bytes from the USB OUT endpoint
 **/
int32_t XMC_USBD_EndpointRead(const uint8_t ep_num,uint8_t * buffer,uint32_t length) 
{
 8005368:	b580      	push	{r7, lr}
 800536a:	b086      	sub	sp, #24
 800536c:	af00      	add	r7, sp, #0
 800536e:	4603      	mov	r3, r0
 8005370:	60b9      	str	r1, [r7, #8]
 8005372:	607a      	str	r2, [r7, #4]
 8005374:	73fb      	strb	r3, [r7, #15]
  XMC_USBD_EP_t *ep = &xmc_device.ep[ep_num];
 8005376:	7bfb      	ldrb	r3, [r7, #15]
 8005378:	2234      	movs	r2, #52	; 0x34
 800537a:	fb02 f303 	mul.w	r3, r2, r3
 800537e:	4a17      	ldr	r2, [pc, #92]	; (80053dc <XMC_USBD_EndpointRead+0x74>)
 8005380:	4413      	add	r3, r2
 8005382:	617b      	str	r3, [r7, #20]
  if (length > ep->outBytesAvailable)
 8005384:	697b      	ldr	r3, [r7, #20]
 8005386:	691b      	ldr	r3, [r3, #16]
 8005388:	687a      	ldr	r2, [r7, #4]
 800538a:	429a      	cmp	r2, r3
 800538c:	d902      	bls.n	8005394 <XMC_USBD_EndpointRead+0x2c>
  {
    length = ep->outBytesAvailable;
 800538e:	697b      	ldr	r3, [r7, #20]
 8005390:	691b      	ldr	r3, [r3, #16]
 8005392:	607b      	str	r3, [r7, #4]
  }
  memcpy(buffer,&ep->outBuffer[ep->outOffset],length);
 8005394:	697b      	ldr	r3, [r7, #20]
 8005396:	68da      	ldr	r2, [r3, #12]
 8005398:	697b      	ldr	r3, [r7, #20]
 800539a:	699b      	ldr	r3, [r3, #24]
 800539c:	4413      	add	r3, r2
 800539e:	687a      	ldr	r2, [r7, #4]
 80053a0:	4619      	mov	r1, r3
 80053a2:	68b8      	ldr	r0, [r7, #8]
 80053a4:	f000 ff60 	bl	8006268 <memcpy>
  ep->outBytesAvailable -= length;
 80053a8:	697b      	ldr	r3, [r7, #20]
 80053aa:	691a      	ldr	r2, [r3, #16]
 80053ac:	687b      	ldr	r3, [r7, #4]
 80053ae:	1ad2      	subs	r2, r2, r3
 80053b0:	697b      	ldr	r3, [r7, #20]
 80053b2:	611a      	str	r2, [r3, #16]
  if (ep->outBytesAvailable)
 80053b4:	697b      	ldr	r3, [r7, #20]
 80053b6:	691b      	ldr	r3, [r3, #16]
 80053b8:	2b00      	cmp	r3, #0
 80053ba:	d006      	beq.n	80053ca <XMC_USBD_EndpointRead+0x62>
  {
    ep->outOffset += length;
 80053bc:	697b      	ldr	r3, [r7, #20]
 80053be:	699a      	ldr	r2, [r3, #24]
 80053c0:	687b      	ldr	r3, [r7, #4]
 80053c2:	441a      	add	r2, r3
 80053c4:	697b      	ldr	r3, [r7, #20]
 80053c6:	619a      	str	r2, [r3, #24]
 80053c8:	e002      	b.n	80053d0 <XMC_USBD_EndpointRead+0x68>
  }
  else
  {
    ep->outOffset = 0U;
 80053ca:	697b      	ldr	r3, [r7, #20]
 80053cc:	2200      	movs	r2, #0
 80053ce:	619a      	str	r2, [r3, #24]
  }
  return (int32_t)length;
 80053d0:	687b      	ldr	r3, [r7, #4]
}
 80053d2:	4618      	mov	r0, r3
 80053d4:	3718      	adds	r7, #24
 80053d6:	46bd      	mov	sp, r7
 80053d8:	bd80      	pop	{r7, pc}
 80053da:	bf00      	nop
 80053dc:	20000870 	.word	0x20000870

080053e0 <XMC_USBD_EndpointWrite>:

/**
 * Writes number of bytes in to the USB IN endpoint.
 **/
int32_t XMC_USBD_EndpointWrite(const uint8_t ep_num,const uint8_t * buffer,uint32_t length) 
{
 80053e0:	b580      	push	{r7, lr}
 80053e2:	b086      	sub	sp, #24
 80053e4:	af00      	add	r7, sp, #0
 80053e6:	4603      	mov	r3, r0
 80053e8:	60b9      	str	r1, [r7, #8]
 80053ea:	607a      	str	r2, [r7, #4]
 80053ec:	73fb      	strb	r3, [r7, #15]
  XMC_USBD_EP_t * ep = &xmc_device.ep[ep_num & (uint8_t)XMC_USBD_EP_NUM_MASK];
 80053ee:	7bfb      	ldrb	r3, [r7, #15]
 80053f0:	f003 030f 	and.w	r3, r3, #15
 80053f4:	2234      	movs	r2, #52	; 0x34
 80053f6:	fb02 f303 	mul.w	r3, r2, r3
 80053fa:	4a21      	ldr	r2, [pc, #132]	; (8005480 <XMC_USBD_EndpointWrite+0xa0>)
 80053fc:	4413      	add	r3, r2
 80053fe:	613b      	str	r3, [r7, #16]
  int32_t result;
  if (!ep->isConfigured)
 8005400:	693b      	ldr	r3, [r7, #16]
 8005402:	791b      	ldrb	r3, [r3, #4]
 8005404:	f003 0304 	and.w	r3, r3, #4
 8005408:	b2db      	uxtb	r3, r3
 800540a:	2b00      	cmp	r3, #0
 800540c:	d102      	bne.n	8005414 <XMC_USBD_EndpointWrite+0x34>
  {
    result = (int32_t)XMC_USBD_STATUS_ERROR;
 800540e:	2301      	movs	r3, #1
 8005410:	617b      	str	r3, [r7, #20]
 8005412:	e030      	b.n	8005476 <XMC_USBD_EndpointWrite+0x96>
  }
  else if (ep->inInUse == 1U)
 8005414:	693b      	ldr	r3, [r7, #16]
 8005416:	685b      	ldr	r3, [r3, #4]
 8005418:	f3c3 03c0 	ubfx	r3, r3, #3, #1
 800541c:	b2db      	uxtb	r3, r3
 800541e:	2b01      	cmp	r3, #1
 8005420:	d102      	bne.n	8005428 <XMC_USBD_EndpointWrite+0x48>
  {
    result=(int32_t)0;
 8005422:	2300      	movs	r3, #0
 8005424:	617b      	str	r3, [r7, #20]
 8005426:	e026      	b.n	8005476 <XMC_USBD_EndpointWrite+0x96>
  }
  else
  {
    if (length > ep->inBufferSize)
 8005428:	693b      	ldr	r3, [r7, #16]
 800542a:	6a1b      	ldr	r3, [r3, #32]
 800542c:	687a      	ldr	r2, [r7, #4]
 800542e:	429a      	cmp	r2, r3
 8005430:	d902      	bls.n	8005438 <XMC_USBD_EndpointWrite+0x58>
    {
      length = ep->inBufferSize;
 8005432:	693b      	ldr	r3, [r7, #16]
 8005434:	6a1b      	ldr	r3, [r3, #32]
 8005436:	607b      	str	r3, [r7, #4]
    }
    /* copy data into input buffer for DMA and FIFO mode */
		memcpy(ep->inBuffer,(const void *)buffer,length);
 8005438:	693b      	ldr	r3, [r7, #16]
 800543a:	69db      	ldr	r3, [r3, #28]
 800543c:	687a      	ldr	r2, [r7, #4]
 800543e:	68b9      	ldr	r1, [r7, #8]
 8005440:	4618      	mov	r0, r3
 8005442:	f000 ff11 	bl	8006268 <memcpy>
		ep->xferBuffer = ep->inBuffer;
 8005446:	693b      	ldr	r3, [r7, #16]
 8005448:	69da      	ldr	r2, [r3, #28]
 800544a:	693b      	ldr	r3, [r7, #16]
 800544c:	625a      	str	r2, [r3, #36]	; 0x24
    ep->xferTotal = length;
 800544e:	693b      	ldr	r3, [r7, #16]
 8005450:	687a      	ldr	r2, [r7, #4]
 8005452:	631a      	str	r2, [r3, #48]	; 0x30
    /* set transfer values */
    ep->xferLength = 0U;
 8005454:	693b      	ldr	r3, [r7, #16]
 8005456:	2200      	movs	r2, #0
 8005458:	629a      	str	r2, [r3, #40]	; 0x28
    ep->xferCount = 0U;
 800545a:	693b      	ldr	r3, [r7, #16]
 800545c:	2200      	movs	r2, #0
 800545e:	62da      	str	r2, [r3, #44]	; 0x2c
    ep->inInUse = 1U;
 8005460:	693a      	ldr	r2, [r7, #16]
 8005462:	6853      	ldr	r3, [r2, #4]
 8005464:	f043 0308 	orr.w	r3, r3, #8
 8005468:	6053      	str	r3, [r2, #4]
    /* start the transfer */
    XMC_USBD_lStartWriteXfer(ep);
 800546a:	6938      	ldr	r0, [r7, #16]
 800546c:	f7fe fff8 	bl	8004460 <XMC_USBD_lStartWriteXfer>
    result=(int32_t)ep->xferTotal;
 8005470:	693b      	ldr	r3, [r7, #16]
 8005472:	6b1b      	ldr	r3, [r3, #48]	; 0x30
 8005474:	617b      	str	r3, [r7, #20]
  }
  return result;
 8005476:	697b      	ldr	r3, [r7, #20]
}
 8005478:	4618      	mov	r0, r3
 800547a:	3718      	adds	r7, #24
 800547c:	46bd      	mov	sp, r7
 800547e:	bd80      	pop	{r7, pc}
 8005480:	20000870 	.word	0x20000870

08005484 <XMC_USBD_DeviceSetAddress>:

/**
 * Sets the USB device address.
 **/
XMC_USBD_STATUS_t XMC_USBD_DeviceSetAddress(const uint8_t address,const XMC_USBD_SET_ADDRESS_STAGE_t stage) 
{
 8005484:	b480      	push	{r7}
 8005486:	b085      	sub	sp, #20
 8005488:	af00      	add	r7, sp, #0
 800548a:	4603      	mov	r3, r0
 800548c:	460a      	mov	r2, r1
 800548e:	71fb      	strb	r3, [r7, #7]
 8005490:	4613      	mov	r3, r2
 8005492:	71bb      	strb	r3, [r7, #6]
  dcfg_data_t data;
  data.d32 = xmc_device.device_register->dcfg;
 8005494:	4b0d      	ldr	r3, [pc, #52]	; (80054cc <XMC_USBD_DeviceSetAddress+0x48>)
 8005496:	f8d3 31a4 	ldr.w	r3, [r3, #420]	; 0x1a4
 800549a:	681b      	ldr	r3, [r3, #0]
 800549c:	60fb      	str	r3, [r7, #12]
  if (stage == XMC_USBD_SET_ADDRESS_STAGE_SETUP)
 800549e:	79bb      	ldrb	r3, [r7, #6]
 80054a0:	2b00      	cmp	r3, #0
 80054a2:	d10c      	bne.n	80054be <XMC_USBD_DeviceSetAddress+0x3a>
  {
    data.b.devaddr = address;
 80054a4:	79fb      	ldrb	r3, [r7, #7]
 80054a6:	f003 037f 	and.w	r3, r3, #127	; 0x7f
 80054aa:	b2da      	uxtb	r2, r3
 80054ac:	89bb      	ldrh	r3, [r7, #12]
 80054ae:	f362 130a 	bfi	r3, r2, #4, #7
 80054b2:	81bb      	strh	r3, [r7, #12]
    xmc_device.device_register->dcfg = data.d32;
 80054b4:	4b05      	ldr	r3, [pc, #20]	; (80054cc <XMC_USBD_DeviceSetAddress+0x48>)
 80054b6:	f8d3 31a4 	ldr.w	r3, [r3, #420]	; 0x1a4
 80054ba:	68fa      	ldr	r2, [r7, #12]
 80054bc:	601a      	str	r2, [r3, #0]
  }
	return XMC_USBD_STATUS_OK;
 80054be:	2300      	movs	r3, #0
}
 80054c0:	4618      	mov	r0, r3
 80054c2:	3714      	adds	r7, #20
 80054c4:	46bd      	mov	sp, r7
 80054c6:	f85d 7b04 	ldr.w	r7, [sp], #4
 80054ca:	4770      	bx	lr
 80054cc:	20000870 	.word	0x20000870

080054d0 <XMC_USBD_EndpointStall>:

/**
 * Set/clear stall on the selected endpoint.
 **/
XMC_USBD_STATUS_t XMC_USBD_EndpointStall(const uint8_t ep_addr, const bool stall) 
{
 80054d0:	b480      	push	{r7}
 80054d2:	b085      	sub	sp, #20
 80054d4:	af00      	add	r7, sp, #0
 80054d6:	4603      	mov	r3, r0
 80054d8:	460a      	mov	r2, r1
 80054da:	71fb      	strb	r3, [r7, #7]
 80054dc:	4613      	mov	r3, r2
 80054de:	71bb      	strb	r3, [r7, #6]
  depctl_data_t data;
  XMC_USBD_EP_t *ep = &xmc_device.ep[(ep_addr & (uint8_t)XMC_USBD_EP_NUM_MASK)];
 80054e0:	79fb      	ldrb	r3, [r7, #7]
 80054e2:	f003 030f 	and.w	r3, r3, #15
 80054e6:	2234      	movs	r2, #52	; 0x34
 80054e8:	fb02 f303 	mul.w	r3, r2, r3
 80054ec:	4a4a      	ldr	r2, [pc, #296]	; (8005618 <XMC_USBD_EndpointStall+0x148>)
 80054ee:	4413      	add	r3, r2
 80054f0:	60fb      	str	r3, [r7, #12]
  if (stall)
 80054f2:	79bb      	ldrb	r3, [r7, #6]
 80054f4:	2b00      	cmp	r3, #0
 80054f6:	d040      	beq.n	800557a <XMC_USBD_EndpointStall+0xaa>
  {
    if (ep_addr & (uint8_t)XMC_USBD_ENDPOINT_DIRECTION_MASK)
 80054f8:	f997 3007 	ldrsb.w	r3, [r7, #7]
 80054fc:	2b00      	cmp	r3, #0
 80054fe:	da1a      	bge.n	8005536 <XMC_USBD_EndpointStall+0x66>
    {
      /*set stall bit */
      data.d32 = xmc_device.endpoint_in_register[ep->address_u.address_st.number]->diepctl;
 8005500:	68fb      	ldr	r3, [r7, #12]
 8005502:	781b      	ldrb	r3, [r3, #0]
 8005504:	f3c3 0303 	ubfx	r3, r3, #0, #4
 8005508:	b2db      	uxtb	r3, r3
 800550a:	4a43      	ldr	r2, [pc, #268]	; (8005618 <XMC_USBD_EndpointStall+0x148>)
 800550c:	336a      	adds	r3, #106	; 0x6a
 800550e:	f852 3023 	ldr.w	r3, [r2, r3, lsl #2]
 8005512:	681b      	ldr	r3, [r3, #0]
 8005514:	60bb      	str	r3, [r7, #8]
      data.b.stall = 1U;
 8005516:	7abb      	ldrb	r3, [r7, #10]
 8005518:	f043 0320 	orr.w	r3, r3, #32
 800551c:	72bb      	strb	r3, [r7, #10]
      xmc_device.endpoint_in_register[ep->address_u.address_st.number]->diepctl = data.d32;
 800551e:	68fb      	ldr	r3, [r7, #12]
 8005520:	781b      	ldrb	r3, [r3, #0]
 8005522:	f3c3 0303 	ubfx	r3, r3, #0, #4
 8005526:	b2db      	uxtb	r3, r3
 8005528:	4a3b      	ldr	r2, [pc, #236]	; (8005618 <XMC_USBD_EndpointStall+0x148>)
 800552a:	336a      	adds	r3, #106	; 0x6a
 800552c:	f852 3023 	ldr.w	r3, [r2, r3, lsl #2]
 8005530:	68ba      	ldr	r2, [r7, #8]
 8005532:	601a      	str	r2, [r3, #0]
 8005534:	e01b      	b.n	800556e <XMC_USBD_EndpointStall+0x9e>
    }
    else
    {
      /*set stall bit */
      data.d32 = xmc_device.endpoint_out_register[ep->address_u.address_st.number]->doepctl;
 8005536:	68fb      	ldr	r3, [r7, #12]
 8005538:	781b      	ldrb	r3, [r3, #0]
 800553a:	f3c3 0303 	ubfx	r3, r3, #0, #4
 800553e:	b2db      	uxtb	r3, r3
 8005540:	4a35      	ldr	r2, [pc, #212]	; (8005618 <XMC_USBD_EndpointStall+0x148>)
 8005542:	3370      	adds	r3, #112	; 0x70
 8005544:	009b      	lsls	r3, r3, #2
 8005546:	4413      	add	r3, r2
 8005548:	685b      	ldr	r3, [r3, #4]
 800554a:	681b      	ldr	r3, [r3, #0]
 800554c:	60bb      	str	r3, [r7, #8]
      data.b.stall = 1U;
 800554e:	7abb      	ldrb	r3, [r7, #10]
 8005550:	f043 0320 	orr.w	r3, r3, #32
 8005554:	72bb      	strb	r3, [r7, #10]
      xmc_device.endpoint_out_register[ep->address_u.address_st.number]->doepctl = data.d32;
 8005556:	68fb      	ldr	r3, [r7, #12]
 8005558:	781b      	ldrb	r3, [r3, #0]
 800555a:	f3c3 0303 	ubfx	r3, r3, #0, #4
 800555e:	b2db      	uxtb	r3, r3
 8005560:	4a2d      	ldr	r2, [pc, #180]	; (8005618 <XMC_USBD_EndpointStall+0x148>)
 8005562:	3370      	adds	r3, #112	; 0x70
 8005564:	009b      	lsls	r3, r3, #2
 8005566:	4413      	add	r3, r2
 8005568:	685b      	ldr	r3, [r3, #4]
 800556a:	68ba      	ldr	r2, [r7, #8]
 800556c:	601a      	str	r2, [r3, #0]
    }
    ep->isStalled = 1U;
 800556e:	68fa      	ldr	r2, [r7, #12]
 8005570:	7913      	ldrb	r3, [r2, #4]
 8005572:	f043 0320 	orr.w	r3, r3, #32
 8005576:	7113      	strb	r3, [r2, #4]
 8005578:	e047      	b.n	800560a <XMC_USBD_EndpointStall+0x13a>
  }
  else
  {
    /* just clear stall bit */
		if (ep_addr & (uint8_t)XMC_USBD_ENDPOINT_DIRECTION_MASK)
 800557a:	f997 3007 	ldrsb.w	r3, [r7, #7]
 800557e:	2b00      	cmp	r3, #0
 8005580:	da1e      	bge.n	80055c0 <XMC_USBD_EndpointStall+0xf0>
		{
			data.d32 = xmc_device.endpoint_in_register[ep->address_u.address_st.number]->diepctl;
 8005582:	68fb      	ldr	r3, [r7, #12]
 8005584:	781b      	ldrb	r3, [r3, #0]
 8005586:	f3c3 0303 	ubfx	r3, r3, #0, #4
 800558a:	b2db      	uxtb	r3, r3
 800558c:	4a22      	ldr	r2, [pc, #136]	; (8005618 <XMC_USBD_EndpointStall+0x148>)
 800558e:	336a      	adds	r3, #106	; 0x6a
 8005590:	f852 3023 	ldr.w	r3, [r2, r3, lsl #2]
 8005594:	681b      	ldr	r3, [r3, #0]
 8005596:	60bb      	str	r3, [r7, #8]
			data.b.stall = 0U;
 8005598:	7abb      	ldrb	r3, [r7, #10]
 800559a:	f36f 1345 	bfc	r3, #5, #1
 800559e:	72bb      	strb	r3, [r7, #10]
			data.b.setd0pid = 1U; /* reset pid to 0 */
 80055a0:	7afb      	ldrb	r3, [r7, #11]
 80055a2:	f043 0310 	orr.w	r3, r3, #16
 80055a6:	72fb      	strb	r3, [r7, #11]
			xmc_device.endpoint_in_register[ep->address_u.address_st.number]->diepctl = data.d32;
 80055a8:	68fb      	ldr	r3, [r7, #12]
 80055aa:	781b      	ldrb	r3, [r3, #0]
 80055ac:	f3c3 0303 	ubfx	r3, r3, #0, #4
 80055b0:	b2db      	uxtb	r3, r3
 80055b2:	4a19      	ldr	r2, [pc, #100]	; (8005618 <XMC_USBD_EndpointStall+0x148>)
 80055b4:	336a      	adds	r3, #106	; 0x6a
 80055b6:	f852 3023 	ldr.w	r3, [r2, r3, lsl #2]
 80055ba:	68ba      	ldr	r2, [r7, #8]
 80055bc:	601a      	str	r2, [r3, #0]
 80055be:	e01f      	b.n	8005600 <XMC_USBD_EndpointStall+0x130>
		}
		else
		{
			data.d32 = xmc_device.endpoint_out_register[ep->address_u.address_st.number]->doepctl;
 80055c0:	68fb      	ldr	r3, [r7, #12]
 80055c2:	781b      	ldrb	r3, [r3, #0]
 80055c4:	f3c3 0303 	ubfx	r3, r3, #0, #4
 80055c8:	b2db      	uxtb	r3, r3
 80055ca:	4a13      	ldr	r2, [pc, #76]	; (8005618 <XMC_USBD_EndpointStall+0x148>)
 80055cc:	3370      	adds	r3, #112	; 0x70
 80055ce:	009b      	lsls	r3, r3, #2
 80055d0:	4413      	add	r3, r2
 80055d2:	685b      	ldr	r3, [r3, #4]
 80055d4:	681b      	ldr	r3, [r3, #0]
 80055d6:	60bb      	str	r3, [r7, #8]
			data.b.stall = 0U;
 80055d8:	7abb      	ldrb	r3, [r7, #10]
 80055da:	f36f 1345 	bfc	r3, #5, #1
 80055de:	72bb      	strb	r3, [r7, #10]
			data.b.setd0pid = 1U; /* reset pid to 0 */
 80055e0:	7afb      	ldrb	r3, [r7, #11]
 80055e2:	f043 0310 	orr.w	r3, r3, #16
 80055e6:	72fb      	strb	r3, [r7, #11]
			xmc_device.endpoint_out_register[ep->address_u.address_st.number]->doepctl = data.d32;
 80055e8:	68fb      	ldr	r3, [r7, #12]
 80055ea:	781b      	ldrb	r3, [r3, #0]
 80055ec:	f3c3 0303 	ubfx	r3, r3, #0, #4
 80055f0:	b2db      	uxtb	r3, r3
 80055f2:	4a09      	ldr	r2, [pc, #36]	; (8005618 <XMC_USBD_EndpointStall+0x148>)
 80055f4:	3370      	adds	r3, #112	; 0x70
 80055f6:	009b      	lsls	r3, r3, #2
 80055f8:	4413      	add	r3, r2
 80055fa:	685b      	ldr	r3, [r3, #4]
 80055fc:	68ba      	ldr	r2, [r7, #8]
 80055fe:	601a      	str	r2, [r3, #0]
		}
		ep->isStalled = 0U;
 8005600:	68fa      	ldr	r2, [r7, #12]
 8005602:	7913      	ldrb	r3, [r2, #4]
 8005604:	f36f 1345 	bfc	r3, #5, #1
 8005608:	7113      	strb	r3, [r2, #4]
	}
	return XMC_USBD_STATUS_OK;
 800560a:	2300      	movs	r3, #0
}
 800560c:	4618      	mov	r0, r3
 800560e:	3714      	adds	r7, #20
 8005610:	46bd      	mov	sp, r7
 8005612:	f85d 7b04 	ldr.w	r7, [sp], #4
 8005616:	4770      	bx	lr
 8005618:	20000870 	.word	0x20000870

0800561c <XMC_USBD_EndpointAbort>:

/**
 * Aborts the data transfer on the selected endpoint
 **/
XMC_USBD_STATUS_t XMC_USBD_EndpointAbort(const uint8_t ep_addr) {
 800561c:	b480      	push	{r7}
 800561e:	b085      	sub	sp, #20
 8005620:	af00      	add	r7, sp, #0
 8005622:	4603      	mov	r3, r0
 8005624:	71fb      	strb	r3, [r7, #7]
  XMC_USBD_EP_t *ep = &xmc_device.ep[ep_addr & (uint8_t)XMC_USBD_ENDPOINT_NUMBER_MASK];
 8005626:	79fb      	ldrb	r3, [r7, #7]
 8005628:	f003 030f 	and.w	r3, r3, #15
 800562c:	2234      	movs	r2, #52	; 0x34
 800562e:	fb02 f303 	mul.w	r3, r2, r3
 8005632:	4a1b      	ldr	r2, [pc, #108]	; (80056a0 <XMC_USBD_EndpointAbort+0x84>)
 8005634:	4413      	add	r3, r2
 8005636:	60fb      	str	r3, [r7, #12]
  if (ep->address_u.address_st.direction)
 8005638:	68fb      	ldr	r3, [r7, #12]
 800563a:	781b      	ldrb	r3, [r3, #0]
 800563c:	f023 037f 	bic.w	r3, r3, #127	; 0x7f
 8005640:	b2db      	uxtb	r3, r3
 8005642:	2b00      	cmp	r3, #0
 8005644:	d004      	beq.n	8005650 <XMC_USBD_EndpointAbort+0x34>
  {
    ep->inInUse = 0U;
 8005646:	68fa      	ldr	r2, [r7, #12]
 8005648:	6853      	ldr	r3, [r2, #4]
 800564a:	f36f 03c3 	bfc	r3, #3, #1
 800564e:	6053      	str	r3, [r2, #4]
  }
  if (!ep->address_u.address_st.direction)
 8005650:	68fb      	ldr	r3, [r7, #12]
 8005652:	781b      	ldrb	r3, [r3, #0]
 8005654:	f023 037f 	bic.w	r3, r3, #127	; 0x7f
 8005658:	b2db      	uxtb	r3, r3
 800565a:	2b00      	cmp	r3, #0
 800565c:	d104      	bne.n	8005668 <XMC_USBD_EndpointAbort+0x4c>
  {
    ep->outInUse = 0U;
 800565e:	68fa      	ldr	r2, [r7, #12]
 8005660:	6853      	ldr	r3, [r2, #4]
 8005662:	f36f 1304 	bfc	r3, #4, #1
 8005666:	6053      	str	r3, [r2, #4]
  }
  ep->isStalled = 0U;
 8005668:	68fa      	ldr	r2, [r7, #12]
 800566a:	7913      	ldrb	r3, [r2, #4]
 800566c:	f36f 1345 	bfc	r3, #5, #1
 8005670:	7113      	strb	r3, [r2, #4]
  ep->outBytesAvailable = 0U;
 8005672:	68fb      	ldr	r3, [r7, #12]
 8005674:	2200      	movs	r2, #0
 8005676:	611a      	str	r2, [r3, #16]
  ep->outOffset = 0U;
 8005678:	68fb      	ldr	r3, [r7, #12]
 800567a:	2200      	movs	r2, #0
 800567c:	619a      	str	r2, [r3, #24]
  ep->xferLength = 0U;
 800567e:	68fb      	ldr	r3, [r7, #12]
 8005680:	2200      	movs	r2, #0
 8005682:	629a      	str	r2, [r3, #40]	; 0x28
  ep->xferCount = 0U;
 8005684:	68fb      	ldr	r3, [r7, #12]
 8005686:	2200      	movs	r2, #0
 8005688:	62da      	str	r2, [r3, #44]	; 0x2c
  ep->xferTotal = 0U;
 800568a:	68fb      	ldr	r3, [r7, #12]
 800568c:	2200      	movs	r2, #0
 800568e:	631a      	str	r2, [r3, #48]	; 0x30

  return XMC_USBD_STATUS_OK;
 8005690:	2300      	movs	r3, #0
}
 8005692:	4618      	mov	r0, r3
 8005694:	3714      	adds	r7, #20
 8005696:	46bd      	mov	sp, r7
 8005698:	f85d 7b04 	ldr.w	r7, [sp], #4
 800569c:	4770      	bx	lr
 800569e:	bf00      	nop
 80056a0:	20000870 	.word	0x20000870

080056a4 <XMC_USBD_EndpointConfigure>:
 * Configures the given endpoint
 **/
XMC_USBD_STATUS_t XMC_USBD_EndpointConfigure(const uint8_t ep_addr,
		                                     const XMC_USBD_ENDPOINT_TYPE_t ep_type,
		                                     const uint16_t ep_max_packet_size) 
{
 80056a4:	b580      	push	{r7, lr}
 80056a6:	b086      	sub	sp, #24
 80056a8:	af00      	add	r7, sp, #0
 80056aa:	4603      	mov	r3, r0
 80056ac:	71fb      	strb	r3, [r7, #7]
 80056ae:	460b      	mov	r3, r1
 80056b0:	71bb      	strb	r3, [r7, #6]
 80056b2:	4613      	mov	r3, r2
 80056b4:	80bb      	strh	r3, [r7, #4]
  daint_data_t daintmsk;
  XMC_USBD_EP_t *ep;
  daintmsk.d32 = xmc_device.device_register->daintmsk;  
 80056b6:	4b9d      	ldr	r3, [pc, #628]	; (800592c <XMC_USBD_EndpointConfigure+0x288>)
 80056b8:	f8d3 31a4 	ldr.w	r3, [r3, #420]	; 0x1a4
 80056bc:	69db      	ldr	r3, [r3, #28]
 80056be:	613b      	str	r3, [r7, #16]
  ep =&xmc_device.ep[ep_addr & (uint32_t)XMC_USBD_ENDPOINT_NUMBER_MASK];
 80056c0:	79fb      	ldrb	r3, [r7, #7]
 80056c2:	f003 030f 	and.w	r3, r3, #15
 80056c6:	2234      	movs	r2, #52	; 0x34
 80056c8:	fb02 f303 	mul.w	r3, r2, r3
 80056cc:	4a97      	ldr	r2, [pc, #604]	; (800592c <XMC_USBD_EndpointConfigure+0x288>)
 80056ce:	4413      	add	r3, r2
 80056d0:	617b      	str	r3, [r7, #20]
  memset((void*)ep,0x0U,sizeof(XMC_USBD_EP_t)); /* clear endpoint structure */
 80056d2:	2234      	movs	r2, #52	; 0x34
 80056d4:	2100      	movs	r1, #0
 80056d6:	6978      	ldr	r0, [r7, #20]
 80056d8:	f000 fe60 	bl	800639c <memset>
  /* do ep configuration */
  ep->address_u.address = ep_addr;
 80056dc:	697b      	ldr	r3, [r7, #20]
 80056de:	79fa      	ldrb	r2, [r7, #7]
 80056e0:	701a      	strb	r2, [r3, #0]
  ep->isConfigured = 1U;
 80056e2:	697a      	ldr	r2, [r7, #20]
 80056e4:	7913      	ldrb	r3, [r2, #4]
 80056e6:	f043 0304 	orr.w	r3, r3, #4
 80056ea:	7113      	strb	r3, [r2, #4]
  ep->maxPacketSize = (uint8_t)ep_max_packet_size;
 80056ec:	88bb      	ldrh	r3, [r7, #4]
 80056ee:	f003 037f 	and.w	r3, r3, #127	; 0x7f
 80056f2:	b2d9      	uxtb	r1, r3
 80056f4:	697a      	ldr	r2, [r7, #20]
 80056f6:	6853      	ldr	r3, [r2, #4]
 80056f8:	f361 23d1 	bfi	r3, r1, #11, #7
 80056fc:	6053      	str	r3, [r2, #4]
  if (ep->address_u.address != 0U)
 80056fe:	697b      	ldr	r3, [r7, #20]
 8005700:	781b      	ldrb	r3, [r3, #0]
 8005702:	2b00      	cmp	r3, #0
 8005704:	d007      	beq.n	8005716 <XMC_USBD_EndpointConfigure+0x72>
  {
    ep->maxTransferSize = (uint32_t)XMC_USBD_MAX_TRANSFER_SIZE;
 8005706:	697a      	ldr	r2, [r7, #20]
 8005708:	6893      	ldr	r3, [r2, #8]
 800570a:	f64f 71c0 	movw	r1, #65472	; 0xffc0
 800570e:	f361 0312 	bfi	r3, r1, #0, #19
 8005712:	6093      	str	r3, [r2, #8]
 8005714:	e005      	b.n	8005722 <XMC_USBD_EndpointConfigure+0x7e>
  }
  else
  {
    ep->maxTransferSize = (uint32_t)XMC_USBD_MAX_TRANSFER_SIZE_EP0;
 8005716:	697a      	ldr	r2, [r7, #20]
 8005718:	6893      	ldr	r3, [r2, #8]
 800571a:	2140      	movs	r1, #64	; 0x40
 800571c:	f361 0312 	bfi	r3, r1, #0, #19
 8005720:	6093      	str	r3, [r2, #8]
  }
  /* transfer buffer */
  ep->inBuffer = XMC_USBD_EP_IN_BUFFER[ep->address_u.address_st.number];
 8005722:	697b      	ldr	r3, [r7, #20]
 8005724:	781b      	ldrb	r3, [r3, #0]
 8005726:	f3c3 0303 	ubfx	r3, r3, #0, #4
 800572a:	b2db      	uxtb	r3, r3
 800572c:	021b      	lsls	r3, r3, #8
 800572e:	4a80      	ldr	r2, [pc, #512]	; (8005930 <XMC_USBD_EndpointConfigure+0x28c>)
 8005730:	441a      	add	r2, r3
 8005732:	697b      	ldr	r3, [r7, #20]
 8005734:	61da      	str	r2, [r3, #28]
  ep->outBuffer = XMC_USBD_EP_OUT_BUFFER[ep->address_u.address_st.number];
 8005736:	697b      	ldr	r3, [r7, #20]
 8005738:	781b      	ldrb	r3, [r3, #0]
 800573a:	f3c3 0303 	ubfx	r3, r3, #0, #4
 800573e:	b2db      	uxtb	r3, r3
 8005740:	021b      	lsls	r3, r3, #8
 8005742:	4a7c      	ldr	r2, [pc, #496]	; (8005934 <XMC_USBD_EndpointConfigure+0x290>)
 8005744:	441a      	add	r2, r3
 8005746:	697b      	ldr	r3, [r7, #20]
 8005748:	60da      	str	r2, [r3, #12]
  /* buffer size*/
  ep->inBufferSize = XMC_USBD_EP_IN_BUFFERSIZE[ep->address_u.address_st.number];
 800574a:	697b      	ldr	r3, [r7, #20]
 800574c:	781b      	ldrb	r3, [r3, #0]
 800574e:	f3c3 0303 	ubfx	r3, r3, #0, #4
 8005752:	b2db      	uxtb	r3, r3
 8005754:	461a      	mov	r2, r3
 8005756:	4b78      	ldr	r3, [pc, #480]	; (8005938 <XMC_USBD_EndpointConfigure+0x294>)
 8005758:	f853 2022 	ldr.w	r2, [r3, r2, lsl #2]
 800575c:	697b      	ldr	r3, [r7, #20]
 800575e:	621a      	str	r2, [r3, #32]
  ep->outBufferSize = XMC_USBD_EP_OUT_BUFFERSIZE[ep->address_u.address_st.number];
 8005760:	697b      	ldr	r3, [r7, #20]
 8005762:	781b      	ldrb	r3, [r3, #0]
 8005764:	f3c3 0303 	ubfx	r3, r3, #0, #4
 8005768:	b2db      	uxtb	r3, r3
 800576a:	461a      	mov	r2, r3
 800576c:	4b73      	ldr	r3, [pc, #460]	; (800593c <XMC_USBD_EndpointConfigure+0x298>)
 800576e:	f853 2022 	ldr.w	r2, [r3, r2, lsl #2]
 8005772:	697b      	ldr	r3, [r7, #20]
 8005774:	615a      	str	r2, [r3, #20]
  /* is in */
  if ((ep->address_u.address_st.direction == 1U) || (ep_type == XMC_USBD_ENDPOINT_TYPE_CONTROL))
 8005776:	697b      	ldr	r3, [r7, #20]
 8005778:	781b      	ldrb	r3, [r3, #0]
 800577a:	f023 037f 	bic.w	r3, r3, #127	; 0x7f
 800577e:	b2db      	uxtb	r3, r3
 8005780:	2b00      	cmp	r3, #0
 8005782:	d102      	bne.n	800578a <XMC_USBD_EndpointConfigure+0xe6>
 8005784:	79bb      	ldrb	r3, [r7, #6]
 8005786:	2b00      	cmp	r3, #0
 8005788:	d17c      	bne.n	8005884 <XMC_USBD_EndpointConfigure+0x1e0>
  {
    depctl_data_t data;
    data.d32 = xmc_device.endpoint_in_register[ep->address_u.address_st.number]->diepctl;
 800578a:	697b      	ldr	r3, [r7, #20]
 800578c:	781b      	ldrb	r3, [r3, #0]
 800578e:	f3c3 0303 	ubfx	r3, r3, #0, #4
 8005792:	b2db      	uxtb	r3, r3
 8005794:	4a65      	ldr	r2, [pc, #404]	; (800592c <XMC_USBD_EndpointConfigure+0x288>)
 8005796:	336a      	adds	r3, #106	; 0x6a
 8005798:	f852 3023 	ldr.w	r3, [r2, r3, lsl #2]
 800579c:	681b      	ldr	r3, [r3, #0]
 800579e:	60fb      	str	r3, [r7, #12]
		/*enable endpoint */
		data.b.usbactep = 1U;
 80057a0:	7b7b      	ldrb	r3, [r7, #13]
 80057a2:	f043 0380 	orr.w	r3, r3, #128	; 0x80
 80057a6:	737b      	strb	r3, [r7, #13]
		/* set ep type */
		data.b.eptype = (uint8_t)ep_type;
 80057a8:	79bb      	ldrb	r3, [r7, #6]
 80057aa:	f003 0303 	and.w	r3, r3, #3
 80057ae:	b2da      	uxtb	r2, r3
 80057b0:	7bbb      	ldrb	r3, [r7, #14]
 80057b2:	f362 0383 	bfi	r3, r2, #2, #2
 80057b6:	73bb      	strb	r3, [r7, #14]
		/* set mps */
    if (ep_type == XMC_USBD_ENDPOINT_TYPE_CONTROL)
 80057b8:	79bb      	ldrb	r3, [r7, #6]
 80057ba:	2b00      	cmp	r3, #0
 80057bc:	d124      	bne.n	8005808 <XMC_USBD_EndpointConfigure+0x164>
    {
			switch(ep_max_packet_size)
 80057be:	88bb      	ldrh	r3, [r7, #4]
 80057c0:	2b40      	cmp	r3, #64	; 0x40
 80057c2:	d00a      	beq.n	80057da <XMC_USBD_EndpointConfigure+0x136>
 80057c4:	2b40      	cmp	r3, #64	; 0x40
 80057c6:	dc28      	bgt.n	800581a <XMC_USBD_EndpointConfigure+0x176>
 80057c8:	2b20      	cmp	r3, #32
 80057ca:	d00b      	beq.n	80057e4 <XMC_USBD_EndpointConfigure+0x140>
 80057cc:	2b20      	cmp	r3, #32
 80057ce:	dc24      	bgt.n	800581a <XMC_USBD_EndpointConfigure+0x176>
 80057d0:	2b08      	cmp	r3, #8
 80057d2:	d013      	beq.n	80057fc <XMC_USBD_EndpointConfigure+0x158>
 80057d4:	2b10      	cmp	r3, #16
 80057d6:	d00b      	beq.n	80057f0 <XMC_USBD_EndpointConfigure+0x14c>
				break;
				case (8U):
				data.b.mps = 0x3U;
				break;
				default:
				break;
 80057d8:	e01f      	b.n	800581a <XMC_USBD_EndpointConfigure+0x176>
				data.b.mps = 0x0U;
 80057da:	89bb      	ldrh	r3, [r7, #12]
 80057dc:	f36f 030a 	bfc	r3, #0, #11
 80057e0:	81bb      	strh	r3, [r7, #12]
				break;
 80057e2:	e01b      	b.n	800581c <XMC_USBD_EndpointConfigure+0x178>
				data.b.mps = 0x1U;
 80057e4:	89bb      	ldrh	r3, [r7, #12]
 80057e6:	2201      	movs	r2, #1
 80057e8:	f362 030a 	bfi	r3, r2, #0, #11
 80057ec:	81bb      	strh	r3, [r7, #12]
				break;
 80057ee:	e015      	b.n	800581c <XMC_USBD_EndpointConfigure+0x178>
				data.b.mps = 0x2U;
 80057f0:	89bb      	ldrh	r3, [r7, #12]
 80057f2:	2202      	movs	r2, #2
 80057f4:	f362 030a 	bfi	r3, r2, #0, #11
 80057f8:	81bb      	strh	r3, [r7, #12]
				break;
 80057fa:	e00f      	b.n	800581c <XMC_USBD_EndpointConfigure+0x178>
				data.b.mps = 0x3U;
 80057fc:	89bb      	ldrh	r3, [r7, #12]
 80057fe:	2203      	movs	r2, #3
 8005800:	f362 030a 	bfi	r3, r2, #0, #11
 8005804:	81bb      	strh	r3, [r7, #12]
				break;
 8005806:	e009      	b.n	800581c <XMC_USBD_EndpointConfigure+0x178>
			}
		}
		else
		{
			data.b.mps = ep_max_packet_size;
 8005808:	88bb      	ldrh	r3, [r7, #4]
 800580a:	f3c3 030a 	ubfx	r3, r3, #0, #11
 800580e:	b29a      	uxth	r2, r3
 8005810:	89bb      	ldrh	r3, [r7, #12]
 8005812:	f362 030a 	bfi	r3, r2, #0, #11
 8005816:	81bb      	strh	r3, [r7, #12]
 8005818:	e000      	b.n	800581c <XMC_USBD_EndpointConfigure+0x178>
				break;
 800581a:	bf00      	nop
		}
		/* set first data0 pid */
		data.b.setd0pid = 1U;
 800581c:	7bfb      	ldrb	r3, [r7, #15]
 800581e:	f043 0310 	orr.w	r3, r3, #16
 8005822:	73fb      	strb	r3, [r7, #15]
		/* clear stall */
		data.b.stall = 0U;
 8005824:	7bbb      	ldrb	r3, [r7, #14]
 8005826:	f36f 1345 	bfc	r3, #5, #1
 800582a:	73bb      	strb	r3, [r7, #14]
		/* set tx fifo */
		ep->txFifoNum = XMC_USBD_lAssignTXFifo(); /* get tx fifo */
 800582c:	f7fe fd08 	bl	8004240 <XMC_USBD_lAssignTXFifo>
 8005830:	4603      	mov	r3, r0
 8005832:	f003 030f 	and.w	r3, r3, #15
 8005836:	b2d9      	uxtb	r1, r3
 8005838:	697a      	ldr	r2, [r7, #20]
 800583a:	8893      	ldrh	r3, [r2, #4]
 800583c:	f361 1389 	bfi	r3, r1, #6, #4
 8005840:	8093      	strh	r3, [r2, #4]
		data.b.txfnum = ep->txFifoNum;
 8005842:	697b      	ldr	r3, [r7, #20]
 8005844:	889b      	ldrh	r3, [r3, #4]
 8005846:	f3c3 1383 	ubfx	r3, r3, #6, #4
 800584a:	b2da      	uxtb	r2, r3
 800584c:	89fb      	ldrh	r3, [r7, #14]
 800584e:	f362 1389 	bfi	r3, r2, #6, #4
 8005852:	81fb      	strh	r3, [r7, #14]
		xmc_device.endpoint_in_register[ep->address_u.address_st.number]->diepctl = data.d32; /* configure endpoint */
 8005854:	697b      	ldr	r3, [r7, #20]
 8005856:	781b      	ldrb	r3, [r3, #0]
 8005858:	f3c3 0303 	ubfx	r3, r3, #0, #4
 800585c:	b2db      	uxtb	r3, r3
 800585e:	4a33      	ldr	r2, [pc, #204]	; (800592c <XMC_USBD_EndpointConfigure+0x288>)
 8005860:	336a      	adds	r3, #106	; 0x6a
 8005862:	f852 3023 	ldr.w	r3, [r2, r3, lsl #2]
 8005866:	68fa      	ldr	r2, [r7, #12]
 8005868:	601a      	str	r2, [r3, #0]
		daintmsk.ep.in |= (uint16_t)((uint16_t)1U << (uint8_t)ep->address_u.address_st.number); /* enable interrupts for endpoint */
 800586a:	8a3a      	ldrh	r2, [r7, #16]
 800586c:	697b      	ldr	r3, [r7, #20]
 800586e:	781b      	ldrb	r3, [r3, #0]
 8005870:	f3c3 0303 	ubfx	r3, r3, #0, #4
 8005874:	b2db      	uxtb	r3, r3
 8005876:	4619      	mov	r1, r3
 8005878:	2301      	movs	r3, #1
 800587a:	408b      	lsls	r3, r1
 800587c:	b29b      	uxth	r3, r3
 800587e:	4313      	orrs	r3, r2
 8005880:	b29b      	uxth	r3, r3
 8005882:	823b      	strh	r3, [r7, #16]
  }
  if ((ep->address_u.address_st.direction == 0U) || (ep_type == XMC_USBD_ENDPOINT_TYPE_CONTROL))
 8005884:	697b      	ldr	r3, [r7, #20]
 8005886:	781b      	ldrb	r3, [r3, #0]
 8005888:	f023 037f 	bic.w	r3, r3, #127	; 0x7f
 800588c:	b2db      	uxtb	r3, r3
 800588e:	2b00      	cmp	r3, #0
 8005890:	d002      	beq.n	8005898 <XMC_USBD_EndpointConfigure+0x1f4>
 8005892:	79bb      	ldrb	r3, [r7, #6]
 8005894:	2b00      	cmp	r3, #0
 8005896:	d175      	bne.n	8005984 <XMC_USBD_EndpointConfigure+0x2e0>
  {
    /* is out */
		depctl_data_t data;
		data.d32 = xmc_device.endpoint_out_register[ep->address_u.address_st.number]->doepctl;
 8005898:	697b      	ldr	r3, [r7, #20]
 800589a:	781b      	ldrb	r3, [r3, #0]
 800589c:	f3c3 0303 	ubfx	r3, r3, #0, #4
 80058a0:	b2db      	uxtb	r3, r3
 80058a2:	4a22      	ldr	r2, [pc, #136]	; (800592c <XMC_USBD_EndpointConfigure+0x288>)
 80058a4:	3370      	adds	r3, #112	; 0x70
 80058a6:	009b      	lsls	r3, r3, #2
 80058a8:	4413      	add	r3, r2
 80058aa:	685b      	ldr	r3, [r3, #4]
 80058ac:	681b      	ldr	r3, [r3, #0]
 80058ae:	60bb      	str	r3, [r7, #8]
		/*enable endpoint */
		data.b.usbactep = 1U;
 80058b0:	7a7b      	ldrb	r3, [r7, #9]
 80058b2:	f043 0380 	orr.w	r3, r3, #128	; 0x80
 80058b6:	727b      	strb	r3, [r7, #9]
		/* set ep type */
		data.b.eptype = (uint8_t)ep_type;
 80058b8:	79bb      	ldrb	r3, [r7, #6]
 80058ba:	f003 0303 	and.w	r3, r3, #3
 80058be:	b2da      	uxtb	r2, r3
 80058c0:	7abb      	ldrb	r3, [r7, #10]
 80058c2:	f362 0383 	bfi	r3, r2, #2, #2
 80058c6:	72bb      	strb	r3, [r7, #10]
    /* set mps */
    if (ep_type == XMC_USBD_ENDPOINT_TYPE_CONTROL)
 80058c8:	79bb      	ldrb	r3, [r7, #6]
 80058ca:	2b00      	cmp	r3, #0
 80058cc:	d124      	bne.n	8005918 <XMC_USBD_EndpointConfigure+0x274>
		{
			switch(ep_max_packet_size)
 80058ce:	88bb      	ldrh	r3, [r7, #4]
 80058d0:	2b40      	cmp	r3, #64	; 0x40
 80058d2:	d00a      	beq.n	80058ea <XMC_USBD_EndpointConfigure+0x246>
 80058d4:	2b40      	cmp	r3, #64	; 0x40
 80058d6:	dc33      	bgt.n	8005940 <XMC_USBD_EndpointConfigure+0x29c>
 80058d8:	2b20      	cmp	r3, #32
 80058da:	d00b      	beq.n	80058f4 <XMC_USBD_EndpointConfigure+0x250>
 80058dc:	2b20      	cmp	r3, #32
 80058de:	dc2f      	bgt.n	8005940 <XMC_USBD_EndpointConfigure+0x29c>
 80058e0:	2b08      	cmp	r3, #8
 80058e2:	d013      	beq.n	800590c <XMC_USBD_EndpointConfigure+0x268>
 80058e4:	2b10      	cmp	r3, #16
 80058e6:	d00b      	beq.n	8005900 <XMC_USBD_EndpointConfigure+0x25c>
					break;
				case (8U):
					data.b.mps = 0x3U;
					break;
				default:
					break;
 80058e8:	e02a      	b.n	8005940 <XMC_USBD_EndpointConfigure+0x29c>
					data.b.mps = 0x0U;
 80058ea:	893b      	ldrh	r3, [r7, #8]
 80058ec:	f36f 030a 	bfc	r3, #0, #11
 80058f0:	813b      	strh	r3, [r7, #8]
					break;
 80058f2:	e026      	b.n	8005942 <XMC_USBD_EndpointConfigure+0x29e>
					data.b.mps = 0x1U;
 80058f4:	893b      	ldrh	r3, [r7, #8]
 80058f6:	2201      	movs	r2, #1
 80058f8:	f362 030a 	bfi	r3, r2, #0, #11
 80058fc:	813b      	strh	r3, [r7, #8]
					break;
 80058fe:	e020      	b.n	8005942 <XMC_USBD_EndpointConfigure+0x29e>
					data.b.mps = 0x2U;
 8005900:	893b      	ldrh	r3, [r7, #8]
 8005902:	2202      	movs	r2, #2
 8005904:	f362 030a 	bfi	r3, r2, #0, #11
 8005908:	813b      	strh	r3, [r7, #8]
					break;
 800590a:	e01a      	b.n	8005942 <XMC_USBD_EndpointConfigure+0x29e>
					data.b.mps = 0x3U;
 800590c:	893b      	ldrh	r3, [r7, #8]
 800590e:	2203      	movs	r2, #3
 8005910:	f362 030a 	bfi	r3, r2, #0, #11
 8005914:	813b      	strh	r3, [r7, #8]
					break;
 8005916:	e014      	b.n	8005942 <XMC_USBD_EndpointConfigure+0x29e>
			}
		}
		else
		{
			data.b.mps = ep_max_packet_size;
 8005918:	88bb      	ldrh	r3, [r7, #4]
 800591a:	f3c3 030a 	ubfx	r3, r3, #0, #11
 800591e:	b29a      	uxth	r2, r3
 8005920:	893b      	ldrh	r3, [r7, #8]
 8005922:	f362 030a 	bfi	r3, r2, #0, #11
 8005926:	813b      	strh	r3, [r7, #8]
 8005928:	e00b      	b.n	8005942 <XMC_USBD_EndpointConfigure+0x29e>
 800592a:	bf00      	nop
 800592c:	20000870 	.word	0x20000870
 8005930:	30000700 	.word	0x30000700
 8005934:	30000000 	.word	0x30000000
 8005938:	20000854 	.word	0x20000854
 800593c:	20000838 	.word	0x20000838
					break;
 8005940:	bf00      	nop
		}
		/* set first data0 pid */
		data.b.setd0pid = 1U;
 8005942:	7afb      	ldrb	r3, [r7, #11]
 8005944:	f043 0310 	orr.w	r3, r3, #16
 8005948:	72fb      	strb	r3, [r7, #11]
		/* clear stall */
		data.b.stall =(uint8_t) 0U;
 800594a:	7abb      	ldrb	r3, [r7, #10]
 800594c:	f36f 1345 	bfc	r3, #5, #1
 8005950:	72bb      	strb	r3, [r7, #10]
		xmc_device.endpoint_out_register[ep->address_u.address_st.number]->doepctl = data.d32; /* configure endpoint */
 8005952:	697b      	ldr	r3, [r7, #20]
 8005954:	781b      	ldrb	r3, [r3, #0]
 8005956:	f3c3 0303 	ubfx	r3, r3, #0, #4
 800595a:	b2db      	uxtb	r3, r3
 800595c:	4a0e      	ldr	r2, [pc, #56]	; (8005998 <XMC_USBD_EndpointConfigure+0x2f4>)
 800595e:	3370      	adds	r3, #112	; 0x70
 8005960:	009b      	lsls	r3, r3, #2
 8005962:	4413      	add	r3, r2
 8005964:	685b      	ldr	r3, [r3, #4]
 8005966:	68ba      	ldr	r2, [r7, #8]
 8005968:	601a      	str	r2, [r3, #0]
		daintmsk.ep.out |=(uint16_t) ((uint16_t)1U << (uint8_t)ep->address_u.address_st.number); /* enable interrupts */
 800596a:	8a7a      	ldrh	r2, [r7, #18]
 800596c:	697b      	ldr	r3, [r7, #20]
 800596e:	781b      	ldrb	r3, [r3, #0]
 8005970:	f3c3 0303 	ubfx	r3, r3, #0, #4
 8005974:	b2db      	uxtb	r3, r3
 8005976:	4619      	mov	r1, r3
 8005978:	2301      	movs	r3, #1
 800597a:	408b      	lsls	r3, r1
 800597c:	b29b      	uxth	r3, r3
 800597e:	4313      	orrs	r3, r2
 8005980:	b29b      	uxth	r3, r3
 8005982:	827b      	strh	r3, [r7, #18]
  }
  xmc_device.device_register->daintmsk = daintmsk.d32;
 8005984:	4b04      	ldr	r3, [pc, #16]	; (8005998 <XMC_USBD_EndpointConfigure+0x2f4>)
 8005986:	f8d3 31a4 	ldr.w	r3, [r3, #420]	; 0x1a4
 800598a:	693a      	ldr	r2, [r7, #16]
 800598c:	61da      	str	r2, [r3, #28]
  return XMC_USBD_STATUS_OK;
 800598e:	2300      	movs	r3, #0
}
 8005990:	4618      	mov	r0, r3
 8005992:	3718      	adds	r7, #24
 8005994:	46bd      	mov	sp, r7
 8005996:	bd80      	pop	{r7, pc}
 8005998:	20000870 	.word	0x20000870

0800599c <XMC_USBD_EndpointUnconfigure>:

/**
 * Unconfigure the selected endpoint.
 **/
XMC_USBD_STATUS_t XMC_USBD_EndpointUnconfigure(const uint8_t ep_addr) 
{
 800599c:	b580      	push	{r7, lr}
 800599e:	b088      	sub	sp, #32
 80059a0:	af00      	add	r7, sp, #0
 80059a2:	4603      	mov	r3, r0
 80059a4:	71fb      	strb	r3, [r7, #7]
  XMC_USBD_EP_t *ep = &xmc_device.ep[ep_addr & (uint8_t)XMC_USBD_ENDPOINT_NUMBER_MASK];
 80059a6:	79fb      	ldrb	r3, [r7, #7]
 80059a8:	f003 030f 	and.w	r3, r3, #15
 80059ac:	2234      	movs	r2, #52	; 0x34
 80059ae:	fb02 f303 	mul.w	r3, r2, r3
 80059b2:	4a54      	ldr	r2, [pc, #336]	; (8005b04 <XMC_USBD_EndpointUnconfigure+0x168>)
 80059b4:	4413      	add	r3, r2
 80059b6:	61bb      	str	r3, [r7, #24]
  depctl_data_t data;
	daint_data_t daintmsk;
	XMC_USBD_STATUS_t result;
	uint32_t number_temp;
  data.d32 = 0U;  
 80059b8:	2300      	movs	r3, #0
 80059ba:	613b      	str	r3, [r7, #16]
  daintmsk.d32 = xmc_device.device_register->daintmsk;  
 80059bc:	4b51      	ldr	r3, [pc, #324]	; (8005b04 <XMC_USBD_EndpointUnconfigure+0x168>)
 80059be:	f8d3 31a4 	ldr.w	r3, [r3, #420]	; 0x1a4
 80059c2:	69db      	ldr	r3, [r3, #28]
 80059c4:	60fb      	str	r3, [r7, #12]
  number_temp = (uint32_t)((uint32_t)1U << (uint8_t)ep->address_u.address_st.number);
 80059c6:	69bb      	ldr	r3, [r7, #24]
 80059c8:	781b      	ldrb	r3, [r3, #0]
 80059ca:	f3c3 0303 	ubfx	r3, r3, #0, #4
 80059ce:	b2db      	uxtb	r3, r3
 80059d0:	461a      	mov	r2, r3
 80059d2:	2301      	movs	r3, #1
 80059d4:	4093      	lsls	r3, r2
 80059d6:	617b      	str	r3, [r7, #20]
  /* if not configured return an error */
  if (!ep->isConfigured)
 80059d8:	69bb      	ldr	r3, [r7, #24]
 80059da:	791b      	ldrb	r3, [r3, #4]
 80059dc:	f003 0304 	and.w	r3, r3, #4
 80059e0:	b2db      	uxtb	r3, r3
 80059e2:	2b00      	cmp	r3, #0
 80059e4:	d102      	bne.n	80059ec <XMC_USBD_EndpointUnconfigure+0x50>
  {
     result = XMC_USBD_STATUS_ERROR;
 80059e6:	2301      	movs	r3, #1
 80059e8:	77fb      	strb	r3, [r7, #31]
 80059ea:	e085      	b.n	8005af8 <XMC_USBD_EndpointUnconfigure+0x15c>
  }
  else
  {
    /* disable the endpoint, deactivate it and only send naks */
    data.b.usbactep = 0U;
 80059ec:	7c7b      	ldrb	r3, [r7, #17]
 80059ee:	f36f 13c7 	bfc	r3, #7, #1
 80059f2:	747b      	strb	r3, [r7, #17]
    data.b.epdis =  1U;
 80059f4:	7cfb      	ldrb	r3, [r7, #19]
 80059f6:	f043 0340 	orr.w	r3, r3, #64	; 0x40
 80059fa:	74fb      	strb	r3, [r7, #19]
    data.b.snak =  1U;
 80059fc:	7cfb      	ldrb	r3, [r7, #19]
 80059fe:	f043 0308 	orr.w	r3, r3, #8
 8005a02:	74fb      	strb	r3, [r7, #19]
    data.b.stall =  0U;
 8005a04:	7cbb      	ldrb	r3, [r7, #18]
 8005a06:	f36f 1345 	bfc	r3, #5, #1
 8005a0a:	74bb      	strb	r3, [r7, #18]
    ep->isConfigured =  0U;
 8005a0c:	69ba      	ldr	r2, [r7, #24]
 8005a0e:	7913      	ldrb	r3, [r2, #4]
 8005a10:	f36f 0382 	bfc	r3, #2, #1
 8005a14:	7113      	strb	r3, [r2, #4]
    ep->isStalled =  0U;
 8005a16:	69ba      	ldr	r2, [r7, #24]
 8005a18:	7913      	ldrb	r3, [r2, #4]
 8005a1a:	f36f 1345 	bfc	r3, #5, #1
 8005a1e:	7113      	strb	r3, [r2, #4]
    ep->outInUse =  0U;
 8005a20:	69ba      	ldr	r2, [r7, #24]
 8005a22:	6853      	ldr	r3, [r2, #4]
 8005a24:	f36f 1304 	bfc	r3, #4, #1
 8005a28:	6053      	str	r3, [r2, #4]
    ep->inInUse =  0U;
 8005a2a:	69ba      	ldr	r2, [r7, #24]
 8005a2c:	6853      	ldr	r3, [r2, #4]
 8005a2e:	f36f 03c3 	bfc	r3, #3, #1
 8005a32:	6053      	str	r3, [r2, #4]
    /* chose register based on the direction. Control Endpoint need both */
    if ((ep->address_u.address_st.direction == 1U) || (ep->type == (uint8_t)XMC_USBD_ENDPOINT_TYPE_CONTROL))
 8005a34:	69bb      	ldr	r3, [r7, #24]
 8005a36:	781b      	ldrb	r3, [r3, #0]
 8005a38:	f023 037f 	bic.w	r3, r3, #127	; 0x7f
 8005a3c:	b2db      	uxtb	r3, r3
 8005a3e:	2b00      	cmp	r3, #0
 8005a40:	d106      	bne.n	8005a50 <XMC_USBD_EndpointUnconfigure+0xb4>
 8005a42:	69bb      	ldr	r3, [r7, #24]
 8005a44:	791b      	ldrb	r3, [r3, #4]
 8005a46:	f003 0303 	and.w	r3, r3, #3
 8005a4a:	b2db      	uxtb	r3, r3
 8005a4c:	2b00      	cmp	r3, #0
 8005a4e:	d112      	bne.n	8005a76 <XMC_USBD_EndpointUnconfigure+0xda>
    {
      /* disable endpoint configuration */
      xmc_device.endpoint_in_register[ep->address_u.address_st.number]->diepctl = data.d32;
 8005a50:	69bb      	ldr	r3, [r7, #24]
 8005a52:	781b      	ldrb	r3, [r3, #0]
 8005a54:	f3c3 0303 	ubfx	r3, r3, #0, #4
 8005a58:	b2db      	uxtb	r3, r3
 8005a5a:	4a2a      	ldr	r2, [pc, #168]	; (8005b04 <XMC_USBD_EndpointUnconfigure+0x168>)
 8005a5c:	336a      	adds	r3, #106	; 0x6a
 8005a5e:	f852 3023 	ldr.w	r3, [r2, r3, lsl #2]
 8005a62:	693a      	ldr	r2, [r7, #16]
 8005a64:	601a      	str	r2, [r3, #0]
      /* disable interrupts */
      daintmsk.ep.in = (uint16_t)((uint32_t)daintmsk.ep.in & (~(uint32_t)number_temp));
 8005a66:	89ba      	ldrh	r2, [r7, #12]
 8005a68:	697b      	ldr	r3, [r7, #20]
 8005a6a:	b29b      	uxth	r3, r3
 8005a6c:	43db      	mvns	r3, r3
 8005a6e:	b29b      	uxth	r3, r3
 8005a70:	4013      	ands	r3, r2
 8005a72:	b29b      	uxth	r3, r3
 8005a74:	81bb      	strh	r3, [r7, #12]
    }
    if ((ep->address_u.address_st.direction == 0U) || (ep->type == (uint8_t)XMC_USBD_ENDPOINT_TYPE_CONTROL))
 8005a76:	69bb      	ldr	r3, [r7, #24]
 8005a78:	781b      	ldrb	r3, [r3, #0]
 8005a7a:	f023 037f 	bic.w	r3, r3, #127	; 0x7f
 8005a7e:	b2db      	uxtb	r3, r3
 8005a80:	2b00      	cmp	r3, #0
 8005a82:	d006      	beq.n	8005a92 <XMC_USBD_EndpointUnconfigure+0xf6>
 8005a84:	69bb      	ldr	r3, [r7, #24]
 8005a86:	791b      	ldrb	r3, [r3, #4]
 8005a88:	f003 0303 	and.w	r3, r3, #3
 8005a8c:	b2db      	uxtb	r3, r3
 8005a8e:	2b00      	cmp	r3, #0
 8005a90:	d123      	bne.n	8005ada <XMC_USBD_EndpointUnconfigure+0x13e>
    {
      xmc_device.endpoint_out_register[ep->address_u.address_st.number]->doepctl = data.d32;
 8005a92:	69bb      	ldr	r3, [r7, #24]
 8005a94:	781b      	ldrb	r3, [r3, #0]
 8005a96:	f3c3 0303 	ubfx	r3, r3, #0, #4
 8005a9a:	b2db      	uxtb	r3, r3
 8005a9c:	4a19      	ldr	r2, [pc, #100]	; (8005b04 <XMC_USBD_EndpointUnconfigure+0x168>)
 8005a9e:	3370      	adds	r3, #112	; 0x70
 8005aa0:	009b      	lsls	r3, r3, #2
 8005aa2:	4413      	add	r3, r2
 8005aa4:	685b      	ldr	r3, [r3, #4]
 8005aa6:	693a      	ldr	r2, [r7, #16]
 8005aa8:	601a      	str	r2, [r3, #0]
      daintmsk.ep.out = (uint16_t)((uint32_t)daintmsk.ep.out & (~(uint32_t)number_temp));
 8005aaa:	89fa      	ldrh	r2, [r7, #14]
 8005aac:	697b      	ldr	r3, [r7, #20]
 8005aae:	b29b      	uxth	r3, r3
 8005ab0:	43db      	mvns	r3, r3
 8005ab2:	b29b      	uxth	r3, r3
 8005ab4:	4013      	ands	r3, r2
 8005ab6:	b29b      	uxth	r3, r3
 8005ab8:	81fb      	strh	r3, [r7, #14]
      if(usbd_init->usbd_transfer_mode == XMC_USBD_USE_FIFO)
 8005aba:	4b13      	ldr	r3, [pc, #76]	; (8005b08 <XMC_USBD_EndpointUnconfigure+0x16c>)
 8005abc:	681b      	ldr	r3, [r3, #0]
 8005abe:	7b5b      	ldrb	r3, [r3, #13]
 8005ac0:	2b01      	cmp	r3, #1
 8005ac2:	d10a      	bne.n	8005ada <XMC_USBD_EndpointUnconfigure+0x13e>
      {
        xmc_device.device_register->dtknqr4_fifoemptymsk &= ~number_temp;
 8005ac4:	4b0f      	ldr	r3, [pc, #60]	; (8005b04 <XMC_USBD_EndpointUnconfigure+0x168>)
 8005ac6:	f8d3 31a4 	ldr.w	r3, [r3, #420]	; 0x1a4
 8005aca:	6b59      	ldr	r1, [r3, #52]	; 0x34
 8005acc:	697b      	ldr	r3, [r7, #20]
 8005ace:	43da      	mvns	r2, r3
 8005ad0:	4b0c      	ldr	r3, [pc, #48]	; (8005b04 <XMC_USBD_EndpointUnconfigure+0x168>)
 8005ad2:	f8d3 31a4 	ldr.w	r3, [r3, #420]	; 0x1a4
 8005ad6:	400a      	ands	r2, r1
 8005ad8:	635a      	str	r2, [r3, #52]	; 0x34
      }
    }
    xmc_device.device_register->daintmsk = daintmsk.d32;
 8005ada:	4b0a      	ldr	r3, [pc, #40]	; (8005b04 <XMC_USBD_EndpointUnconfigure+0x168>)
 8005adc:	f8d3 31a4 	ldr.w	r3, [r3, #420]	; 0x1a4
 8005ae0:	68fa      	ldr	r2, [r7, #12]
 8005ae2:	61da      	str	r2, [r3, #28]
    XMC_USBD_lUnassignFifo(ep->txFifoNum); /* free fifo */
 8005ae4:	69bb      	ldr	r3, [r7, #24]
 8005ae6:	889b      	ldrh	r3, [r3, #4]
 8005ae8:	f3c3 1383 	ubfx	r3, r3, #6, #4
 8005aec:	b2db      	uxtb	r3, r3
 8005aee:	4618      	mov	r0, r3
 8005af0:	f7fe fbde 	bl	80042b0 <XMC_USBD_lUnassignFifo>
    result = XMC_USBD_STATUS_OK;
 8005af4:	2300      	movs	r3, #0
 8005af6:	77fb      	strb	r3, [r7, #31]
  }
  return result;
 8005af8:	7ffb      	ldrb	r3, [r7, #31]
}
 8005afa:	4618      	mov	r0, r3
 8005afc:	3720      	adds	r7, #32
 8005afe:	46bd      	mov	sp, r7
 8005b00:	bd80      	pop	{r7, pc}
 8005b02:	bf00      	nop
 8005b04:	20000870 	.word	0x20000870
 8005b08:	20000a78 	.word	0x20000a78

08005b0c <XMC_USBD_GetFrameNumber>:

/**
 * Gets the current USB frame number
 **/
uint16_t XMC_USBD_GetFrameNumber(void) 
{
 8005b0c:	b480      	push	{r7}
 8005b0e:	b083      	sub	sp, #12
 8005b10:	af00      	add	r7, sp, #0
  uint16_t result;
  dsts_data_t dsts;
  dsts.d32 = xmc_device.device_register->dsts;
 8005b12:	4b08      	ldr	r3, [pc, #32]	; (8005b34 <XMC_USBD_GetFrameNumber+0x28>)
 8005b14:	f8d3 31a4 	ldr.w	r3, [r3, #420]	; 0x1a4
 8005b18:	689b      	ldr	r3, [r3, #8]
 8005b1a:	603b      	str	r3, [r7, #0]
  result = (uint16_t)dsts.b.soffn;
 8005b1c:	683b      	ldr	r3, [r7, #0]
 8005b1e:	f3c3 230d 	ubfx	r3, r3, #8, #14
 8005b22:	b29b      	uxth	r3, r3
 8005b24:	80fb      	strh	r3, [r7, #6]
  return result;
 8005b26:	88fb      	ldrh	r3, [r7, #6]
}
 8005b28:	4618      	mov	r0, r3
 8005b2a:	370c      	adds	r7, #12
 8005b2c:	46bd      	mov	sp, r7
 8005b2e:	f85d 7b04 	ldr.w	r7, [sp], #4
 8005b32:	4770      	bx	lr
 8005b34:	20000870 	.word	0x20000870

08005b38 <XMC_USBD_IsEnumDone>:
 * Gets the USB speed enumeration completion status.
 * This should not be used for the actual USB enumeration completion status. For the actual USB enumeration status,
 * the application layer should check for the completion of USB standard request Set configuration.
 **/
uint32_t XMC_USBD_IsEnumDone(void)
{
 8005b38:	b480      	push	{r7}
 8005b3a:	af00      	add	r7, sp, #0
  return (uint32_t)((uint8_t)xmc_device.IsConnected && (uint8_t)xmc_device.IsPowered);
 8005b3c:	4b0b      	ldr	r3, [pc, #44]	; (8005b6c <XMC_USBD_IsEnumDone+0x34>)
 8005b3e:	f893 31fe 	ldrb.w	r3, [r3, #510]	; 0x1fe
 8005b42:	f003 0301 	and.w	r3, r3, #1
 8005b46:	b2db      	uxtb	r3, r3
 8005b48:	2b00      	cmp	r3, #0
 8005b4a:	d009      	beq.n	8005b60 <XMC_USBD_IsEnumDone+0x28>
 8005b4c:	4b07      	ldr	r3, [pc, #28]	; (8005b6c <XMC_USBD_IsEnumDone+0x34>)
 8005b4e:	f893 31fe 	ldrb.w	r3, [r3, #510]	; 0x1fe
 8005b52:	f003 0304 	and.w	r3, r3, #4
 8005b56:	b2db      	uxtb	r3, r3
 8005b58:	2b00      	cmp	r3, #0
 8005b5a:	d001      	beq.n	8005b60 <XMC_USBD_IsEnumDone+0x28>
 8005b5c:	2301      	movs	r3, #1
 8005b5e:	e000      	b.n	8005b62 <XMC_USBD_IsEnumDone+0x2a>
 8005b60:	2300      	movs	r3, #0
}
 8005b62:	4618      	mov	r0, r3
 8005b64:	46bd      	mov	sp, r7
 8005b66:	f85d 7b04 	ldr.w	r7, [sp], #4
 8005b6a:	4770      	bx	lr
 8005b6c:	20000870 	.word	0x20000870

08005b70 <USB_GetNextDescriptor>:
			 */
			static inline void USB_GetNextDescriptor(uint16_t* const BytesRem,
			                                         void** CurrConfigLoc) ATTR_NON_NULL_PTR_ARG(1) ATTR_NON_NULL_PTR_ARG(2);
			static inline void USB_GetNextDescriptor(uint16_t* const BytesRem,
			                                         void** CurrConfigLoc)
			{
 8005b70:	b480      	push	{r7}
 8005b72:	b085      	sub	sp, #20
 8005b74:	af00      	add	r7, sp, #0
 8005b76:	6078      	str	r0, [r7, #4]
 8005b78:	6039      	str	r1, [r7, #0]
				uint16_t CurrDescriptorSize = DESCRIPTOR_CAST(*CurrConfigLoc, USB_Descriptor_Header_t).Size;
 8005b7a:	683b      	ldr	r3, [r7, #0]
 8005b7c:	681b      	ldr	r3, [r3, #0]
 8005b7e:	781b      	ldrb	r3, [r3, #0]
 8005b80:	81fb      	strh	r3, [r7, #14]

				if (*BytesRem < CurrDescriptorSize)
 8005b82:	687b      	ldr	r3, [r7, #4]
 8005b84:	881b      	ldrh	r3, [r3, #0]
 8005b86:	89fa      	ldrh	r2, [r7, #14]
 8005b88:	429a      	cmp	r2, r3
 8005b8a:	d902      	bls.n	8005b92 <USB_GetNextDescriptor+0x22>
				  CurrDescriptorSize = *BytesRem;
 8005b8c:	687b      	ldr	r3, [r7, #4]
 8005b8e:	881b      	ldrh	r3, [r3, #0]
 8005b90:	81fb      	strh	r3, [r7, #14]

				*CurrConfigLoc  = (void*)((uintptr_t)*CurrConfigLoc + CurrDescriptorSize);
 8005b92:	683b      	ldr	r3, [r7, #0]
 8005b94:	681b      	ldr	r3, [r3, #0]
 8005b96:	461a      	mov	r2, r3
 8005b98:	89fb      	ldrh	r3, [r7, #14]
 8005b9a:	4413      	add	r3, r2
 8005b9c:	461a      	mov	r2, r3
 8005b9e:	683b      	ldr	r3, [r7, #0]
 8005ba0:	601a      	str	r2, [r3, #0]
				*BytesRem      -= CurrDescriptorSize;
 8005ba2:	687b      	ldr	r3, [r7, #4]
 8005ba4:	881a      	ldrh	r2, [r3, #0]
 8005ba6:	89fb      	ldrh	r3, [r7, #14]
 8005ba8:	1ad3      	subs	r3, r2, r3
 8005baa:	b29a      	uxth	r2, r3
 8005bac:	687b      	ldr	r3, [r7, #4]
 8005bae:	801a      	strh	r2, [r3, #0]
			}
 8005bb0:	bf00      	nop
 8005bb2:	3714      	adds	r7, #20
 8005bb4:	46bd      	mov	sp, r7
 8005bb6:	f85d 7b04 	ldr.w	r7, [sp], #4
 8005bba:	4770      	bx	lr

08005bbc <USB_GetNextDescriptorOfType>:
#endif

void USB_GetNextDescriptorOfType(uint16_t* const BytesRem,
                                 void** const CurrConfigLoc,
                                 const uint8_t Type)
{
 8005bbc:	b580      	push	{r7, lr}
 8005bbe:	b084      	sub	sp, #16
 8005bc0:	af00      	add	r7, sp, #0
 8005bc2:	60f8      	str	r0, [r7, #12]
 8005bc4:	60b9      	str	r1, [r7, #8]
 8005bc6:	4613      	mov	r3, r2
 8005bc8:	71fb      	strb	r3, [r7, #7]
    while (*BytesRem)
 8005bca:	e009      	b.n	8005be0 <USB_GetNextDescriptorOfType+0x24>
    {
        USB_GetNextDescriptor(BytesRem, CurrConfigLoc);
 8005bcc:	68b9      	ldr	r1, [r7, #8]
 8005bce:	68f8      	ldr	r0, [r7, #12]
 8005bd0:	f7ff ffce 	bl	8005b70 <USB_GetNextDescriptor>

        if (DESCRIPTOR_TYPE(*CurrConfigLoc) == Type)
 8005bd4:	68bb      	ldr	r3, [r7, #8]
 8005bd6:	681b      	ldr	r3, [r3, #0]
 8005bd8:	785b      	ldrb	r3, [r3, #1]
 8005bda:	79fa      	ldrb	r2, [r7, #7]
 8005bdc:	429a      	cmp	r2, r3
 8005bde:	d004      	beq.n	8005bea <USB_GetNextDescriptorOfType+0x2e>
    while (*BytesRem)
 8005be0:	68fb      	ldr	r3, [r7, #12]
 8005be2:	881b      	ldrh	r3, [r3, #0]
 8005be4:	2b00      	cmp	r3, #0
 8005be6:	d1f1      	bne.n	8005bcc <USB_GetNextDescriptorOfType+0x10>
 8005be8:	e000      	b.n	8005bec <USB_GetNextDescriptorOfType+0x30>
          return;
 8005bea:	bf00      	nop
    }
}
 8005bec:	3710      	adds	r7, #16
 8005bee:	46bd      	mov	sp, r7
 8005bf0:	bd80      	pop	{r7, pc}

08005bf2 <USB_GetNextDescriptorOfTypeBefore>:

void USB_GetNextDescriptorOfTypeBefore(uint16_t* const BytesRem,
                                       void** const CurrConfigLoc,
                                       const uint8_t Type,
                                       const uint8_t BeforeType)
{
 8005bf2:	b580      	push	{r7, lr}
 8005bf4:	b084      	sub	sp, #16
 8005bf6:	af00      	add	r7, sp, #0
 8005bf8:	60f8      	str	r0, [r7, #12]
 8005bfa:	60b9      	str	r1, [r7, #8]
 8005bfc:	4611      	mov	r1, r2
 8005bfe:	461a      	mov	r2, r3
 8005c00:	460b      	mov	r3, r1
 8005c02:	71fb      	strb	r3, [r7, #7]
 8005c04:	4613      	mov	r3, r2
 8005c06:	71bb      	strb	r3, [r7, #6]
    while (*BytesRem)
 8005c08:	e013      	b.n	8005c32 <USB_GetNextDescriptorOfTypeBefore+0x40>
    {
        USB_GetNextDescriptor(BytesRem, CurrConfigLoc);
 8005c0a:	68b9      	ldr	r1, [r7, #8]
 8005c0c:	68f8      	ldr	r0, [r7, #12]
 8005c0e:	f7ff ffaf 	bl	8005b70 <USB_GetNextDescriptor>

        if (DESCRIPTOR_TYPE(*CurrConfigLoc) == Type)
 8005c12:	68bb      	ldr	r3, [r7, #8]
 8005c14:	681b      	ldr	r3, [r3, #0]
 8005c16:	785b      	ldrb	r3, [r3, #1]
 8005c18:	79fa      	ldrb	r2, [r7, #7]
 8005c1a:	429a      	cmp	r2, r3
 8005c1c:	d00e      	beq.n	8005c3c <USB_GetNextDescriptorOfTypeBefore+0x4a>
        {
            return;
        }
        else if (DESCRIPTOR_TYPE(*CurrConfigLoc) == BeforeType)
 8005c1e:	68bb      	ldr	r3, [r7, #8]
 8005c20:	681b      	ldr	r3, [r3, #0]
 8005c22:	785b      	ldrb	r3, [r3, #1]
 8005c24:	79ba      	ldrb	r2, [r7, #6]
 8005c26:	429a      	cmp	r2, r3
 8005c28:	d103      	bne.n	8005c32 <USB_GetNextDescriptorOfTypeBefore+0x40>
        {
            *BytesRem = 0;
 8005c2a:	68fb      	ldr	r3, [r7, #12]
 8005c2c:	2200      	movs	r2, #0
 8005c2e:	801a      	strh	r2, [r3, #0]
            return;
 8005c30:	e005      	b.n	8005c3e <USB_GetNextDescriptorOfTypeBefore+0x4c>
    while (*BytesRem)
 8005c32:	68fb      	ldr	r3, [r7, #12]
 8005c34:	881b      	ldrh	r3, [r3, #0]
 8005c36:	2b00      	cmp	r3, #0
 8005c38:	d1e7      	bne.n	8005c0a <USB_GetNextDescriptorOfTypeBefore+0x18>
 8005c3a:	e000      	b.n	8005c3e <USB_GetNextDescriptorOfTypeBefore+0x4c>
            return;
 8005c3c:	bf00      	nop
        }
    }
}
 8005c3e:	3710      	adds	r7, #16
 8005c40:	46bd      	mov	sp, r7
 8005c42:	bd80      	pop	{r7, pc}

08005c44 <USB_GetNextDescriptorOfTypeAfter>:

void USB_GetNextDescriptorOfTypeAfter(uint16_t* const BytesRem,
                                      void** const CurrConfigLoc,
                                      const uint8_t Type,
                                      const uint8_t AfterType)
{
 8005c44:	b580      	push	{r7, lr}
 8005c46:	b084      	sub	sp, #16
 8005c48:	af00      	add	r7, sp, #0
 8005c4a:	60f8      	str	r0, [r7, #12]
 8005c4c:	60b9      	str	r1, [r7, #8]
 8005c4e:	4611      	mov	r1, r2
 8005c50:	461a      	mov	r2, r3
 8005c52:	460b      	mov	r3, r1
 8005c54:	71fb      	strb	r3, [r7, #7]
 8005c56:	4613      	mov	r3, r2
 8005c58:	71bb      	strb	r3, [r7, #6]
    USB_GetNextDescriptorOfType(BytesRem, CurrConfigLoc, AfterType);
 8005c5a:	79bb      	ldrb	r3, [r7, #6]
 8005c5c:	461a      	mov	r2, r3
 8005c5e:	68b9      	ldr	r1, [r7, #8]
 8005c60:	68f8      	ldr	r0, [r7, #12]
 8005c62:	f7ff ffab 	bl	8005bbc <USB_GetNextDescriptorOfType>

    if (*BytesRem)
 8005c66:	68fb      	ldr	r3, [r7, #12]
 8005c68:	881b      	ldrh	r3, [r3, #0]
 8005c6a:	2b00      	cmp	r3, #0
 8005c6c:	d005      	beq.n	8005c7a <USB_GetNextDescriptorOfTypeAfter+0x36>
      USB_GetNextDescriptorOfType(BytesRem, CurrConfigLoc, Type);
 8005c6e:	79fb      	ldrb	r3, [r7, #7]
 8005c70:	461a      	mov	r2, r3
 8005c72:	68b9      	ldr	r1, [r7, #8]
 8005c74:	68f8      	ldr	r0, [r7, #12]
 8005c76:	f7ff ffa1 	bl	8005bbc <USB_GetNextDescriptorOfType>
}
 8005c7a:	bf00      	nop
 8005c7c:	3710      	adds	r7, #16
 8005c7e:	46bd      	mov	sp, r7
 8005c80:	bd80      	pop	{r7, pc}

08005c82 <USB_GetNextDescriptorComp>:

uint8_t USB_GetNextDescriptorComp(uint16_t* const BytesRem,
                                  void** const CurrConfigLoc,
                                  ConfigComparatorPtr_t const ComparatorRoutine)
{
 8005c82:	b580      	push	{r7, lr}
 8005c84:	b086      	sub	sp, #24
 8005c86:	af00      	add	r7, sp, #0
 8005c88:	60f8      	str	r0, [r7, #12]
 8005c8a:	60b9      	str	r1, [r7, #8]
 8005c8c:	607a      	str	r2, [r7, #4]
    uint8_t ErrorCode;

    while (*BytesRem)
 8005c8e:	e01e      	b.n	8005cce <USB_GetNextDescriptorComp+0x4c>
    {
        uint8_t* PrevDescLoc  = *CurrConfigLoc;
 8005c90:	68bb      	ldr	r3, [r7, #8]
 8005c92:	681b      	ldr	r3, [r3, #0]
 8005c94:	617b      	str	r3, [r7, #20]
        uint16_t PrevBytesRem = *BytesRem;
 8005c96:	68fb      	ldr	r3, [r7, #12]
 8005c98:	881b      	ldrh	r3, [r3, #0]
 8005c9a:	827b      	strh	r3, [r7, #18]

        USB_GetNextDescriptor(BytesRem, CurrConfigLoc);
 8005c9c:	68b9      	ldr	r1, [r7, #8]
 8005c9e:	68f8      	ldr	r0, [r7, #12]
 8005ca0:	f7ff ff66 	bl	8005b70 <USB_GetNextDescriptor>

        if ((ErrorCode = ComparatorRoutine(*CurrConfigLoc)) != DESCRIPTOR_SEARCH_NotFound)
 8005ca4:	68bb      	ldr	r3, [r7, #8]
 8005ca6:	681a      	ldr	r2, [r3, #0]
 8005ca8:	687b      	ldr	r3, [r7, #4]
 8005caa:	4610      	mov	r0, r2
 8005cac:	4798      	blx	r3
 8005cae:	4603      	mov	r3, r0
 8005cb0:	747b      	strb	r3, [r7, #17]
 8005cb2:	7c7b      	ldrb	r3, [r7, #17]
 8005cb4:	2b02      	cmp	r3, #2
 8005cb6:	d00a      	beq.n	8005cce <USB_GetNextDescriptorComp+0x4c>
        {
            if (ErrorCode == DESCRIPTOR_SEARCH_Fail)
 8005cb8:	7c7b      	ldrb	r3, [r7, #17]
 8005cba:	2b01      	cmp	r3, #1
 8005cbc:	d105      	bne.n	8005cca <USB_GetNextDescriptorComp+0x48>
            {
                *CurrConfigLoc = PrevDescLoc;
 8005cbe:	68bb      	ldr	r3, [r7, #8]
 8005cc0:	697a      	ldr	r2, [r7, #20]
 8005cc2:	601a      	str	r2, [r3, #0]
                *BytesRem      = PrevBytesRem;
 8005cc4:	68fb      	ldr	r3, [r7, #12]
 8005cc6:	8a7a      	ldrh	r2, [r7, #18]
 8005cc8:	801a      	strh	r2, [r3, #0]
            }

            return ErrorCode;
 8005cca:	7c7b      	ldrb	r3, [r7, #17]
 8005ccc:	e004      	b.n	8005cd8 <USB_GetNextDescriptorComp+0x56>
    while (*BytesRem)
 8005cce:	68fb      	ldr	r3, [r7, #12]
 8005cd0:	881b      	ldrh	r3, [r3, #0]
 8005cd2:	2b00      	cmp	r3, #0
 8005cd4:	d1dc      	bne.n	8005c90 <USB_GetNextDescriptorComp+0xe>
        }
    }

    return DESCRIPTOR_SEARCH_COMP_EndOfDescriptor;
 8005cd6:	2302      	movs	r3, #2
}
 8005cd8:	4618      	mov	r0, r3
 8005cda:	3718      	adds	r7, #24
 8005cdc:	46bd      	mov	sp, r7
 8005cde:	bd80      	pop	{r7, pc}

08005ce0 <USB_USBTask>:
#if defined(USB_CAN_BE_DEVICE) && !defined(DEVICE_STATE_AS_GPIOR)
volatile uint8_t     USB_DeviceState;
#endif

void USB_USBTask(void)
{
 8005ce0:	b580      	push	{r7, lr}
 8005ce2:	af00      	add	r7, sp, #0
		else if (USB_CurrentMode == USB_MODE_Host)
		  USB_HostTask();
	#elif defined(USB_CAN_BE_HOST)
		USB_HostTask();
	#elif defined(USB_CAN_BE_DEVICE)
		USB_DeviceTask();
 8005ce4:	f000 f802 	bl	8005cec <USB_DeviceTask>
	#endif
}
 8005ce8:	bf00      	nop
 8005cea:	bd80      	pop	{r7, pc}

08005cec <USB_DeviceTask>:

#if defined(USB_CAN_BE_DEVICE)
static void USB_DeviceTask(void)
{
 8005cec:	b580      	push	{r7, lr}
 8005cee:	b082      	sub	sp, #8
 8005cf0:	af00      	add	r7, sp, #0
	if (USB_DeviceState == DEVICE_STATE_Unattached)
 8005cf2:	4b1d      	ldr	r3, [pc, #116]	; (8005d68 <USB_DeviceTask+0x7c>)
 8005cf4:	781b      	ldrb	r3, [r3, #0]
 8005cf6:	b2db      	uxtb	r3, r3
 8005cf8:	2b00      	cmp	r3, #0
 8005cfa:	d031      	beq.n	8005d60 <USB_DeviceTask+0x74>
		return device.CurrentDirection | device.CurrentEndpoint;
 8005cfc:	4b1b      	ldr	r3, [pc, #108]	; (8005d6c <USB_DeviceTask+0x80>)
 8005cfe:	f893 213d 	ldrb.w	r2, [r3, #317]	; 0x13d
 8005d02:	4b1a      	ldr	r3, [pc, #104]	; (8005d6c <USB_DeviceTask+0x80>)
 8005d04:	f893 313c 	ldrb.w	r3, [r3, #316]	; 0x13c
 8005d08:	4313      	orrs	r3, r2
 8005d0a:	b2db      	uxtb	r3, r3
	  return;

	uint8_t PrevEndpoint = Endpoint_GetCurrentEndpoint();
 8005d0c:	71fb      	strb	r3, [r7, #7]
		device.CurrentEndpoint = Address & ENDPOINT_EPNUM_MASK;
 8005d0e:	2200      	movs	r2, #0
 8005d10:	4b16      	ldr	r3, [pc, #88]	; (8005d6c <USB_DeviceTask+0x80>)
 8005d12:	f883 213c 	strb.w	r2, [r3, #316]	; 0x13c
		device.CurrentDirection = (Address & ENDPOINT_DIR_MASK);
 8005d16:	2200      	movs	r2, #0
 8005d18:	4b14      	ldr	r3, [pc, #80]	; (8005d6c <USB_DeviceTask+0x80>)
 8005d1a:	f883 213d 	strb.w	r2, [r3, #317]	; 0x13d
	}
 8005d1e:	bf00      	nop
		return device.IsSetupRecieved;
 8005d20:	4b12      	ldr	r3, [pc, #72]	; (8005d6c <USB_DeviceTask+0x80>)
 8005d22:	f893 313e 	ldrb.w	r3, [r3, #318]	; 0x13e
 8005d26:	f3c3 0340 	ubfx	r3, r3, #1, #1
 8005d2a:	b2db      	uxtb	r3, r3
 8005d2c:	2b00      	cmp	r3, #0
 8005d2e:	bf14      	ite	ne
 8005d30:	2301      	movne	r3, #1
 8005d32:	2300      	moveq	r3, #0
 8005d34:	b2db      	uxtb	r3, r3

	Endpoint_SelectEndpoint(ENDPOINT_CONTROLEP);

	if (Endpoint_IsSETUPReceived())
 8005d36:	2b00      	cmp	r3, #0
 8005d38:	d001      	beq.n	8005d3e <USB_DeviceTask+0x52>
	  USB_Device_ProcessControlRequest();
 8005d3a:	f7fd fbc1 	bl	80034c0 <USB_Device_ProcessControlRequest>
 8005d3e:	79fb      	ldrb	r3, [r7, #7]
 8005d40:	71bb      	strb	r3, [r7, #6]
		device.CurrentEndpoint = Address & ENDPOINT_EPNUM_MASK;
 8005d42:	79bb      	ldrb	r3, [r7, #6]
 8005d44:	f003 030f 	and.w	r3, r3, #15
 8005d48:	b2da      	uxtb	r2, r3
 8005d4a:	4b08      	ldr	r3, [pc, #32]	; (8005d6c <USB_DeviceTask+0x80>)
 8005d4c:	f883 213c 	strb.w	r2, [r3, #316]	; 0x13c
		device.CurrentDirection = (Address & ENDPOINT_DIR_MASK);
 8005d50:	79bb      	ldrb	r3, [r7, #6]
 8005d52:	f023 037f 	bic.w	r3, r3, #127	; 0x7f
 8005d56:	b2da      	uxtb	r2, r3
 8005d58:	4b04      	ldr	r3, [pc, #16]	; (8005d6c <USB_DeviceTask+0x80>)
 8005d5a:	f883 213d 	strb.w	r2, [r3, #317]	; 0x13d
	}
 8005d5e:	e000      	b.n	8005d62 <USB_DeviceTask+0x76>
	  return;
 8005d60:	bf00      	nop

	Endpoint_SelectEndpoint(PrevEndpoint);
}
 8005d62:	3708      	adds	r7, #8
 8005d64:	46bd      	mov	sp, r7
 8005d66:	bd80      	pop	{r7, pc}
 8005d68:	20000a88 	.word	0x20000a88
 8005d6c:	200004f8 	.word	0x200004f8

08005d70 <USB_Event_Stub>:
#define  __INCLUDE_FROM_EVENTS_C
#define  __INCLUDE_FROM_USB_DRIVER
#include "Events.h"

void USB_Event_Stub(void)
{
 8005d70:	b480      	push	{r7}
 8005d72:	af00      	add	r7, sp, #0

}
 8005d74:	bf00      	nop
 8005d76:	46bd      	mov	sp, r7
 8005d78:	f85d 7b04 	ldr.w	r7, [sp], #4
 8005d7c:	4770      	bx	lr

08005d7e <delay>:

/*******************************************************************************
 * LOCAL FUNCTIONS
 *******************************************************************************/
static void delay(uint32_t cycles)
{
 8005d7e:	b480      	push	{r7}
 8005d80:	b085      	sub	sp, #20
 8005d82:	af00      	add	r7, sp, #0
 8005d84:	6078      	str	r0, [r7, #4]
  volatile uint32_t i;

  for(i = 0UL; i < cycles ;++i)
 8005d86:	2300      	movs	r3, #0
 8005d88:	60fb      	str	r3, [r7, #12]
 8005d8a:	e003      	b.n	8005d94 <delay+0x16>
  {
    __NOP();
 8005d8c:	bf00      	nop
  for(i = 0UL; i < cycles ;++i)
 8005d8e:	68fb      	ldr	r3, [r7, #12]
 8005d90:	3301      	adds	r3, #1
 8005d92:	60fb      	str	r3, [r7, #12]
 8005d94:	68fb      	ldr	r3, [r7, #12]
 8005d96:	687a      	ldr	r2, [r7, #4]
 8005d98:	429a      	cmp	r2, r3
 8005d9a:	d8f7      	bhi.n	8005d8c <delay+0xe>
  }
}
 8005d9c:	bf00      	nop
 8005d9e:	bf00      	nop
 8005da0:	3714      	adds	r7, #20
 8005da2:	46bd      	mov	sp, r7
 8005da4:	f85d 7b04 	ldr.w	r7, [sp], #4
 8005da8:	4770      	bx	lr
	...

08005dac <SystemInit>:
/*******************************************************************************
 * API IMPLEMENTATION
 *******************************************************************************/

__WEAK void SystemInit(void)
{
 8005dac:	b598      	push	{r3, r4, r7, lr}
 8005dae:	af00      	add	r7, sp, #0
  memcpy(g_chipid, CHIPID_LOC, 16);
 8005db0:	4a06      	ldr	r2, [pc, #24]	; (8005dcc <SystemInit+0x20>)
 8005db2:	f04f 5300 	mov.w	r3, #536870912	; 0x20000000
 8005db6:	4614      	mov	r4, r2
 8005db8:	cb0f      	ldmia	r3, {r0, r1, r2, r3}
 8005dba:	e884 000f 	stmia.w	r4, {r0, r1, r2, r3}

  SystemCoreSetup();
 8005dbe:	f000 f807 	bl	8005dd0 <SystemCoreSetup>
  SystemCoreClockSetup(); 
 8005dc2:	f7fa fb33 	bl	800042c <SystemCoreClockSetup>
}
 8005dc6:	bf00      	nop
 8005dc8:	bd98      	pop	{r3, r4, r7, pc}
 8005dca:	bf00      	nop
 8005dcc:	2000ffc4 	.word	0x2000ffc4

08005dd0 <SystemCoreSetup>:

__WEAK void SystemCoreSetup(void)
{
 8005dd0:	b480      	push	{r7}
 8005dd2:	b083      	sub	sp, #12
 8005dd4:	af00      	add	r7, sp, #0
  __ASM volatile ("cpsid i" : : : "memory");
 8005dd6:	b672      	cpsid	i
}
 8005dd8:	bf00      	nop
  uint32_t temp;
	
  /* relocate vector table */
  __disable_irq();
  SCB->VTOR = (uint32_t)(&__Vectors);
 8005dda:	4b17      	ldr	r3, [pc, #92]	; (8005e38 <SystemCoreSetup+0x68>)
 8005ddc:	4a17      	ldr	r2, [pc, #92]	; (8005e3c <SystemCoreSetup+0x6c>)
 8005dde:	609a      	str	r2, [r3, #8]
  __ASM volatile ("dsb 0xF":::"memory");
 8005de0:	f3bf 8f4f 	dsb	sy
}
 8005de4:	bf00      	nop
  __ASM volatile ("cpsie i" : : : "memory");
 8005de6:	b662      	cpsie	i
}
 8005de8:	bf00      	nop
  __DSB();
  __enable_irq();
    
#if ((__FPU_PRESENT == 1) && (__FPU_USED == 1))
  SCB->CPACR |= ((3UL << 10*2) |                 /* set CP10 Full Access */
 8005dea:	4b13      	ldr	r3, [pc, #76]	; (8005e38 <SystemCoreSetup+0x68>)
 8005dec:	f8d3 3088 	ldr.w	r3, [r3, #136]	; 0x88
 8005df0:	4a11      	ldr	r2, [pc, #68]	; (8005e38 <SystemCoreSetup+0x68>)
 8005df2:	f443 0370 	orr.w	r3, r3, #15728640	; 0xf00000
 8005df6:	f8c2 3088 	str.w	r3, [r2, #136]	; 0x88
                 (3UL << 11*2)  );               /* set CP11 Full Access */
#endif

  /* Enable unaligned memory access - SCB_CCR.UNALIGN_TRP = 0 */
  SCB->CCR &= ~(SCB_CCR_UNALIGN_TRP_Msk);
 8005dfa:	4b0f      	ldr	r3, [pc, #60]	; (8005e38 <SystemCoreSetup+0x68>)
 8005dfc:	695b      	ldr	r3, [r3, #20]
 8005dfe:	4a0e      	ldr	r2, [pc, #56]	; (8005e38 <SystemCoreSetup+0x68>)
 8005e00:	f023 0308 	bic.w	r3, r3, #8
 8005e04:	6153      	str	r3, [r2, #20]

  temp = FLASH0->FCON;
 8005e06:	4b0e      	ldr	r3, [pc, #56]	; (8005e40 <SystemCoreSetup+0x70>)
 8005e08:	f503 5380 	add.w	r3, r3, #4096	; 0x1000
 8005e0c:	695b      	ldr	r3, [r3, #20]
 8005e0e:	607b      	str	r3, [r7, #4]
  temp &= ~FLASH_FCON_WSPFLASH_Msk;
 8005e10:	687b      	ldr	r3, [r7, #4]
 8005e12:	f023 030f 	bic.w	r3, r3, #15
 8005e16:	607b      	str	r3, [r7, #4]
  temp |= PMU_FLASH_WS;
 8005e18:	687b      	ldr	r3, [r7, #4]
 8005e1a:	f043 0303 	orr.w	r3, r3, #3
 8005e1e:	607b      	str	r3, [r7, #4]
  FLASH0->FCON = temp;
 8005e20:	4b07      	ldr	r3, [pc, #28]	; (8005e40 <SystemCoreSetup+0x70>)
 8005e22:	f503 5380 	add.w	r3, r3, #4096	; 0x1000
 8005e26:	461a      	mov	r2, r3
 8005e28:	687b      	ldr	r3, [r7, #4]
 8005e2a:	6153      	str	r3, [r2, #20]
}
 8005e2c:	bf00      	nop
 8005e2e:	370c      	adds	r7, #12
 8005e30:	46bd      	mov	sp, r7
 8005e32:	f85d 7b04 	ldr.w	r7, [sp], #4
 8005e36:	4770      	bx	lr
 8005e38:	e000ed00 	.word	0xe000ed00
 8005e3c:	08000000 	.word	0x08000000
 8005e40:	58001000 	.word	0x58001000

__WEAK void SystemCoreClockSetup(void)
{
 8005e44:	b580      	push	{r7, lr}
 8005e46:	af00      	add	r7, sp, #0
#else
  /* Automatic calibration uses the fSTDBY */

  /* Enable HIB domain */
  /* Power up HIB domain if and only if it is currently powered down */
  if((SCU_POWER->PWRSTAT & SCU_POWER_PWRSTAT_HIBEN_Msk) == 0)
 8005e48:	4b75      	ldr	r3, [pc, #468]	; (8006020 <SystemCoreSetup+0x250>)
 8005e4a:	681b      	ldr	r3, [r3, #0]
 8005e4c:	f003 0301 	and.w	r3, r3, #1
 8005e50:	2b00      	cmp	r3, #0
 8005e52:	d10c      	bne.n	8005e6e <SystemCoreSetup+0x9e>
  {
    SCU_POWER->PWRSET |= SCU_POWER_PWRSET_HIB_Msk;
 8005e54:	4b72      	ldr	r3, [pc, #456]	; (8006020 <SystemCoreSetup+0x250>)
 8005e56:	685b      	ldr	r3, [r3, #4]
 8005e58:	4a71      	ldr	r2, [pc, #452]	; (8006020 <SystemCoreSetup+0x250>)
 8005e5a:	f043 0301 	orr.w	r3, r3, #1
 8005e5e:	6053      	str	r3, [r2, #4]

    while((SCU_POWER->PWRSTAT & SCU_POWER_PWRSTAT_HIBEN_Msk) == 0)
 8005e60:	bf00      	nop
 8005e62:	4b6f      	ldr	r3, [pc, #444]	; (8006020 <SystemCoreSetup+0x250>)
 8005e64:	681b      	ldr	r3, [r3, #0]
 8005e66:	f003 0301 	and.w	r3, r3, #1
 8005e6a:	2b00      	cmp	r3, #0
 8005e6c:	d0f9      	beq.n	8005e62 <SystemCoreSetup+0x92>
      /* wait until HIB domain is enabled */
    }
  }

  /* Remove the reset only if HIB domain were in a state of reset */
  if((SCU_RESET->RSTSTAT) & SCU_RESET_RSTSTAT_HIBRS_Msk)
 8005e6e:	4b6d      	ldr	r3, [pc, #436]	; (8006024 <SystemCoreSetup+0x254>)
 8005e70:	681b      	ldr	r3, [r3, #0]
 8005e72:	f403 7300 	and.w	r3, r3, #512	; 0x200
 8005e76:	2b00      	cmp	r3, #0
 8005e78:	d009      	beq.n	8005e8e <SystemCoreSetup+0xbe>
  {
    SCU_RESET->RSTCLR |= SCU_RESET_RSTCLR_HIBRS_Msk;
 8005e7a:	4b6a      	ldr	r3, [pc, #424]	; (8006024 <SystemCoreSetup+0x254>)
 8005e7c:	689b      	ldr	r3, [r3, #8]
 8005e7e:	4a69      	ldr	r2, [pc, #420]	; (8006024 <SystemCoreSetup+0x254>)
 8005e80:	f443 7300 	orr.w	r3, r3, #512	; 0x200
 8005e84:	6093      	str	r3, [r2, #8]
    delay(DELAY_CNT_150US_50MHZ);
 8005e86:	f641 504c 	movw	r0, #7500	; 0x1d4c
 8005e8a:	f7ff ff78 	bl	8005d7e <delay>
  SCU_HIBERNATE->HDCR |= SCU_HIBERNATE_HDCR_RCS_Msk | SCU_HIBERNATE_HDCR_STDBYSEL_Msk;

#endif /* STDBY_CLOCK_SRC == STDBY_CLOCK_SRC_OSCULP */

  /* Enable automatic calibration of internal fast oscillator */
  SCU_PLL->PLLCON0 |= SCU_PLL_PLLCON0_AOTREN_Msk;
 8005e8e:	4b66      	ldr	r3, [pc, #408]	; (8006028 <SystemCoreSetup+0x258>)
 8005e90:	685b      	ldr	r3, [r3, #4]
 8005e92:	4a65      	ldr	r2, [pc, #404]	; (8006028 <SystemCoreSetup+0x258>)
 8005e94:	f443 2300 	orr.w	r3, r3, #524288	; 0x80000
 8005e98:	6053      	str	r3, [r2, #4]
#endif /* FOFI_CALIBRATION_MODE == FOFI_CALIBRATION_MODE_AUTOMATIC */

  delay(DELAY_CNT_50US_50MHZ);
 8005e9a:	f640 10c4 	movw	r0, #2500	; 0x9c4
 8005e9e:	f7ff ff6e 	bl	8005d7e <delay>

#if ENABLE_PLL

  /* enable PLL */
  SCU_PLL->PLLCON0 &= ~(SCU_PLL_PLLCON0_VCOPWD_Msk | SCU_PLL_PLLCON0_PLLPWD_Msk);
 8005ea2:	4b61      	ldr	r3, [pc, #388]	; (8006028 <SystemCoreSetup+0x258>)
 8005ea4:	685b      	ldr	r3, [r3, #4]
 8005ea6:	4a60      	ldr	r2, [pc, #384]	; (8006028 <SystemCoreSetup+0x258>)
 8005ea8:	f423 3380 	bic.w	r3, r3, #65536	; 0x10000
 8005eac:	f023 0302 	bic.w	r3, r3, #2
 8005eb0:	6053      	str	r3, [r2, #4]

#if PLL_CLOCK_SRC != PLL_CLOCK_SRC_OFI
  /* enable OSC_HP */
  if ((SCU_OSC->OSCHPCTRL & SCU_OSC_OSCHPCTRL_MODE_Msk) != 0U)
 8005eb2:	4b5e      	ldr	r3, [pc, #376]	; (800602c <SystemCoreSetup+0x25c>)
 8005eb4:	685b      	ldr	r3, [r3, #4]
 8005eb6:	f003 0330 	and.w	r3, r3, #48	; 0x30
 8005eba:	2b00      	cmp	r3, #0
 8005ebc:	d029      	beq.n	8005f12 <SystemCoreSetup+0x142>
  {
    SCU_OSC->OSCHPCTRL &= ~(SCU_OSC_OSCHPCTRL_MODE_Msk | SCU_OSC_OSCHPCTRL_OSCVAL_Msk);
 8005ebe:	4b5b      	ldr	r3, [pc, #364]	; (800602c <SystemCoreSetup+0x25c>)
 8005ec0:	685b      	ldr	r3, [r3, #4]
 8005ec2:	4a5a      	ldr	r2, [pc, #360]	; (800602c <SystemCoreSetup+0x25c>)
 8005ec4:	f423 2370 	bic.w	r3, r3, #983040	; 0xf0000
 8005ec8:	f023 0330 	bic.w	r3, r3, #48	; 0x30
 8005ecc:	6053      	str	r3, [r2, #4]
    SCU_OSC->OSCHPCTRL |= ((OSCHP_GetFrequency() / FOSCREF) - 1UL) << SCU_OSC_OSCHPCTRL_OSCVAL_Pos;
 8005ece:	f000 f927 	bl	8006120 <OSCHP_GetFrequency>
 8005ed2:	4603      	mov	r3, r0
 8005ed4:	4a56      	ldr	r2, [pc, #344]	; (8006030 <SystemCoreSetup+0x260>)
 8005ed6:	fba2 2303 	umull	r2, r3, r2, r3
 8005eda:	0d1b      	lsrs	r3, r3, #20
 8005edc:	3b01      	subs	r3, #1
 8005ede:	041a      	lsls	r2, r3, #16
 8005ee0:	4b52      	ldr	r3, [pc, #328]	; (800602c <SystemCoreSetup+0x25c>)
 8005ee2:	685b      	ldr	r3, [r3, #4]
 8005ee4:	4951      	ldr	r1, [pc, #324]	; (800602c <SystemCoreSetup+0x25c>)
 8005ee6:	4313      	orrs	r3, r2
 8005ee8:	604b      	str	r3, [r1, #4]

    /* select OSC_HP clock as PLL input */
    SCU_PLL->PLLCON2 &= ~SCU_PLL_PLLCON2_PINSEL_Msk;
 8005eea:	4b4f      	ldr	r3, [pc, #316]	; (8006028 <SystemCoreSetup+0x258>)
 8005eec:	68db      	ldr	r3, [r3, #12]
 8005eee:	4a4e      	ldr	r2, [pc, #312]	; (8006028 <SystemCoreSetup+0x258>)
 8005ef0:	f023 0301 	bic.w	r3, r3, #1
 8005ef4:	60d3      	str	r3, [r2, #12]

    /* restart OSC Watchdog */
    SCU_PLL->PLLCON0 &= ~SCU_PLL_PLLCON0_OSCRES_Msk;
 8005ef6:	4b4c      	ldr	r3, [pc, #304]	; (8006028 <SystemCoreSetup+0x258>)
 8005ef8:	685b      	ldr	r3, [r3, #4]
 8005efa:	4a4b      	ldr	r2, [pc, #300]	; (8006028 <SystemCoreSetup+0x258>)
 8005efc:	f423 3300 	bic.w	r3, r3, #131072	; 0x20000
 8005f00:	6053      	str	r3, [r2, #4]

    while ((SCU_PLL->PLLSTAT & SCU_PLL_PLLSTAT_OSC_USABLE) != SCU_PLL_PLLSTAT_OSC_USABLE)
 8005f02:	bf00      	nop
 8005f04:	4b48      	ldr	r3, [pc, #288]	; (8006028 <SystemCoreSetup+0x258>)
 8005f06:	681b      	ldr	r3, [r3, #0]
 8005f08:	f403 7360 	and.w	r3, r3, #896	; 0x380
 8005f0c:	f5b3 7f60 	cmp.w	r3, #896	; 0x380
 8005f10:	d1f8      	bne.n	8005f04 <SystemCoreSetup+0x134>
  /* select backup clock as PLL input */
  SCU_PLL->PLLCON2 |= SCU_PLL_PLLCON2_PINSEL_Msk;
#endif

  /* Go to bypass the Main PLL */
  SCU_PLL->PLLCON0 |= SCU_PLL_PLLCON0_VCOBYP_Msk;
 8005f12:	4b45      	ldr	r3, [pc, #276]	; (8006028 <SystemCoreSetup+0x258>)
 8005f14:	685b      	ldr	r3, [r3, #4]
 8005f16:	4a44      	ldr	r2, [pc, #272]	; (8006028 <SystemCoreSetup+0x258>)
 8005f18:	f043 0301 	orr.w	r3, r3, #1
 8005f1c:	6053      	str	r3, [r2, #4]

  /* disconnect Oscillator from PLL */
  SCU_PLL->PLLCON0 |= SCU_PLL_PLLCON0_FINDIS_Msk;
 8005f1e:	4b42      	ldr	r3, [pc, #264]	; (8006028 <SystemCoreSetup+0x258>)
 8005f20:	685b      	ldr	r3, [r3, #4]
 8005f22:	4a41      	ldr	r2, [pc, #260]	; (8006028 <SystemCoreSetup+0x258>)
 8005f24:	f043 0310 	orr.w	r3, r3, #16
 8005f28:	6053      	str	r3, [r2, #4]

  /* Setup divider settings for main PLL */
  SCU_PLL->PLLCON1 = ((PLL_NDIV << SCU_PLL_PLLCON1_NDIV_Pos) |
 8005f2a:	4b3f      	ldr	r3, [pc, #252]	; (8006028 <SystemCoreSetup+0x258>)
 8005f2c:	4a41      	ldr	r2, [pc, #260]	; (8006034 <SystemCoreSetup+0x264>)
 8005f2e:	609a      	str	r2, [r3, #8]
                      (PLL_K2DIV_0 << SCU_PLL_PLLCON1_K2DIV_Pos) |
                      (PLL_PDIV << SCU_PLL_PLLCON1_PDIV_Pos));

  /* Set OSCDISCDIS */
  SCU_PLL->PLLCON0 |= SCU_PLL_PLLCON0_OSCDISCDIS_Msk;
 8005f30:	4b3d      	ldr	r3, [pc, #244]	; (8006028 <SystemCoreSetup+0x258>)
 8005f32:	685b      	ldr	r3, [r3, #4]
 8005f34:	4a3c      	ldr	r2, [pc, #240]	; (8006028 <SystemCoreSetup+0x258>)
 8005f36:	f043 0340 	orr.w	r3, r3, #64	; 0x40
 8005f3a:	6053      	str	r3, [r2, #4]

  /* connect Oscillator to PLL */
  SCU_PLL->PLLCON0 &= ~SCU_PLL_PLLCON0_FINDIS_Msk;
 8005f3c:	4b3a      	ldr	r3, [pc, #232]	; (8006028 <SystemCoreSetup+0x258>)
 8005f3e:	685b      	ldr	r3, [r3, #4]
 8005f40:	4a39      	ldr	r2, [pc, #228]	; (8006028 <SystemCoreSetup+0x258>)
 8005f42:	f023 0310 	bic.w	r3, r3, #16
 8005f46:	6053      	str	r3, [r2, #4]

  /* restart PLL Lock detection */
  SCU_PLL->PLLCON0 |= SCU_PLL_PLLCON0_RESLD_Msk;
 8005f48:	4b37      	ldr	r3, [pc, #220]	; (8006028 <SystemCoreSetup+0x258>)
 8005f4a:	685b      	ldr	r3, [r3, #4]
 8005f4c:	4a36      	ldr	r2, [pc, #216]	; (8006028 <SystemCoreSetup+0x258>)
 8005f4e:	f443 2380 	orr.w	r3, r3, #262144	; 0x40000
 8005f52:	6053      	str	r3, [r2, #4]

  while ((SCU_PLL->PLLSTAT & SCU_PLL_PLLSTAT_VCOLOCK_Msk) == 0U)
 8005f54:	bf00      	nop
 8005f56:	4b34      	ldr	r3, [pc, #208]	; (8006028 <SystemCoreSetup+0x258>)
 8005f58:	681b      	ldr	r3, [r3, #0]
 8005f5a:	f003 0304 	and.w	r3, r3, #4
 8005f5e:	2b00      	cmp	r3, #0
 8005f60:	d0f9      	beq.n	8005f56 <SystemCoreSetup+0x186>
  {
    /* wait for PLL Lock */
  }

  /* Disable bypass- put PLL clock back */
  SCU_PLL->PLLCON0 &= ~SCU_PLL_PLLCON0_VCOBYP_Msk;
 8005f62:	4b31      	ldr	r3, [pc, #196]	; (8006028 <SystemCoreSetup+0x258>)
 8005f64:	685b      	ldr	r3, [r3, #4]
 8005f66:	4a30      	ldr	r2, [pc, #192]	; (8006028 <SystemCoreSetup+0x258>)
 8005f68:	f023 0301 	bic.w	r3, r3, #1
 8005f6c:	6053      	str	r3, [r2, #4]
  while ((SCU_PLL->PLLSTAT & SCU_PLL_PLLSTAT_VCOBYST_Msk) != 0U)
 8005f6e:	bf00      	nop
 8005f70:	4b2d      	ldr	r3, [pc, #180]	; (8006028 <SystemCoreSetup+0x258>)
 8005f72:	681b      	ldr	r3, [r3, #0]
 8005f74:	f003 0301 	and.w	r3, r3, #1
 8005f78:	2b00      	cmp	r3, #0
 8005f7a:	d1f9      	bne.n	8005f70 <SystemCoreSetup+0x1a0>
  }
#endif /* ENABLE_PLL */

#if (SYS_CLOCK_SRC == SYS_CLOCK_SRC_PLL)
  /* Switch system clock to PLL */
  SCU_CLK->SYSCLKCR |= SCU_CLK_SYSCLKCR_SYSSEL_Msk;
 8005f7c:	4b2e      	ldr	r3, [pc, #184]	; (8006038 <SystemCoreSetup+0x268>)
 8005f7e:	68db      	ldr	r3, [r3, #12]
 8005f80:	4a2d      	ldr	r2, [pc, #180]	; (8006038 <SystemCoreSetup+0x268>)
 8005f82:	f443 3380 	orr.w	r3, r3, #65536	; 0x10000
 8005f86:	60d3      	str	r3, [r2, #12]
  /* Switch system clock to backup clock */
  SCU_CLK->SYSCLKCR &= ~SCU_CLK_SYSCLKCR_SYSSEL_Msk;
#endif

  /* Before scaling to final frequency we need to setup the clock dividers */
  SCU_CLK->PBCLKCR = PBCLKDIV;
 8005f88:	4b2b      	ldr	r3, [pc, #172]	; (8006038 <SystemCoreSetup+0x268>)
 8005f8a:	2200      	movs	r2, #0
 8005f8c:	615a      	str	r2, [r3, #20]
  SCU_CLK->CPUCLKCR = CPUCLKDIV;
 8005f8e:	4b2a      	ldr	r3, [pc, #168]	; (8006038 <SystemCoreSetup+0x268>)
 8005f90:	2200      	movs	r2, #0
 8005f92:	611a      	str	r2, [r3, #16]
  SCU_CLK->CCUCLKCR = CCUCLKDIV;
 8005f94:	4b28      	ldr	r3, [pc, #160]	; (8006038 <SystemCoreSetup+0x268>)
 8005f96:	2200      	movs	r2, #0
 8005f98:	621a      	str	r2, [r3, #32]
  SCU_CLK->WDTCLKCR = WDTCLKDIV;
 8005f9a:	4b27      	ldr	r3, [pc, #156]	; (8006038 <SystemCoreSetup+0x268>)
 8005f9c:	2200      	movs	r2, #0
 8005f9e:	625a      	str	r2, [r3, #36]	; 0x24
  SCU_CLK->EBUCLKCR = EBUCLKDIV;
 8005fa0:	4b25      	ldr	r3, [pc, #148]	; (8006038 <SystemCoreSetup+0x268>)
 8005fa2:	2200      	movs	r2, #0
 8005fa4:	61da      	str	r2, [r3, #28]
  SCU_CLK->USBCLKCR = USBCLKDIV;
 8005fa6:	4b24      	ldr	r3, [pc, #144]	; (8006038 <SystemCoreSetup+0x268>)
 8005fa8:	2203      	movs	r2, #3
 8005faa:	619a      	str	r2, [r3, #24]

#if ENABLE_PLL
  /* PLL frequency stepping...*/
  /* Reset OSCDISCDIS */
  SCU_PLL->PLLCON0 &= ~SCU_PLL_PLLCON0_OSCDISCDIS_Msk;
 8005fac:	4b1e      	ldr	r3, [pc, #120]	; (8006028 <SystemCoreSetup+0x258>)
 8005fae:	685b      	ldr	r3, [r3, #4]
 8005fb0:	4a1d      	ldr	r2, [pc, #116]	; (8006028 <SystemCoreSetup+0x258>)
 8005fb2:	f023 0340 	bic.w	r3, r3, #64	; 0x40
 8005fb6:	6053      	str	r3, [r2, #4]

  SCU_PLL->PLLCON1 = ((PLL_NDIV << SCU_PLL_PLLCON1_NDIV_Pos) |
 8005fb8:	4b1b      	ldr	r3, [pc, #108]	; (8006028 <SystemCoreSetup+0x258>)
 8005fba:	4a20      	ldr	r2, [pc, #128]	; (800603c <SystemCoreSetup+0x26c>)
 8005fbc:	609a      	str	r2, [r3, #8]
	                    (PLL_K2DIV_1 << SCU_PLL_PLLCON1_K2DIV_Pos) |
	                    (PLL_PDIV << SCU_PLL_PLLCON1_PDIV_Pos));


  delay(DELAY_CNT_50US_60MHZ);
 8005fbe:	f640 30b8 	movw	r0, #3000	; 0xbb8
 8005fc2:	f7ff fedc 	bl	8005d7e <delay>
  while ((SCU_PLL->PLLSTAT & SCU_PLL_PLLSTAT_VCOLOCK_Msk) == 0U)
 8005fc6:	bf00      	nop
 8005fc8:	4b17      	ldr	r3, [pc, #92]	; (8006028 <SystemCoreSetup+0x258>)
 8005fca:	681b      	ldr	r3, [r3, #0]
 8005fcc:	f003 0304 	and.w	r3, r3, #4
 8005fd0:	2b00      	cmp	r3, #0
 8005fd2:	d0f9      	beq.n	8005fc8 <SystemCoreSetup+0x1f8>
  {
    /* wait for PLL Lock */
  }

  SCU_PLL->PLLCON1 = ((PLL_NDIV << SCU_PLL_PLLCON1_NDIV_Pos) |
 8005fd4:	4b14      	ldr	r3, [pc, #80]	; (8006028 <SystemCoreSetup+0x258>)
 8005fd6:	4a1a      	ldr	r2, [pc, #104]	; (8006040 <SystemCoreSetup+0x270>)
 8005fd8:	609a      	str	r2, [r3, #8]
	                    (PLL_K2DIV_2 << SCU_PLL_PLLCON1_K2DIV_Pos) |
	                    (PLL_PDIV << SCU_PLL_PLLCON1_PDIV_Pos));


  delay(DELAY_CNT_50US_90MHZ);
 8005fda:	f241 1094 	movw	r0, #4500	; 0x1194
 8005fde:	f7ff fece 	bl	8005d7e <delay>
  while ((SCU_PLL->PLLSTAT & SCU_PLL_PLLSTAT_VCOLOCK_Msk) == 0U)
 8005fe2:	bf00      	nop
 8005fe4:	4b10      	ldr	r3, [pc, #64]	; (8006028 <SystemCoreSetup+0x258>)
 8005fe6:	681b      	ldr	r3, [r3, #0]
 8005fe8:	f003 0304 	and.w	r3, r3, #4
 8005fec:	2b00      	cmp	r3, #0
 8005fee:	d0f9      	beq.n	8005fe4 <SystemCoreSetup+0x214>
  {
    /* wait for PLL Lock */
  }

  SCU_PLL->PLLCON1 = ((PLL_NDIV << SCU_PLL_PLLCON1_NDIV_Pos) |
 8005ff0:	4b0d      	ldr	r3, [pc, #52]	; (8006028 <SystemCoreSetup+0x258>)
 8005ff2:	4a14      	ldr	r2, [pc, #80]	; (8006044 <SystemCoreSetup+0x274>)
 8005ff4:	609a      	str	r2, [r3, #8]
	                    (PLL_K2DIV << SCU_PLL_PLLCON1_K2DIV_Pos) |
	                    (PLL_PDIV << SCU_PLL_PLLCON1_PDIV_Pos));


  delay(DELAY_CNT_50US_120MHZ);
 8005ff6:	f241 7070 	movw	r0, #6000	; 0x1770
 8005ffa:	f7ff fec0 	bl	8005d7e <delay>
  while ((SCU_PLL->PLLSTAT & SCU_PLL_PLLSTAT_VCOLOCK_Msk) == 0U)
 8005ffe:	bf00      	nop
 8006000:	4b09      	ldr	r3, [pc, #36]	; (8006028 <SystemCoreSetup+0x258>)
 8006002:	681b      	ldr	r3, [r3, #0]
 8006004:	f003 0304 	and.w	r3, r3, #4
 8006008:	2b00      	cmp	r3, #0
 800600a:	d0f9      	beq.n	8006000 <SystemCoreSetup+0x230>
  {
    /* wait for PLL Lock */
  }

  SCU_TRAP->TRAPCLR = SCU_TRAP_TRAPCLR_SOSCWDGT_Msk | SCU_TRAP_TRAPCLR_SVCOLCKT_Msk;
 800600c:	4b0e      	ldr	r3, [pc, #56]	; (8006048 <SystemCoreSetup+0x278>)
 800600e:	2205      	movs	r2, #5
 8006010:	60da      	str	r2, [r3, #12]
    /* wait for PLL Lock */
  }
#endif /* (USBCLKDIV & SCU_CLK_USBCLKCR_USBSEL_Msk) */

  /* Enable selected clocks */
  SCU_CLK->CLKSET = ENABLE_SCUCLK;
 8006012:	4b09      	ldr	r3, [pc, #36]	; (8006038 <SystemCoreSetup+0x268>)
 8006014:	2200      	movs	r2, #0
 8006016:	605a      	str	r2, [r3, #4]
  PORT0->IOCR8 = (PORT0->IOCR8 & ~PORT0_IOCR8_PC8_Msk) | (0x11U << PORT0_IOCR8_PC8_Pos);
#endif

#endif  /* ENABLE_EXTCLK == 1  */

  SystemCoreClockUpdate();
 8006018:	f000 f818 	bl	800604c <SystemCoreClockUpdate>
}
 800601c:	bf00      	nop
 800601e:	bd80      	pop	{r7, pc}
 8006020:	50004200 	.word	0x50004200
 8006024:	50004400 	.word	0x50004400
 8006028:	50004710 	.word	0x50004710
 800602c:	50004700 	.word	0x50004700
 8006030:	6b5fca6b 	.word	0x6b5fca6b
 8006034:	01134f00 	.word	0x01134f00
 8006038:	50004600 	.word	0x50004600
 800603c:	01074f00 	.word	0x01074f00
 8006040:	01044f00 	.word	0x01044f00
 8006044:	01034f00 	.word	0x01034f00
 8006048:	50004160 	.word	0x50004160

0800604c <SystemCoreClockUpdate>:

__WEAK void SystemCoreClockUpdate(void)
{
 800604c:	b580      	push	{r7, lr}
 800604e:	b084      	sub	sp, #16
 8006050:	af00      	add	r7, sp, #0
  uint32_t pdiv;
  uint32_t ndiv;
  uint32_t kdiv;
  uint32_t temp;

  if (SCU_CLK->SYSCLKCR & SCU_CLK_SYSCLKCR_SYSSEL_Msk)
 8006052:	4b2f      	ldr	r3, [pc, #188]	; (8006110 <SystemCoreClockUpdate+0xc4>)
 8006054:	68db      	ldr	r3, [r3, #12]
 8006056:	f403 3380 	and.w	r3, r3, #65536	; 0x10000
 800605a:	2b00      	cmp	r3, #0
 800605c:	d03e      	beq.n	80060dc <SystemCoreClockUpdate+0x90>
  {
    /* fPLL is clock source for fSYS */
    if(SCU_PLL->PLLCON2 & SCU_PLL_PLLCON2_PINSEL_Msk)
 800605e:	4b2d      	ldr	r3, [pc, #180]	; (8006114 <SystemCoreClockUpdate+0xc8>)
 8006060:	68db      	ldr	r3, [r3, #12]
 8006062:	f003 0301 	and.w	r3, r3, #1
 8006066:	2b00      	cmp	r3, #0
 8006068:	d002      	beq.n	8006070 <SystemCoreClockUpdate+0x24>
    {
      /* PLL input clock is the backup clock (fOFI) */
      temp = OFI_FREQUENCY;
 800606a:	4b2b      	ldr	r3, [pc, #172]	; (8006118 <SystemCoreClockUpdate+0xcc>)
 800606c:	60fb      	str	r3, [r7, #12]
 800606e:	e002      	b.n	8006076 <SystemCoreClockUpdate+0x2a>
    }
    else
    {
      /* PLL input clock is the high performance osicllator (fOSCHP) */
      temp = OSCHP_GetFrequency();
 8006070:	f000 f856 	bl	8006120 <OSCHP_GetFrequency>
 8006074:	60f8      	str	r0, [r7, #12]
    }

    /* check if PLL is locked */
    if (SCU_PLL->PLLSTAT & SCU_PLL_PLLSTAT_VCOLOCK_Msk)
 8006076:	4b27      	ldr	r3, [pc, #156]	; (8006114 <SystemCoreClockUpdate+0xc8>)
 8006078:	681b      	ldr	r3, [r3, #0]
 800607a:	f003 0304 	and.w	r3, r3, #4
 800607e:	2b00      	cmp	r3, #0
 8006080:	d020      	beq.n	80060c4 <SystemCoreClockUpdate+0x78>
    {
      /* PLL normal mode */
      /* read back divider settings */
      pdiv = ((SCU_PLL->PLLCON1 & SCU_PLL_PLLCON1_PDIV_Msk) >> SCU_PLL_PLLCON1_PDIV_Pos) + 1;
 8006082:	4b24      	ldr	r3, [pc, #144]	; (8006114 <SystemCoreClockUpdate+0xc8>)
 8006084:	689b      	ldr	r3, [r3, #8]
 8006086:	0e1b      	lsrs	r3, r3, #24
 8006088:	f003 030f 	and.w	r3, r3, #15
 800608c:	3301      	adds	r3, #1
 800608e:	607b      	str	r3, [r7, #4]
      ndiv = ((SCU_PLL->PLLCON1 & SCU_PLL_PLLCON1_NDIV_Msk) >> SCU_PLL_PLLCON1_NDIV_Pos) + 1;
 8006090:	4b20      	ldr	r3, [pc, #128]	; (8006114 <SystemCoreClockUpdate+0xc8>)
 8006092:	689b      	ldr	r3, [r3, #8]
 8006094:	0a1b      	lsrs	r3, r3, #8
 8006096:	f003 037f 	and.w	r3, r3, #127	; 0x7f
 800609a:	3301      	adds	r3, #1
 800609c:	603b      	str	r3, [r7, #0]
      kdiv = ((SCU_PLL->PLLCON1 & SCU_PLL_PLLCON1_K2DIV_Msk) >> SCU_PLL_PLLCON1_K2DIV_Pos) + 1;
 800609e:	4b1d      	ldr	r3, [pc, #116]	; (8006114 <SystemCoreClockUpdate+0xc8>)
 80060a0:	689b      	ldr	r3, [r3, #8]
 80060a2:	0c1b      	lsrs	r3, r3, #16
 80060a4:	f003 037f 	and.w	r3, r3, #127	; 0x7f
 80060a8:	3301      	adds	r3, #1
 80060aa:	60bb      	str	r3, [r7, #8]

      temp = (temp / (pdiv * kdiv)) * ndiv;
 80060ac:	687b      	ldr	r3, [r7, #4]
 80060ae:	68ba      	ldr	r2, [r7, #8]
 80060b0:	fb02 f303 	mul.w	r3, r2, r3
 80060b4:	68fa      	ldr	r2, [r7, #12]
 80060b6:	fbb2 f2f3 	udiv	r2, r2, r3
 80060ba:	683b      	ldr	r3, [r7, #0]
 80060bc:	fb02 f303 	mul.w	r3, r2, r3
 80060c0:	60fb      	str	r3, [r7, #12]
 80060c2:	e00d      	b.n	80060e0 <SystemCoreClockUpdate+0x94>
    }
    else
    {
      /* PLL prescalar mode */
      /* read back divider settings */
      kdiv  = ((SCU_PLL->PLLCON1 & SCU_PLL_PLLCON1_K1DIV_Msk) >> SCU_PLL_PLLCON1_K1DIV_Pos) + 1;
 80060c4:	4b13      	ldr	r3, [pc, #76]	; (8006114 <SystemCoreClockUpdate+0xc8>)
 80060c6:	689b      	ldr	r3, [r3, #8]
 80060c8:	f003 037f 	and.w	r3, r3, #127	; 0x7f
 80060cc:	3301      	adds	r3, #1
 80060ce:	60bb      	str	r3, [r7, #8]
      
      temp = (temp / kdiv);
 80060d0:	68fa      	ldr	r2, [r7, #12]
 80060d2:	68bb      	ldr	r3, [r7, #8]
 80060d4:	fbb2 f3f3 	udiv	r3, r2, r3
 80060d8:	60fb      	str	r3, [r7, #12]
 80060da:	e001      	b.n	80060e0 <SystemCoreClockUpdate+0x94>
    }
  }
  else
  {
    /* fOFI is clock source for fSYS */    
    temp = OFI_FREQUENCY;
 80060dc:	4b0e      	ldr	r3, [pc, #56]	; (8006118 <SystemCoreClockUpdate+0xcc>)
 80060de:	60fb      	str	r3, [r7, #12]
  }

  temp = temp / ((SCU_CLK->SYSCLKCR & SCU_CLK_SYSCLKCR_SYSDIV_Msk) + 1);
 80060e0:	4b0b      	ldr	r3, [pc, #44]	; (8006110 <SystemCoreClockUpdate+0xc4>)
 80060e2:	68db      	ldr	r3, [r3, #12]
 80060e4:	b2db      	uxtb	r3, r3
 80060e6:	3301      	adds	r3, #1
 80060e8:	68fa      	ldr	r2, [r7, #12]
 80060ea:	fbb2 f3f3 	udiv	r3, r2, r3
 80060ee:	60fb      	str	r3, [r7, #12]
  temp = temp / ((SCU_CLK->CPUCLKCR & SCU_CLK_CPUCLKCR_CPUDIV_Msk) + 1);
 80060f0:	4b07      	ldr	r3, [pc, #28]	; (8006110 <SystemCoreClockUpdate+0xc4>)
 80060f2:	691b      	ldr	r3, [r3, #16]
 80060f4:	f003 0301 	and.w	r3, r3, #1
 80060f8:	3301      	adds	r3, #1
 80060fa:	68fa      	ldr	r2, [r7, #12]
 80060fc:	fbb2 f3f3 	udiv	r3, r2, r3
 8006100:	60fb      	str	r3, [r7, #12]

  SystemCoreClock = temp;
 8006102:	4a06      	ldr	r2, [pc, #24]	; (800611c <SystemCoreClockUpdate+0xd0>)
 8006104:	68fb      	ldr	r3, [r7, #12]
 8006106:	6013      	str	r3, [r2, #0]
}
 8006108:	bf00      	nop
 800610a:	3710      	adds	r7, #16
 800610c:	46bd      	mov	sp, r7
 800610e:	bd80      	pop	{r7, pc}
 8006110:	50004600 	.word	0x50004600
 8006114:	50004710 	.word	0x50004710
 8006118:	016e3600 	.word	0x016e3600
 800611c:	2000ffc0 	.word	0x2000ffc0

08006120 <OSCHP_GetFrequency>:

__WEAK uint32_t OSCHP_GetFrequency(void)
{
 8006120:	b480      	push	{r7}
 8006122:	af00      	add	r7, sp, #0
  return OSCHP_FREQUENCY;
 8006124:	4b02      	ldr	r3, [pc, #8]	; (8006130 <OSCHP_GetFrequency+0x10>)
}
 8006126:	4618      	mov	r0, r3
 8006128:	46bd      	mov	sp, r7
 800612a:	f85d 7b04 	ldr.w	r7, [sp], #4
 800612e:	4770      	bx	lr
 8006130:	00b71b00 	.word	0x00b71b00

08006134 <_sbrk>:

// defined in linker script
extern caddr_t Heap_Bank1_Start;
extern caddr_t Heap_Bank1_End;
caddr_t _sbrk(int nbytes)
{
 8006134:	b580      	push	{r7, lr}
 8006136:	b084      	sub	sp, #16
 8006138:	af00      	add	r7, sp, #0
 800613a:	6078      	str	r0, [r7, #4]
  static caddr_t heap_ptr = NULL;
  caddr_t base;

  if (heap_ptr == NULL) {
 800613c:	4b14      	ldr	r3, [pc, #80]	; (8006190 <_sbrk+0x5c>)
 800613e:	681b      	ldr	r3, [r3, #0]
 8006140:	2b00      	cmp	r3, #0
 8006142:	d102      	bne.n	800614a <_sbrk+0x16>
    heap_ptr = (caddr_t)&Heap_Bank1_Start;
 8006144:	4b12      	ldr	r3, [pc, #72]	; (8006190 <_sbrk+0x5c>)
 8006146:	4a13      	ldr	r2, [pc, #76]	; (8006194 <_sbrk+0x60>)
 8006148:	601a      	str	r2, [r3, #0]
  }

  base = heap_ptr;
 800614a:	4b11      	ldr	r3, [pc, #68]	; (8006190 <_sbrk+0x5c>)
 800614c:	681b      	ldr	r3, [r3, #0]
 800614e:	60fb      	str	r3, [r7, #12]

  /* heap word alignment */
  nbytes = (nbytes + 3) & ~0x3U;
 8006150:	687b      	ldr	r3, [r7, #4]
 8006152:	3303      	adds	r3, #3
 8006154:	f023 0303 	bic.w	r3, r3, #3
 8006158:	607b      	str	r3, [r7, #4]
  if ((caddr_t)&Heap_Bank1_End > (heap_ptr + nbytes))
 800615a:	4b0d      	ldr	r3, [pc, #52]	; (8006190 <_sbrk+0x5c>)
 800615c:	681a      	ldr	r2, [r3, #0]
 800615e:	687b      	ldr	r3, [r7, #4]
 8006160:	4413      	add	r3, r2
 8006162:	4a0d      	ldr	r2, [pc, #52]	; (8006198 <_sbrk+0x64>)
 8006164:	4293      	cmp	r3, r2
 8006166:	d207      	bcs.n	8006178 <_sbrk+0x44>
  {
    heap_ptr += nbytes;
 8006168:	4b09      	ldr	r3, [pc, #36]	; (8006190 <_sbrk+0x5c>)
 800616a:	681a      	ldr	r2, [r3, #0]
 800616c:	687b      	ldr	r3, [r7, #4]
 800616e:	4413      	add	r3, r2
 8006170:	4a07      	ldr	r2, [pc, #28]	; (8006190 <_sbrk+0x5c>)
 8006172:	6013      	str	r3, [r2, #0]
    return (base);
 8006174:	68fb      	ldr	r3, [r7, #12]
 8006176:	e006      	b.n	8006186 <_sbrk+0x52>
  }
  else
  {
    /* Heap overflow */
    errno = ENOMEM;
 8006178:	f000 f818 	bl	80061ac <__errno>
 800617c:	4603      	mov	r3, r0
 800617e:	220c      	movs	r2, #12
 8006180:	601a      	str	r2, [r3, #0]
    return ((caddr_t)-1);
 8006182:	f04f 33ff 	mov.w	r3, #4294967295	; 0xffffffff
  }
}
 8006186:	4618      	mov	r0, r3
 8006188:	3710      	adds	r7, #16
 800618a:	46bd      	mov	sp, r7
 800618c:	bd80      	pop	{r7, pc}
 800618e:	bf00      	nop
 8006190:	20000a90 	.word	0x20000a90
 8006194:	20000a98 	.word	0x20000a98
 8006198:	2000ffc0 	.word	0x2000ffc0

0800619c <_init>:

/* Init */
void _init(void)
{}
 800619c:	b480      	push	{r7}
 800619e:	af00      	add	r7, sp, #0
 80061a0:	bf00      	nop
 80061a2:	46bd      	mov	sp, r7
 80061a4:	f85d 7b04 	ldr.w	r7, [sp], #4
 80061a8:	4770      	bx	lr
	...

080061ac <__errno>:
 80061ac:	4b01      	ldr	r3, [pc, #4]	; (80061b4 <__errno+0x8>)
 80061ae:	6818      	ldr	r0, [r3, #0]
 80061b0:	4770      	bx	lr
 80061b2:	bf00      	nop
 80061b4:	20000034 	.word	0x20000034

080061b8 <__libc_init_array>:
 80061b8:	b570      	push	{r4, r5, r6, lr}
 80061ba:	4e0d      	ldr	r6, [pc, #52]	; (80061f0 <__libc_init_array+0x38>)
 80061bc:	4d0d      	ldr	r5, [pc, #52]	; (80061f4 <__libc_init_array+0x3c>)
 80061be:	1b76      	subs	r6, r6, r5
 80061c0:	10b6      	asrs	r6, r6, #2
 80061c2:	d006      	beq.n	80061d2 <__libc_init_array+0x1a>
 80061c4:	2400      	movs	r4, #0
 80061c6:	f855 3b04 	ldr.w	r3, [r5], #4
 80061ca:	3401      	adds	r4, #1
 80061cc:	4798      	blx	r3
 80061ce:	42a6      	cmp	r6, r4
 80061d0:	d1f9      	bne.n	80061c6 <__libc_init_array+0xe>
 80061d2:	4e09      	ldr	r6, [pc, #36]	; (80061f8 <__libc_init_array+0x40>)
 80061d4:	4d09      	ldr	r5, [pc, #36]	; (80061fc <__libc_init_array+0x44>)
 80061d6:	1b76      	subs	r6, r6, r5
 80061d8:	f7ff ffe0 	bl	800619c <_init>
 80061dc:	10b6      	asrs	r6, r6, #2
 80061de:	d006      	beq.n	80061ee <__libc_init_array+0x36>
 80061e0:	2400      	movs	r4, #0
 80061e2:	f855 3b04 	ldr.w	r3, [r5], #4
 80061e6:	3401      	adds	r4, #1
 80061e8:	4798      	blx	r3
 80061ea:	42a6      	cmp	r6, r4
 80061ec:	d1f9      	bne.n	80061e2 <__libc_init_array+0x2a>
 80061ee:	bd70      	pop	{r4, r5, r6, pc}
 80061f0:	20000460 	.word	0x20000460
 80061f4:	20000460 	.word	0x20000460
 80061f8:	20000460 	.word	0x20000460
 80061fc:	20000460 	.word	0x20000460

08006200 <memcmp>:
 8006200:	2a03      	cmp	r2, #3
 8006202:	b510      	push	{r4, lr}
 8006204:	d917      	bls.n	8006236 <memcmp+0x36>
 8006206:	ea40 0c01 	orr.w	ip, r0, r1
 800620a:	f01c 0f03 	tst.w	ip, #3
 800620e:	4604      	mov	r4, r0
 8006210:	460b      	mov	r3, r1
 8006212:	d123      	bne.n	800625c <memcmp+0x5c>
 8006214:	4619      	mov	r1, r3
 8006216:	4620      	mov	r0, r4
 8006218:	f8d1 e000 	ldr.w	lr, [r1]
 800621c:	f8d0 c000 	ldr.w	ip, [r0]
 8006220:	45f4      	cmp	ip, lr
 8006222:	f104 0404 	add.w	r4, r4, #4
 8006226:	f103 0304 	add.w	r3, r3, #4
 800622a:	d117      	bne.n	800625c <memcmp+0x5c>
 800622c:	3a04      	subs	r2, #4
 800622e:	2a03      	cmp	r2, #3
 8006230:	4620      	mov	r0, r4
 8006232:	4619      	mov	r1, r3
 8006234:	d8ee      	bhi.n	8006214 <memcmp+0x14>
 8006236:	1e54      	subs	r4, r2, #1
 8006238:	b1a2      	cbz	r2, 8006264 <memcmp+0x64>
 800623a:	f100 3cff 	add.w	ip, r0, #4294967295	; 0xffffffff
 800623e:	3901      	subs	r1, #1
 8006240:	e001      	b.n	8006246 <memcmp+0x46>
 8006242:	18c3      	adds	r3, r0, r3
 8006244:	d00c      	beq.n	8006260 <memcmp+0x60>
 8006246:	f81c ef01 	ldrb.w	lr, [ip, #1]!
 800624a:	f811 2f01 	ldrb.w	r2, [r1, #1]!
 800624e:	4596      	cmp	lr, r2
 8006250:	eba4 030c 	sub.w	r3, r4, ip
 8006254:	d0f5      	beq.n	8006242 <memcmp+0x42>
 8006256:	ebae 0002 	sub.w	r0, lr, r2
 800625a:	bd10      	pop	{r4, pc}
 800625c:	1e54      	subs	r4, r2, #1
 800625e:	e7ec      	b.n	800623a <memcmp+0x3a>
 8006260:	4618      	mov	r0, r3
 8006262:	bd10      	pop	{r4, pc}
 8006264:	4610      	mov	r0, r2
 8006266:	bd10      	pop	{r4, pc}

08006268 <memcpy>:
 8006268:	4684      	mov	ip, r0
 800626a:	ea41 0300 	orr.w	r3, r1, r0
 800626e:	f013 0303 	ands.w	r3, r3, #3
 8006272:	d16d      	bne.n	8006350 <memcpy+0xe8>
 8006274:	3a40      	subs	r2, #64	; 0x40
 8006276:	d341      	bcc.n	80062fc <memcpy+0x94>
 8006278:	f851 3b04 	ldr.w	r3, [r1], #4
 800627c:	f840 3b04 	str.w	r3, [r0], #4
 8006280:	f851 3b04 	ldr.w	r3, [r1], #4
 8006284:	f840 3b04 	str.w	r3, [r0], #4
 8006288:	f851 3b04 	ldr.w	r3, [r1], #4
 800628c:	f840 3b04 	str.w	r3, [r0], #4
 8006290:	f851 3b04 	ldr.w	r3, [r1], #4
 8006294:	f840 3b04 	str.w	r3, [r0], #4
 8006298:	f851 3b04 	ldr.w	r3, [r1], #4
 800629c:	f840 3b04 	str.w	r3, [r0], #4
 80062a0:	f851 3b04 	ldr.w	r3, [r1], #4
 80062a4:	f840 3b04 	str.w	r3, [r0], #4
 80062a8:	f851 3b04 	ldr.w	r3, [r1], #4
 80062ac:	f840 3b04 	str.w	r3, [r0], #4
 80062b0:	f851 3b04 	ldr.w	r3, [r1], #4
 80062b4:	f840 3b04 	str.w	r3, [r0], #4
 80062b8:	f851 3b04 	ldr.w	r3, [r1], #4
 80062bc:	f840 3b04 	str.w	r3, [r0], #4
 80062c0:	f851 3b04 	ldr.w	r3, [r1], #4
 80062c4:	f840 3b04 	str.w	r3, [r0], #4
 80062c8:	f851 3b04 	ldr.w	r3, [r1], #4
 80062cc:	f840 3b04 	str.w	r3, [r0], #4
 80062d0:	f851 3b04 	ldr.w	r3, [r1], #4
 80062d4:	f840 3b04 	str.w	r3, [r0], #4
 80062d8:	f851 3b04 	ldr.w	r3, [r1], #4
 80062dc:	f840 3b04 	str.w	r3, [r0], #4
 80062e0:	f851 3b04 	ldr.w	r3, [r1], #4
 80062e4:	f840 3b04 	str.w	r3, [r0], #4
 80062e8:	f851 3b04 	ldr.w	r3, [r1], #4
 80062ec:	f840 3b04 	str.w	r3, [r0], #4
 80062f0:	f851 3b04 	ldr.w	r3, [r1], #4
 80062f4:	f840 3b04 	str.w	r3, [r0], #4
 80062f8:	3a40      	subs	r2, #64	; 0x40
 80062fa:	d2bd      	bcs.n	8006278 <memcpy+0x10>
 80062fc:	3230      	adds	r2, #48	; 0x30
 80062fe:	d311      	bcc.n	8006324 <memcpy+0xbc>
 8006300:	f851 3b04 	ldr.w	r3, [r1], #4
 8006304:	f840 3b04 	str.w	r3, [r0], #4
 8006308:	f851 3b04 	ldr.w	r3, [r1], #4
 800630c:	f840 3b04 	str.w	r3, [r0], #4
 8006310:	f851 3b04 	ldr.w	r3, [r1], #4
 8006314:	f840 3b04 	str.w	r3, [r0], #4
 8006318:	f851 3b04 	ldr.w	r3, [r1], #4
 800631c:	f840 3b04 	str.w	r3, [r0], #4
 8006320:	3a10      	subs	r2, #16
 8006322:	d2ed      	bcs.n	8006300 <memcpy+0x98>
 8006324:	320c      	adds	r2, #12
 8006326:	d305      	bcc.n	8006334 <memcpy+0xcc>
 8006328:	f851 3b04 	ldr.w	r3, [r1], #4
 800632c:	f840 3b04 	str.w	r3, [r0], #4
 8006330:	3a04      	subs	r2, #4
 8006332:	d2f9      	bcs.n	8006328 <memcpy+0xc0>
 8006334:	3204      	adds	r2, #4
 8006336:	d008      	beq.n	800634a <memcpy+0xe2>
 8006338:	07d2      	lsls	r2, r2, #31
 800633a:	bf1c      	itt	ne
 800633c:	f811 3b01 	ldrbne.w	r3, [r1], #1
 8006340:	f800 3b01 	strbne.w	r3, [r0], #1
 8006344:	d301      	bcc.n	800634a <memcpy+0xe2>
 8006346:	880b      	ldrh	r3, [r1, #0]
 8006348:	8003      	strh	r3, [r0, #0]
 800634a:	4660      	mov	r0, ip
 800634c:	4770      	bx	lr
 800634e:	bf00      	nop
 8006350:	2a08      	cmp	r2, #8
 8006352:	d313      	bcc.n	800637c <memcpy+0x114>
 8006354:	078b      	lsls	r3, r1, #30
 8006356:	d08d      	beq.n	8006274 <memcpy+0xc>
 8006358:	f010 0303 	ands.w	r3, r0, #3
 800635c:	d08a      	beq.n	8006274 <memcpy+0xc>
 800635e:	f1c3 0304 	rsb	r3, r3, #4
 8006362:	1ad2      	subs	r2, r2, r3
 8006364:	07db      	lsls	r3, r3, #31
 8006366:	bf1c      	itt	ne
 8006368:	f811 3b01 	ldrbne.w	r3, [r1], #1
 800636c:	f800 3b01 	strbne.w	r3, [r0], #1
 8006370:	d380      	bcc.n	8006274 <memcpy+0xc>
 8006372:	f831 3b02 	ldrh.w	r3, [r1], #2
 8006376:	f820 3b02 	strh.w	r3, [r0], #2
 800637a:	e77b      	b.n	8006274 <memcpy+0xc>
 800637c:	3a04      	subs	r2, #4
 800637e:	d3d9      	bcc.n	8006334 <memcpy+0xcc>
 8006380:	3a01      	subs	r2, #1
 8006382:	f811 3b01 	ldrb.w	r3, [r1], #1
 8006386:	f800 3b01 	strb.w	r3, [r0], #1
 800638a:	d2f9      	bcs.n	8006380 <memcpy+0x118>
 800638c:	780b      	ldrb	r3, [r1, #0]
 800638e:	7003      	strb	r3, [r0, #0]
 8006390:	784b      	ldrb	r3, [r1, #1]
 8006392:	7043      	strb	r3, [r0, #1]
 8006394:	788b      	ldrb	r3, [r1, #2]
 8006396:	7083      	strb	r3, [r0, #2]
 8006398:	4660      	mov	r0, ip
 800639a:	4770      	bx	lr

0800639c <memset>:
 800639c:	0783      	lsls	r3, r0, #30
 800639e:	b530      	push	{r4, r5, lr}
 80063a0:	d048      	beq.n	8006434 <memset+0x98>
 80063a2:	1e54      	subs	r4, r2, #1
 80063a4:	2a00      	cmp	r2, #0
 80063a6:	d03f      	beq.n	8006428 <memset+0x8c>
 80063a8:	b2ca      	uxtb	r2, r1
 80063aa:	4603      	mov	r3, r0
 80063ac:	e001      	b.n	80063b2 <memset+0x16>
 80063ae:	3c01      	subs	r4, #1
 80063b0:	d33a      	bcc.n	8006428 <memset+0x8c>
 80063b2:	f803 2b01 	strb.w	r2, [r3], #1
 80063b6:	079d      	lsls	r5, r3, #30
 80063b8:	d1f9      	bne.n	80063ae <memset+0x12>
 80063ba:	2c03      	cmp	r4, #3
 80063bc:	d92d      	bls.n	800641a <memset+0x7e>
 80063be:	b2cd      	uxtb	r5, r1
 80063c0:	ea45 2505 	orr.w	r5, r5, r5, lsl #8
 80063c4:	2c0f      	cmp	r4, #15
 80063c6:	ea45 4505 	orr.w	r5, r5, r5, lsl #16
 80063ca:	d936      	bls.n	800643a <memset+0x9e>
 80063cc:	f1a4 0210 	sub.w	r2, r4, #16
 80063d0:	f022 0c0f 	bic.w	ip, r2, #15
 80063d4:	f103 0e20 	add.w	lr, r3, #32
 80063d8:	44e6      	add	lr, ip
 80063da:	ea4f 1c12 	mov.w	ip, r2, lsr #4
 80063de:	f103 0210 	add.w	r2, r3, #16
 80063e2:	e942 5504 	strd	r5, r5, [r2, #-16]
 80063e6:	e942 5502 	strd	r5, r5, [r2, #-8]
 80063ea:	3210      	adds	r2, #16
 80063ec:	4572      	cmp	r2, lr
 80063ee:	d1f8      	bne.n	80063e2 <memset+0x46>
 80063f0:	f10c 0201 	add.w	r2, ip, #1
 80063f4:	f014 0f0c 	tst.w	r4, #12
 80063f8:	eb03 1202 	add.w	r2, r3, r2, lsl #4
 80063fc:	f004 0c0f 	and.w	ip, r4, #15
 8006400:	d013      	beq.n	800642a <memset+0x8e>
 8006402:	f1ac 0304 	sub.w	r3, ip, #4
 8006406:	f023 0303 	bic.w	r3, r3, #3
 800640a:	3304      	adds	r3, #4
 800640c:	4413      	add	r3, r2
 800640e:	f842 5b04 	str.w	r5, [r2], #4
 8006412:	4293      	cmp	r3, r2
 8006414:	d1fb      	bne.n	800640e <memset+0x72>
 8006416:	f00c 0403 	and.w	r4, ip, #3
 800641a:	b12c      	cbz	r4, 8006428 <memset+0x8c>
 800641c:	b2ca      	uxtb	r2, r1
 800641e:	441c      	add	r4, r3
 8006420:	f803 2b01 	strb.w	r2, [r3], #1
 8006424:	429c      	cmp	r4, r3
 8006426:	d1fb      	bne.n	8006420 <memset+0x84>
 8006428:	bd30      	pop	{r4, r5, pc}
 800642a:	4664      	mov	r4, ip
 800642c:	4613      	mov	r3, r2
 800642e:	2c00      	cmp	r4, #0
 8006430:	d1f4      	bne.n	800641c <memset+0x80>
 8006432:	e7f9      	b.n	8006428 <memset+0x8c>
 8006434:	4603      	mov	r3, r0
 8006436:	4614      	mov	r4, r2
 8006438:	e7bf      	b.n	80063ba <memset+0x1e>
 800643a:	461a      	mov	r2, r3
 800643c:	46a4      	mov	ip, r4
 800643e:	e7e0      	b.n	8006402 <memset+0x66>

08006440 <clock_config>:
 8006440:	0250 0104 0000 0001 0000 0000 0000 0001     P...............
 8006450:	0101 0101                                   ....

08006454 <KeyboardReport>:
 8006454:	0105 0609 01a1 0705 e019 e729 0015 0125     ..........)...%.
 8006464:	0175 0895 0281 0195 0875 0181 0805 0119     u.......u.......
 8006474:	0529 0595 0175 0291 0195 0375 0191 0015     )...u.....u.....
 8006484:	ff25 0705 0019 ff29 0695 0875 0081 00c0     %.....)...u.....

08006494 <DeviceDescriptor>:
 8006494:	0112 0110 0000 4000 03eb 2042 0001 0201     .......@..B ....
 80064a4:	0100 0000                                   ....

080064a8 <ConfigurationDescriptor>:
 80064a8:	0209 0022 0101 c000 0932 0004 0100 0103     ..".....2.......
 80064b8:	0001 2109 0111 0100 3f22 0700 8105 0803     ...!...."?......
 80064c8:	0100 0000                                   ....

080064cc <LanguageString>:
 80064cc:	0304 0409 0000 0000                         ........

080064d4 <ManufacturerString>:
 80064d4:	0350 004d 0000 0061 0000 006e 0000 0075     P.M...a...n...u.
 80064e4:	0000 0066 0000 0061 0000 0063 0000 0074     ..f...a...c...t.
 80064f4:	0000 0075 0000 0072 0000 0065 0000 0072     ..u...r...e...r.
 8006504:	0000 0020 0000 0053 0000 0074 0000 0072     .. ...S...t...r.
 8006514:	0000 0069 0000 006e 0000 0067 0000 0000     ..i...n...g.....
 8006524:	0000 0000                                   ....

08006528 <ProductString>:
 8006528:	0348 0044 0000 0065 0000 0073 0000 0063     H.D...e...s...c.
 8006538:	0000 0072 0000 0069 0000 0070 0000 0074     ..r...i...p...t.
 8006548:	0000 006f 0000 0072 0000 0020 0000 0053     ..o...r... ...S.
 8006558:	0000 0074 0000 0072 0000 0069 0000 006e     ..t...r...i...n.
 8006568:	0000 0067 0000 0000 0000 0000               ..g.........

08006574 <Driver_USBD0>:
 8006574:	4f35 0800 4f9d 0800 51d9 0800 5215 0800     5O...O...Q...R..
 8006584:	5249 0800 527d 0800 5485 0800 56a5 0800     IR..}R...T...V..
 8006594:	599d 0800 54d1 0800 52e1 0800 5369 0800     .Y...T...R..iS..
 80065a4:	53e1 0800 561d 0800 5b0d 0800 5b39 0800     .S...V...[..9[..

080065b4 <_global_impure_ptr>:
 80065b4:	0038 2000                                   8.. 
